(lp1
ccopy_reg
_reconstructor
p2
(cDataParserModule.dataParser
FinancialObject
p3
c__builtin__
object
p4
NtRp5
(dp6
S'valuesMonthly'
p7
(lp8
sS'lastUpdate'
p9
cdatetime
date
p10
(S'\x07\xdc\x05\x13'
tRp11
sS'currentValue'
p12
(lp13
sS'name'
p14
S'1st United Bancorp Inc. (FL)'
p15
sS'valuesWeekly'
p16
(lp17
sS'valuesDaily'
p18
(lp19
(lp20
g10
(S'\x07\xd8\x06\x18'
tRp21
aF6.5
aF7
aF6.5
aF7
aI1500
aa(lp22
g10
(S'\x07\xd8\x06\x19'
tRp23
aF7
aF7
aF7
aF7
aI0
aa(lp24
g10
(S'\x07\xd8\x06\x1a'
tRp25
aF7
aF7
aF7
aF7
aI0
aa(lp26
g10
(S'\x07\xd8\x06\x1b'
tRp27
aF7
aF7
aF7
aF7
aI0
aa(lp28
g10
(S'\x07\xd8\x06\x1e'
tRp29
aF6.25
aF6.4199999999999999
aF6.2300000000000004
aF6.25
aI143700
aa(lp30
g10
(S'\x07\xd8\x07\x01'
tRp31
aF6.25
aF6.25
aF6.25
aF6.25
aI10000
aa(lp32
g10
(S'\x07\xd8\x07\x02'
tRp33
aF6.25
aF6.25
aF6.25
aF6.25
aI0
aa(lp34
g10
(S'\x07\xd8\x07\x03'
tRp35
aF6.25
aF6.25
aF6.25
aF6.25
aI0
aa(lp36
g10
(S'\x07\xd8\x07\x07'
tRp37
aF7.0499999999999998
aF7.5
aF6.25
aF6.25
aI2400
aa(lp38
g10
(S'\x07\xd8\x07\x08'
tRp39
aF6
aF6
aF6
aF6
aI400
aa(lp40
g10
(S'\x07\xd8\x07\t'
tRp41
aF6
aF6
aF6
aF6
aI0
aa(lp42
g10
(S'\x07\xd8\x07\n'
tRp43
aF6
aF6
aF6
aF6
aI0
aa(lp44
g10
(S'\x07\xd8\x07\x0b'
tRp45
aF6
aF6
aF6
aF6
aI0
aa(lp46
g10
(S'\x07\xd8\x07\x0e'
tRp47
aF6
aF6
aF6
aF6
aI0
aa(lp48
g10
(S'\x07\xd8\x07\x0f'
tRp49
aF6.6500000000000004
aF6.6500000000000004
aF6.6500000000000004
aF6.6500000000000004
aI1300
aa(lp50
g10
(S'\x07\xd8\x07\x10'
tRp51
aF6.6500000000000004
aF6.6500000000000004
aF6.6500000000000004
aF6.6500000000000004
aI0
aa(lp52
g10
(S'\x07\xd8\x07\x11'
tRp53
aF6.6500000000000004
aF6.6500000000000004
aF6.6500000000000004
aF6.6500000000000004
aI0
aa(lp54
g10
(S'\x07\xd8\x07\x12'
tRp55
aF6.6500000000000004
aF6.6500000000000004
aF6.6500000000000004
aF6.6500000000000004
aI0
aa(lp56
g10
(S'\x07\xd8\x07\x15'
tRp57
aF6.6699999999999999
aF7
aF6.6699999999999999
aF7
aI1500
aa(lp58
g10
(S'\x07\xd8\x07\x16'
tRp59
aF7
aF7
aF7
aF7
aI0
aa(lp60
g10
(S'\x07\xd8\x07\x17'
tRp61
aF7
aF7
aF7
aF7
aI0
aa(lp62
g10
(S'\x07\xd8\x07\x18'
tRp63
aF7
aF7
aF7
aF7
aI0
aa(lp64
g10
(S'\x07\xd8\x07\x19'
tRp65
aF8
aF8
aF7.9000000000000004
aF7.9000000000000004
aI1500
aa(lp66
g10
(S'\x07\xd8\x07\x1c'
tRp67
aF7.9000000000000004
aF7.9000000000000004
aF7.9000000000000004
aF7.9000000000000004
aI0
aa(lp68
g10
(S'\x07\xd8\x07\x1d'
tRp69
aF7.9000000000000004
aF7.9000000000000004
aF7.9000000000000004
aF7.9000000000000004
aI0
aa(lp70
g10
(S'\x07\xd8\x07\x1e'
tRp71
aF7.5
aF7.75
aF7
aF7.5
aI4700
aa(lp72
g10
(S'\x07\xd8\x07\x1f'
tRp73
aF7.5
aF7.5
aF7.5
aF7.5
aI0
aa(lp74
g10
(S'\x07\xd8\x08\x01'
tRp75
aF7.5
aF7.5
aF7.5
aF7.5
aI0
aa(lp76
g10
(S'\x07\xd8\x08\x04'
tRp77
aF7.5
aF7.5
aF7.5
aF7.5
aI0
aa(lp78
g10
(S'\x07\xd8\x08\x05'
tRp79
aF7.75
aF7.75
aF7.75
aF7.75
aI200
aa(lp80
g10
(S'\x07\xd8\x08\x06'
tRp81
aF7.75
aF7.75
aF7.75
aF7.75
aI0
aa(lp82
g10
(S'\x07\xd8\x08\x07'
tRp83
aF7.75
aF7.75
aF7.75
aF7.75
aI0
aa(lp84
g10
(S'\x07\xd8\x08\x08'
tRp85
aF7.75
aF7.75
aF7.75
aF7.75
aI0
aa(lp86
g10
(S'\x07\xd8\x08\x0b'
tRp87
aF7
aF7
aF7
aF7
aI700
aa(lp88
g10
(S'\x07\xd8\x08\x0c'
tRp89
aF7
aF7
aF7
aF7
aI0
aa(lp90
g10
(S'\x07\xd8\x08\r'
tRp91
aF7
aF7
aF7
aF7
aI0
aa(lp92
g10
(S'\x07\xd8\x08\x0e'
tRp93
aF6.9000000000000004
aF7
aF6.9000000000000004
aF7
aI1300
aa(lp94
g10
(S'\x07\xd8\x08\x0f'
tRp95
aF7
aF7
aF7
aF7
aI0
aa(lp96
g10
(S'\x07\xd8\x08\x12'
tRp97
aF7
aF7
aF7
aF7
aI0
aa(lp98
g10
(S'\x07\xd8\x08\x13'
tRp99
aF7.2999999999999998
aF7.2999999999999998
aF7.2999999999999998
aF7.2999999999999998
aI100
aa(lp100
g10
(S'\x07\xd8\x08\x14'
tRp101
aF7.2999999999999998
aF7.2999999999999998
aF7.2999999999999998
aF7.2999999999999998
aI0
aa(lp102
g10
(S'\x07\xd8\x08\x15'
tRp103
aF7.2999999999999998
aF7.2999999999999998
aF7.2999999999999998
aF7.2999999999999998
aI0
aa(lp104
g10
(S'\x07\xd8\x08\x16'
tRp105
aF7.2999999999999998
aF7.2999999999999998
aF7.2999999999999998
aF7.2999999999999998
aI0
aa(lp106
g10
(S'\x07\xd8\x08\x19'
tRp107
aF7.2999999999999998
aF7.2999999999999998
aF7.2999999999999998
aF7.2999999999999998
aI0
aa(lp108
g10
(S'\x07\xd8\x08\x1a'
tRp109
aF7.2999999999999998
aF7.2999999999999998
aF7.2999999999999998
aF7.2999999999999998
aI0
aa(lp110
g10
(S'\x07\xd8\x08\x1b'
tRp111
aF7.0499999999999998
aF7.0499999999999998
aF7.0499999999999998
aF7.0499999999999998
aI200
aa(lp112
g10
(S'\x07\xd8\x08\x1c'
tRp113
aF7.0499999999999998
aF7.0499999999999998
aF7.0499999999999998
aF7.0499999999999998
aI0
aa(lp114
g10
(S'\x07\xd8\x08\x1d'
tRp115
aF7.0499999999999998
aF7.0499999999999998
aF7.0499999999999998
aF7.0499999999999998
aI0
aa(lp116
g10
(S'\x07\xd8\t\x02'
tRp117
aF7.0499999999999998
aF7.0499999999999998
aF7.0499999999999998
aF7.0499999999999998
aI0
aa(lp118
g10
(S'\x07\xd8\t\x03'
tRp119
aF7.0499999999999998
aF7.0499999999999998
aF7.0499999999999998
aF7.0499999999999998
aI0
aa(lp120
g10
(S'\x07\xd8\t\x04'
tRp121
aF7.0499999999999998
aF7.0499999999999998
aF7.0499999999999998
aF7.0499999999999998
aI0
aa(lp122
g10
(S'\x07\xd8\t\x05'
tRp123
aF7.0499999999999998
aF7.0499999999999998
aF7.0499999999999998
aF7.0499999999999998
aI0
aa(lp124
g10
(S'\x07\xd8\t\x08'
tRp125
aF7.0499999999999998
aF7.0499999999999998
aF7.0499999999999998
aF7.0499999999999998
aI0
aa(lp126
g10
(S'\x07\xd8\t\t'
tRp127
aF7.0499999999999998
aF7.0499999999999998
aF7.0499999999999998
aF7.0499999999999998
aI0
aa(lp128
g10
(S'\x07\xd8\t\n'
tRp129
aF7.0499999999999998
aF7.0499999999999998
aF7.0499999999999998
aF7.0499999999999998
aI0
aa(lp130
g10
(S'\x07\xd8\t\x0b'
tRp131
aF7.0499999999999998
aF7.0499999999999998
aF7.0499999999999998
aF7.0499999999999998
aI0
aa(lp132
g10
(S'\x07\xd8\t\x0c'
tRp133
aF7.0499999999999998
aF7.0499999999999998
aF7.0499999999999998
aF7.0499999999999998
aI0
aa(lp134
g10
(S'\x07\xd8\t\x0f'
tRp135
aF7.0499999999999998
aF7.0499999999999998
aF7.0499999999999998
aF7.0499999999999998
aI0
aa(lp136
g10
(S'\x07\xd8\t\x10'
tRp137
aF7.0499999999999998
aF7.0499999999999998
aF7.0499999999999998
aF7.0499999999999998
aI0
aa(lp138
g10
(S'\x07\xd8\t\x11'
tRp139
aF7.0499999999999998
aF7.0499999999999998
aF7.0499999999999998
aF7.0499999999999998
aI0
aa(lp140
g10
(S'\x07\xd8\t\x12'
tRp141
aF7.0499999999999998
aF7.0499999999999998
aF7.0499999999999998
aF7.0499999999999998
aI0
aa(lp142
g10
(S'\x07\xd8\t\x13'
tRp143
aF7.0499999999999998
aF7.0499999999999998
aF7.0499999999999998
aF7.0499999999999998
aI0
aa(lp144
g10
(S'\x07\xd8\t\x16'
tRp145
aF7.0499999999999998
aF7.0499999999999998
aF7.0499999999999998
aF7.0499999999999998
aI0
aa(lp146
g10
(S'\x07\xd8\t\x17'
tRp147
aF7.0499999999999998
aF7.0499999999999998
aF7.0499999999999998
aF7.0499999999999998
aI0
aa(lp148
g10
(S'\x07\xd8\t\x18'
tRp149
aF7.0499999999999998
aF7.0499999999999998
aF7.0499999999999998
aF7.0499999999999998
aI0
aa(lp150
g10
(S'\x07\xd8\t\x19'
tRp151
aF7.0499999999999998
aF7.0499999999999998
aF7.0499999999999998
aF7.0499999999999998
aI0
aa(lp152
g10
(S'\x07\xd8\t\x1a'
tRp153
aF7.0999999999999996
aF7.75
aF7.0999999999999996
aF7.5
aI1500
aa(lp154
g10
(S'\x07\xd8\t\x1d'
tRp155
aF7.5
aF7.5
aF7.5
aF7.5
aI0
aa(lp156
g10
(S'\x07\xd8\t\x1e'
tRp157
aF7.5
aF7.5
aF7.5
aF7.5
aI0
aa(lp158
g10
(S'\x07\xd8\n\x01'
tRp159
aF7.5
aF7.5
aF7.5
aF7.5
aI0
aa(lp160
g10
(S'\x07\xd8\n\x02'
tRp161
aF7.8499999999999996
aF7.8499999999999996
aF7.8499999999999996
aF7.8499999999999996
aI1000
aa(lp162
g10
(S'\x07\xd8\n\x03'
tRp163
aF7.8499999999999996
aF7.8499999999999996
aF7.8499999999999996
aF7.8499999999999996
aI0
aa(lp164
g10
(S'\x07\xd8\n\x06'
tRp165
aF7.8499999999999996
aF7.8499999999999996
aF7.8499999999999996
aF7.8499999999999996
aI0
aa(lp166
g10
(S'\x07\xd8\n\x07'
tRp167
aF7.8499999999999996
aF7.8499999999999996
aF7.8499999999999996
aF7.8499999999999996
aI0
aa(lp168
g10
(S'\x07\xd8\n\x08'
tRp169
aF7
aF7
aF7
aF7
aI5000
aa(lp170
g10
(S'\x07\xd8\n\t'
tRp171
aF7
aF7
aF7
aF7
aI0
aa(lp172
g10
(S'\x07\xd8\n\n'
tRp173
aF5.75
aF5.9000000000000004
aF5.75
aF5.9000000000000004
aI1500
aa(lp174
g10
(S'\x07\xd8\n\r'
tRp175
aF5.75
aF5.75
aF5.75
aF5.75
aI1000
aa(lp176
g10
(S'\x07\xd8\n\x0e'
tRp177
aF5.75
aF5.75
aF5.75
aF5.75
aI0
aa(lp178
g10
(S'\x07\xd8\n\x0f'
tRp179
aF5.75
aF5.75
aF5.75
aF5.75
aI0
aa(lp180
g10
(S'\x07\xd8\n\x10'
tRp181
aF5.75
aF5.75
aF5.75
aF5.75
aI0
aa(lp182
g10
(S'\x07\xd8\n\x11'
tRp183
aF6.5
aF6.5
aF6.5
aF6.5
aI1000
aa(lp184
g10
(S'\x07\xd8\n\x14'
tRp185
aF6.5
aF6.5
aF6.5
aF6.5
aI0
aa(lp186
g10
(S'\x07\xd8\n\x15'
tRp187
aF5.5
aF5.5
aF5.5
aF5.5
aI8500
aa(lp188
g10
(S'\x07\xd8\n\x16'
tRp189
aF5.5
aF5.5
aF5.5
aF5.5
aI0
aa(lp190
g10
(S'\x07\xd8\n\x17'
tRp191
aF5.5
aF5.5
aF5.5
aF5.5
aI2000
aa(lp192
g10
(S'\x07\xd8\n\x18'
tRp193
aF5.5
aF5.5
aF5.5
aF5.5
aI0
aa(lp194
g10
(S'\x07\xd8\n\x1b'
tRp195
aF5.5
aF5.5
aF5.5
aF5.5
aI0
aa(lp196
g10
(S'\x07\xd8\n\x1c'
tRp197
aF5.5
aF5.5
aF5.5
aF5.5
aI0
aa(lp198
g10
(S'\x07\xd8\n\x1d'
tRp199
aF5.5
aF5.5
aF5.5
aF5.5
aI0
aa(lp200
g10
(S'\x07\xd8\n\x1e'
tRp201
aF5.5
aF5.5
aF5.5
aF5.5
aI0
aa(lp202
g10
(S'\x07\xd8\n\x1f'
tRp203
aF5.5
aF5.5
aF5.5
aF5.5
aI0
aa(lp204
g10
(S'\x07\xd8\x0b\x03'
tRp205
aF5.5
aF5.5
aF5.5
aF5.5
aI0
aa(lp206
g10
(S'\x07\xd8\x0b\x04'
tRp207
aF5.5
aF5.5
aF5.5
aF5.5
aI0
aa(lp208
g10
(S'\x07\xd8\x0b\x05'
tRp209
aF5.25
aF5.25
aF5.25
aF5.25
aI300
aa(lp210
g10
(S'\x07\xd8\x0b\x06'
tRp211
aF5.25
aF5.25
aF5.25
aF5.25
aI0
aa(lp212
g10
(S'\x07\xd8\x0b\x07'
tRp213
aF5.25
aF5.25
aF5.25
aF5.25
aI0
aa(lp214
g10
(S'\x07\xd8\x0b\n'
tRp215
aF5.25
aF5.25
aF5.25
aF5.25
aI2000
aa(lp216
g10
(S'\x07\xd8\x0b\x0b'
tRp217
aF5.25
aF5.25
aF5.25
aF5.25
aI0
aa(lp218
g10
(S'\x07\xd8\x0b\x0c'
tRp219
aF5.25
aF5.25
aF5.25
aF5.25
aI0
aa(lp220
g10
(S'\x07\xd8\x0b\r'
tRp221
aF6
aF6
aF6
aF6
aI7800
aa(lp222
g10
(S'\x07\xd8\x0b\x0e'
tRp223
aF6
aF6
aF6
aF6
aI0
aa(lp224
g10
(S'\x07\xd8\x0b\x11'
tRp225
aF6
aF6
aF6
aF6
aI0
aa(lp226
g10
(S'\x07\xd8\x0b\x12'
tRp227
aF6
aF6
aF6
aF6
aI0
aa(lp228
g10
(S'\x07\xd8\x0b\x13'
tRp229
aF6
aF6
aF6
aF6
aI0
aa(lp230
g10
(S'\x07\xd8\x0b\x14'
tRp231
aF6
aF6
aF6
aF6
aI0
aa(lp232
g10
(S'\x07\xd8\x0b\x15'
tRp233
aF6
aF6
aF6
aF6
aI0
aa(lp234
g10
(S'\x07\xd8\x0b\x18'
tRp235
aF6
aF6
aF6
aF6
aI0
aa(lp236
g10
(S'\x07\xd8\x0b\x19'
tRp237
aF6
aF6
aF6
aF6
aI0
aa(lp238
g10
(S'\x07\xd8\x0b\x1a'
tRp239
aF6
aF6
aF6
aF6
aI0
aa(lp240
g10
(S'\x07\xd8\x0b\x1c'
tRp241
aF5.5
aF6
aF5.5
aF6
aI2000
aa(lp242
g10
(S'\x07\xd8\x0c\x01'
tRp243
aF5
aF5
aF5
aF5
aI2400
aa(lp244
g10
(S'\x07\xd8\x0c\x02'
tRp245
aF5
aF5
aF5
aF5
aI0
aa(lp246
g10
(S'\x07\xd8\x0c\x03'
tRp247
aF5
aF5
aF5
aF5
aI0
aa(lp248
g10
(S'\x07\xd8\x0c\x04'
tRp249
aF5
aF5
aF5
aF5
aI0
aa(lp250
g10
(S'\x07\xd8\x0c\x05'
tRp251
aF5
aF5
aF5
aF5
aI0
aa(lp252
g10
(S'\x07\xd8\x0c\x08'
tRp253
aF5
aF5
aF5
aF5
aI0
aa(lp254
g10
(S'\x07\xd8\x0c\t'
tRp255
aF5
aF5
aF5
aF5
aI0
aa(lp256
g10
(S'\x07\xd8\x0c\n'
tRp257
aF4.6500000000000004
aF4.6500000000000004
aF4.6500000000000004
aF4.6500000000000004
aI18600
aa(lp258
g10
(S'\x07\xd8\x0c\x0b'
tRp259
aF4.6500000000000004
aF4.6500000000000004
aF4.6500000000000004
aF4.6500000000000004
aI0
aa(lp260
g10
(S'\x07\xd8\x0c\x0c'
tRp261
aF4.6500000000000004
aF4.6500000000000004
aF4.6500000000000004
aF4.6500000000000004
aI0
aa(lp262
g10
(S'\x07\xd8\x0c\x0f'
tRp263
aF4.6500000000000004
aF4.6500000000000004
aF4.6500000000000004
aF4.6500000000000004
aI0
aa(lp264
g10
(S'\x07\xd8\x0c\x10'
tRp265
aF4.6500000000000004
aF4.6500000000000004
aF4.6500000000000004
aF4.6500000000000004
aI0
aa(lp266
g10
(S'\x07\xd8\x0c\x11'
tRp267
aF4.6500000000000004
aF4.6500000000000004
aF4.6500000000000004
aF4.6500000000000004
aI0
aa(lp268
g10
(S'\x07\xd8\x0c\x12'
tRp269
aF4.6500000000000004
aF4.6500000000000004
aF4.6500000000000004
aF4.6500000000000004
aI0
aa(lp270
g10
(S'\x07\xd8\x0c\x13'
tRp271
aF4.6500000000000004
aF4.6500000000000004
aF4.6500000000000004
aF4.6500000000000004
aI0
aa(lp272
g10
(S'\x07\xd8\x0c\x16'
tRp273
aF4.6500000000000004
aF4.6500000000000004
aF4.6500000000000004
aF4.6500000000000004
aI0
aa(lp274
g10
(S'\x07\xd8\x0c\x17'
tRp275
aF4.6500000000000004
aF4.6500000000000004
aF4.6500000000000004
aF4.6500000000000004
aI0
aa(lp276
g10
(S'\x07\xd8\x0c\x18'
tRp277
aF4.6500000000000004
aF4.6500000000000004
aF4.6500000000000004
aF4.6500000000000004
aI0
aa(lp278
g10
(S'\x07\xd8\x0c\x1a'
tRp279
aF4.6500000000000004
aF4.6500000000000004
aF4.6500000000000004
aF4.6500000000000004
aI0
aa(lp280
g10
(S'\x07\xd8\x0c\x1d'
tRp281
aF4.6500000000000004
aF4.6500000000000004
aF4.6500000000000004
aF4.6500000000000004
aI0
aa(lp282
g10
(S'\x07\xd8\x0c\x1e'
tRp283
aF5.5
aF5.5
aF5.5
aF5.5
aI50300
aa(lp284
g10
(S'\x07\xd8\x0c\x1f'
tRp285
aF5
aF6
aF5
aF6
aI7600
aa(lp286
g10
(S'\x07\xd9\x01\x02'
tRp287
aF6
aF6
aF6
aF6
aI0
aa(lp288
g10
(S'\x07\xd9\x01\x05'
tRp289
aF6
aF6
aF6
aF6
aI0
aa(lp290
g10
(S'\x07\xd9\x01\x06'
tRp291
aF6
aF6
aF6
aF6
aI2200
aa(lp292
g10
(S'\x07\xd9\x01\x07'
tRp293
aF6
aF6
aF6
aF6
aI400
aa(lp294
g10
(S'\x07\xd9\x01\x08'
tRp295
aF6
aF6
aF6
aF6
aI0
aa(lp296
g10
(S'\x07\xd9\x01\t'
tRp297
aF6
aF6
aF6
aF6
aI0
aa(lp298
g10
(S'\x07\xd9\x01\x0c'
tRp299
aF6
aF6
aF6
aF6
aI400
aa(lp300
g10
(S'\x07\xd9\x01\r'
tRp301
aF6
aF6
aF6
aF6
aI0
aa(lp302
g10
(S'\x07\xd9\x01\x0e'
tRp303
aF6
aF6
aF6
aF6
aI0
aa(lp304
g10
(S'\x07\xd9\x01\x0f'
tRp305
aF6
aF6
aF6
aF6
aI0
aa(lp306
g10
(S'\x07\xd9\x01\x10'
tRp307
aF6
aF6
aF6
aF6
aI0
aa(lp308
g10
(S'\x07\xd9\x01\x14'
tRp309
aF6
aF6
aF6
aF6
aI0
aa(lp310
g10
(S'\x07\xd9\x01\x15'
tRp311
aF6
aF6
aF6
aF6
aI0
aa(lp312
g10
(S'\x07\xd9\x01\x16'
tRp313
aF6
aF6
aF6
aF6
aI0
aa(lp314
g10
(S'\x07\xd9\x01\x17'
tRp315
aF6
aF6
aF6
aF6
aI0
aa(lp316
g10
(S'\x07\xd9\x01\x1a'
tRp317
aF6
aF6
aF6
aF6
aI0
aa(lp318
g10
(S'\x07\xd9\x01\x1b'
tRp319
aF6
aF6
aF6
aF6
aI0
aa(lp320
g10
(S'\x07\xd9\x01\x1c'
tRp321
aF6
aF6
aF6
aF6
aI0
aa(lp322
g10
(S'\x07\xd9\x01\x1d'
tRp323
aF6
aF6
aF6
aF6
aI0
aa(lp324
g10
(S'\x07\xd9\x01\x1e'
tRp325
aF6
aF6
aF6
aF6
aI0
aa(lp326
g10
(S'\x07\xd9\x02\x02'
tRp327
aF6
aF6
aF6
aF6
aI0
aa(lp328
g10
(S'\x07\xd9\x02\x03'
tRp329
aF6
aF6
aF6
aF6
aI0
aa(lp330
g10
(S'\x07\xd9\x02\x04'
tRp331
aF5.5
aF7
aF5.5
aF6
aI2500
aa(lp332
g10
(S'\x07\xd9\x02\x05'
tRp333
aF6
aF6
aF6
aF6
aI0
aa(lp334
g10
(S'\x07\xd9\x02\x06'
tRp335
aF6
aF6
aF6
aF6
aI0
aa(lp336
g10
(S'\x07\xd9\x02\t'
tRp337
aF6
aF6
aF6
aF6
aI0
aa(lp338
g10
(S'\x07\xd9\x02\n'
tRp339
aF6
aF6
aF6
aF6
aI0
aa(lp340
g10
(S'\x07\xd9\x02\x0b'
tRp341
aF8
aF8
aF8
aF8
aI1000
aa(lp342
g10
(S'\x07\xd9\x02\x0c'
tRp343
aF8
aF8
aF8
aF8
aI0
aa(lp344
g10
(S'\x07\xd9\x02\r'
tRp345
aF8
aF8
aF8
aF8
aI0
aa(lp346
g10
(S'\x07\xd9\x02\x11'
tRp347
aF8
aF8
aF8
aF8
aI0
aa(lp348
g10
(S'\x07\xd9\x02\x12'
tRp349
aF5.0999999999999996
aF5.0999999999999996
aF5.0999999999999996
aF5.0999999999999996
aI500
aa(lp350
g10
(S'\x07\xd9\x02\x13'
tRp351
aF5.0999999999999996
aF5.0999999999999996
aF5.0999999999999996
aF5.0999999999999996
aI0
aa(lp352
g10
(S'\x07\xd9\x02\x14'
tRp353
aF5.0999999999999996
aF5.0999999999999996
aF5.0999999999999996
aF5.0999999999999996
aI0
aa(lp354
g10
(S'\x07\xd9\x02\x17'
tRp355
aF5.0999999999999996
aF5.0999999999999996
aF5.0999999999999996
aF5.0999999999999996
aI0
aa(lp356
g10
(S'\x07\xd9\x02\x18'
tRp357
aF5
aF5
aF5
aF5
aI400
aa(lp358
g10
(S'\x07\xd9\x02\x19'
tRp359
aF5
aF5
aF5
aF5
aI0
aa(lp360
g10
(S'\x07\xd9\x02\x1a'
tRp361
aF5
aF5
aF5
aF5
aI0
aa(lp362
g10
(S'\x07\xd9\x02\x1b'
tRp363
aF5
aF5
aF5
aF5
aI0
aa(lp364
g10
(S'\x07\xd9\x03\x02'
tRp365
aF5
aF5
aF5
aF5
aI400
aa(lp366
g10
(S'\x07\xd9\x03\x03'
tRp367
aF5
aF5
aF5
aF5
aI0
aa(lp368
g10
(S'\x07\xd9\x03\x04'
tRp369
aF4
aF4.5
aF4
aF4.5
aI2100
aa(lp370
g10
(S'\x07\xd9\x03\x05'
tRp371
aF4.5
aF4.5
aF4.5
aF4.5
aI0
aa(lp372
g10
(S'\x07\xd9\x03\x06'
tRp373
aF4.5
aF4.5
aF4.5
aF4.5
aI0
aa(lp374
g10
(S'\x07\xd9\x03\t'
tRp375
aF4.0999999999999996
aF4.0999999999999996
aF4.0999999999999996
aF4.0999999999999996
aI10500
aa(lp376
g10
(S'\x07\xd9\x03\n'
tRp377
aF2.7000000000000002
aF3.75
aF1.5600000000000001
aF3.75
aI16200
aa(lp378
g10
(S'\x07\xd9\x03\x0b'
tRp379
aF3.75
aF3.75
aF3.75
aF3.75
aI0
aa(lp380
g10
(S'\x07\xd9\x03\x0c'
tRp381
aF3.75
aF3.75
aF3.75
aF3.75
aI0
aa(lp382
g10
(S'\x07\xd9\x03\r'
tRp383
aF3.5
aF3.75
aF3.5
aF3.75
aI1000
aa(lp384
g10
(S'\x07\xd9\x03\x10'
tRp385
aF3.75
aF3.75
aF3.75
aF3.75
aI0
aa(lp386
g10
(S'\x07\xd9\x03\x11'
tRp387
aF3.75
aF3.75
aF3.75
aF3.75
aI0
aa(lp388
g10
(S'\x07\xd9\x03\x12'
tRp389
aF4.5
aF4.5
aF4.5
aF4.5
aI1000
aa(lp390
g10
(S'\x07\xd9\x03\x13'
tRp391
aF4.5
aF4.5
aF4.5
aF4.5
aI0
aa(lp392
g10
(S'\x07\xd9\x03\x14'
tRp393
aF4.5
aF4.5
aF4.5
aF4.5
aI0
aa(lp394
g10
(S'\x07\xd9\x03\x17'
tRp395
aF3.9500000000000002
aF3.9500000000000002
aF3.9500000000000002
aF3.9500000000000002
aI100
aa(lp396
g10
(S'\x07\xd9\x03\x18'
tRp397
aF3.9500000000000002
aF3.9500000000000002
aF3.9500000000000002
aF3.9500000000000002
aI0
aa(lp398
g10
(S'\x07\xd9\x03\x19'
tRp399
aF3.9500000000000002
aF3.9500000000000002
aF3.9500000000000002
aF3.9500000000000002
aI0
aa(lp400
g10
(S'\x07\xd9\x03\x1a'
tRp401
aF4
aF4
aF4
aF4
aI500
aa(lp402
g10
(S'\x07\xd9\x03\x1b'
tRp403
aF4
aF4
aF4
aF4
aI0
aa(lp404
g10
(S'\x07\xd9\x03\x1e'
tRp405
aF4
aF4
aF4
aF4
aI0
aa(lp406
g10
(S'\x07\xd9\x03\x1f'
tRp407
aF3.7999999999999998
aF3.7999999999999998
aF3.5
aF3.6499999999999999
aI6800
aa(lp408
g10
(S'\x07\xd9\x04\x01'
tRp409
aF3.6499999999999999
aF3.6499999999999999
aF3.6499999999999999
aF3.6499999999999999
aI0
aa(lp410
g10
(S'\x07\xd9\x04\x02'
tRp411
aF3.6499999999999999
aF3.6499999999999999
aF3.6499999999999999
aF3.6499999999999999
aI0
aa(lp412
g10
(S'\x07\xd9\x04\x03'
tRp413
aF4.0999999999999996
aF4.1100000000000003
aF4.0999999999999996
aF4.1100000000000003
aI9000
aa(lp414
g10
(S'\x07\xd9\x04\x06'
tRp415
aF4.1100000000000003
aF4.1100000000000003
aF4.1100000000000003
aF4.1100000000000003
aI0
aa(lp416
g10
(S'\x07\xd9\x04\x07'
tRp417
aF4.1100000000000003
aF4.1100000000000003
aF4.1100000000000003
aF4.1100000000000003
aI0
aa(lp418
g10
(S'\x07\xd9\x04\x08'
tRp419
aF4.1100000000000003
aF4.1100000000000003
aF4.1100000000000003
aF4.1100000000000003
aI0
aa(lp420
g10
(S'\x07\xd9\x04\t'
tRp421
aF4.0999999999999996
aF4.0999999999999996
aF4
aF4
aI7800
aa(lp422
g10
(S'\x07\xd9\x04\r'
tRp423
aF4
aF4
aF4
aF4
aI0
aa(lp424
g10
(S'\x07\xd9\x04\x0e'
tRp425
aF4
aF4
aF4
aF4
aI0
aa(lp426
g10
(S'\x07\xd9\x04\x0f'
tRp427
aF4
aF4
aF4
aF4
aI0
aa(lp428
g10
(S'\x07\xd9\x04\x10'
tRp429
aF4.5
aF4.5
aF4.5
aF4.5
aI500
aa(lp430
g10
(S'\x07\xd9\x04\x11'
tRp431
aF4.5
aF4.5
aF4.5
aF4.5
aI0
aa(lp432
g10
(S'\x07\xd9\x04\x14'
tRp433
aF4.5
aF4.5
aF4.5
aF4.5
aI0
aa(lp434
g10
(S'\x07\xd9\x04\x15'
tRp435
aF4.5
aF4.5
aF4.5
aF4.5
aI0
aa(lp436
g10
(S'\x07\xd9\x04\x16'
tRp437
aF4.5
aF4.5
aF4.5
aF4.5
aI0
aa(lp438
g10
(S'\x07\xd9\x04\x17'
tRp439
aF4.5
aF4.5
aF4.5
aF4.5
aI0
aa(lp440
g10
(S'\x07\xd9\x04\x18'
tRp441
aF4.5
aF4.5
aF4.5
aF4.5
aI0
aa(lp442
g10
(S'\x07\xd9\x04\x1b'
tRp443
aF4.5
aF4.5
aF4.25
aF4.25
aI800
aa(lp444
g10
(S'\x07\xd9\x04\x1c'
tRp445
aF4.25
aF4.25
aF4.25
aF4.25
aI0
aa(lp446
g10
(S'\x07\xd9\x04\x1d'
tRp447
aF4.25
aF4.25
aF4.25
aF4.25
aI0
aa(lp448
g10
(S'\x07\xd9\x04\x1e'
tRp449
aF4.25
aF4.25
aF4.25
aF4.25
aI0
aa(lp450
g10
(S'\x07\xd9\x05\x01'
tRp451
aF4.25
aF4.25
aF4.25
aF4.25
aI0
aa(lp452
g10
(S'\x07\xd9\x05\x04'
tRp453
aF4.25
aF4.25
aF4.25
aF4.25
aI0
aa(lp454
g10
(S'\x07\xd9\x05\x05'
tRp455
aF4.25
aF4.25
aF4.25
aF4.25
aI0
aa(lp456
g10
(S'\x07\xd9\x05\x06'
tRp457
aF4.25
aF4.25
aF4.25
aF4.25
aI0
aa(lp458
g10
(S'\x07\xd9\x05\x07'
tRp459
aF4.25
aF4.25
aF4.25
aF4.25
aI0
aa(lp460
g10
(S'\x07\xd9\x05\x08'
tRp461
aF4.9900000000000002
aF5
aF4.9900000000000002
aF5
aI5800
aa(lp462
g10
(S'\x07\xd9\x05\x0b'
tRp463
aF4.9900000000000002
aF4.9900000000000002
aF4.9900000000000002
aF4.9900000000000002
aI2000
aa(lp464
g10
(S'\x07\xd9\x05\x0c'
tRp465
aF4.9900000000000002
aF4.9900000000000002
aF4.9900000000000002
aF4.9900000000000002
aI0
aa(lp466
g10
(S'\x07\xd9\x05\r'
tRp467
aF4.9900000000000002
aF4.9900000000000002
aF4.9900000000000002
aF4.9900000000000002
aI0
aa(lp468
g10
(S'\x07\xd9\x05\x0e'
tRp469
aF5
aF5
aF5
aF5
aI2000
aa(lp470
g10
(S'\x07\xd9\x05\x0f'
tRp471
aF4.25
aF4.25
aF4.25
aF4.25
aI800
aa(lp472
g10
(S'\x07\xd9\x05\x12'
tRp473
aF4.25
aF4.25
aF4.25
aF4.25
aI0
aa(lp474
g10
(S'\x07\xd9\x05\x13'
tRp475
aF4.25
aF4.25
aF4.25
aF4.25
aI0
aa(lp476
g10
(S'\x07\xd9\x05\x14'
tRp477
aF4.25
aF4.25
aF4.25
aF4.25
aI0
aa(lp478
g10
(S'\x07\xd9\x05\x15'
tRp479
aF4.25
aF4.25
aF4.25
aF4.25
aI0
aa(lp480
g10
(S'\x07\xd9\x05\x16'
tRp481
aF4.25
aF4.25
aF4.25
aF4.25
aI0
aa(lp482
g10
(S'\x07\xd9\x05\x1a'
tRp483
aF4.25
aF4.25
aF4.25
aF4.25
aI0
aa(lp484
g10
(S'\x07\xd9\x05\x1b'
tRp485
aF4.25
aF4.25
aF4.25
aF4.25
aI0
aa(lp486
g10
(S'\x07\xd9\x05\x1c'
tRp487
aF4.25
aF4.25
aF4.25
aF4.25
aI0
aa(lp488
g10
(S'\x07\xd9\x05\x1d'
tRp489
aF4.25
aF4.25
aF4.25
aF4.25
aI0
aa(lp490
g10
(S'\x07\xd9\x06\x01'
tRp491
aF4.25
aF4.25
aF4.25
aF4.25
aI0
aa(lp492
g10
(S'\x07\xd9\x06\x02'
tRp493
aF4.25
aF4.25
aF4.25
aF4.25
aI0
aa(lp494
g10
(S'\x07\xd9\x06\x03'
tRp495
aF4.25
aF4.25
aF4.25
aF4.25
aI0
aa(lp496
g10
(S'\x07\xd9\x06\x04'
tRp497
aF4.25
aF4.25
aF4.25
aF4.25
aI0
aa(lp498
g10
(S'\x07\xd9\x06\x05'
tRp499
aF4.25
aF4.25
aF4.25
aF4.25
aI0
aa(lp500
g10
(S'\x07\xd9\x06\x08'
tRp501
aF4.25
aF4.25
aF4.25
aF4.25
aI0
aa(lp502
g10
(S'\x07\xd9\x06\t'
tRp503
aF4.25
aF4.25
aF4.25
aF4.25
aI10000
aa(lp504
g10
(S'\x07\xd9\x06\n'
tRp505
aF4.2999999999999998
aF4.5
aF4.2999999999999998
aF4.5
aI5400
aa(lp506
g10
(S'\x07\xd9\x06\x0b'
tRp507
aF4.5
aF4.5
aF4.5
aF4.5
aI0
aa(lp508
g10
(S'\x07\xd9\x06\x0c'
tRp509
aF4.5
aF4.5
aF4.5
aF4.5
aI0
aa(lp510
g10
(S'\x07\xd9\x06\x0f'
tRp511
aF4.5
aF4.5
aF4.5
aF4.5
aI0
aa(lp512
g10
(S'\x07\xd9\x06\x10'
tRp513
aF4
aF4
aF4
aF4
aI1100
aa(lp514
g10
(S'\x07\xd9\x06\x11'
tRp515
aF4
aF4
aF4
aF4
aI10800
aa(lp516
g10
(S'\x07\xd9\x06\x12'
tRp517
aF4
aF4
aF4
aF4
aI0
aa(lp518
g10
(S'\x07\xd9\x06\x13'
tRp519
aF4
aF4
aF4
aF4
aI0
aa(lp520
g10
(S'\x07\xd9\x06\x16'
tRp521
aF4
aF4
aF4
aF4
aI0
aa(lp522
g10
(S'\x07\xd9\x06\x17'
tRp523
aF4
aF4
aF4
aF4
aI0
aa(lp524
g10
(S'\x07\xd9\x06\x18'
tRp525
aF4
aF4
aF4
aF4
aI0
aa(lp526
g10
(S'\x07\xd9\x06\x19'
tRp527
aF4
aF4
aF4
aF4
aI0
aa(lp528
g10
(S'\x07\xd9\x06\x1a'
tRp529
aF4
aF4
aF4
aF4
aI0
aa(lp530
g10
(S'\x07\xd9\x06\x1d'
tRp531
aF4
aF4
aF4
aF4
aI0
aa(lp532
g10
(S'\x07\xd9\x06\x1e'
tRp533
aF4
aF4
aF4
aF4
aI2800
aa(lp534
g10
(S'\x07\xd9\x07\x01'
tRp535
aF4
aF4
aF4
aF4
aI0
aa(lp536
g10
(S'\x07\xd9\x07\x02'
tRp537
aF4
aF4
aF4
aF4
aI0
aa(lp538
g10
(S'\x07\xd9\x07\x06'
tRp539
aF4
aF4
aF4
aF4
aI0
aa(lp540
g10
(S'\x07\xd9\x07\x07'
tRp541
aF4
aF4
aF4
aF4
aI1000
aa(lp542
g10
(S'\x07\xd9\x07\x08'
tRp543
aF4
aF4
aF4
aF4
aI500
aa(lp544
g10
(S'\x07\xd9\x07\t'
tRp545
aF4
aF4
aF4
aF4
aI0
aa(lp546
g10
(S'\x07\xd9\x07\n'
tRp547
aF4
aF4
aF4
aF4
aI0
aa(lp548
g10
(S'\x07\xd9\x07\r'
tRp549
aF4
aF4
aF4
aF4
aI0
aa(lp550
g10
(S'\x07\xd9\x07\x0e'
tRp551
aF4
aF4
aF4
aF4
aI3700
aa(lp552
g10
(S'\x07\xd9\x07\x0f'
tRp553
aF4
aF4
aF4
aF4
aI2700
aa(lp554
g10
(S'\x07\xd9\x07\x10'
tRp555
aF4
aF4
aF4
aF4
aI0
aa(lp556
g10
(S'\x07\xd9\x07\x11'
tRp557
aF4
aF4
aF4
aF4
aI0
aa(lp558
g10
(S'\x07\xd9\x07\x14'
tRp559
aF4
aF4
aF4
aF4
aI0
aa(lp560
g10
(S'\x07\xd9\x07\x15'
tRp561
aF4
aF4
aF4
aF4
aI0
aa(lp562
g10
(S'\x07\xd9\x07\x16'
tRp563
aF4
aF4
aF4
aF4
aI500
aa(lp564
g10
(S'\x07\xd9\x07\x17'
tRp565
aF4
aF4
aF4
aF4
aI0
aa(lp566
g10
(S'\x07\xd9\x07\x18'
tRp567
aF4
aF4
aF4
aF4
aI0
aa(lp568
g10
(S'\x07\xd9\x07\x1b'
tRp569
aF4
aF4
aF4
aF4
aI0
aa(lp570
g10
(S'\x07\xd9\x07\x1c'
tRp571
aF4
aF4
aF4
aF4
aI0
aa(lp572
g10
(S'\x07\xd9\x07\x1d'
tRp573
aF4
aF4
aF4
aF4
aI0
aa(lp574
g10
(S'\x07\xd9\x07\x1e'
tRp575
aF4.9900000000000002
aF4.9900000000000002
aF4.9900000000000002
aF4.9900000000000002
aI1000
aa(lp576
g10
(S'\x07\xd9\x07\x1f'
tRp577
aF4.5
aF4.5
aF4.5
aF4.5
aI1000
aa(lp578
g10
(S'\x07\xd9\x08\x03'
tRp579
aF4.5
aF4.5
aF4.5
aF4.5
aI0
aa(lp580
g10
(S'\x07\xd9\x08\x04'
tRp581
aF4.5
aF4.5
aF4.5
aF4.5
aI0
aa(lp582
g10
(S'\x07\xd9\x08\x05'
tRp583
aF4.5
aF4.5
aF4.5
aF4.5
aI0
aa(lp584
g10
(S'\x07\xd9\x08\x06'
tRp585
aF4.5
aF4.5
aF4.5
aF4.5
aI0
aa(lp586
g10
(S'\x07\xd9\x08\x07'
tRp587
aF4.5
aF4.5
aF4.5
aF4.5
aI0
aa(lp588
g10
(S'\x07\xd9\x08\n'
tRp589
aF5
aF5
aF5
aF5
aI2000
aa(lp590
g10
(S'\x07\xd9\x08\x0b'
tRp591
aF5
aF5
aF5
aF5
aI1000
aa(lp592
g10
(S'\x07\xd9\x08\x0c'
tRp593
aF5
aF5.75
aF5
aF5.75
aI5500
aa(lp594
g10
(S'\x07\xd9\x08\r'
tRp595
aF5.75
aF5.75
aF5.75
aF5.75
aI0
aa(lp596
g10
(S'\x07\xd9\x08\x0e'
tRp597
aF5.75
aF5.75
aF5.75
aF5.75
aI1200
aa(lp598
g10
(S'\x07\xd9\x08\x11'
tRp599
aF5.75
aF5.75
aF5.75
aF5.75
aI0
aa(lp600
g10
(S'\x07\xd9\x08\x12'
tRp601
aF5.75
aF5.75
aF5.75
aF5.75
aI0
aa(lp602
g10
(S'\x07\xd9\x08\x13'
tRp603
aF5.75
aF5.75
aF5.75
aF5.75
aI0
aa(lp604
g10
(S'\x07\xd9\x08\x14'
tRp605
aF5.75
aF5.75
aF5.75
aF5.75
aI0
aa(lp606
g10
(S'\x07\xd9\x08\x15'
tRp607
aF5.75
aF5.75
aF5.75
aF5.75
aI0
aa(lp608
g10
(S'\x07\xd9\x08\x18'
tRp609
aF5.75
aF5.75
aF5.75
aF5.75
aI0
aa(lp610
g10
(S'\x07\xd9\x08\x19'
tRp611
aF5.75
aF5.75
aF5.75
aF5.75
aI5000
aa(lp612
g10
(S'\x07\xd9\x08\x1a'
tRp613
aF5.75
aF5.75
aF5.75
aF5.75
aI0
aa(lp614
g10
(S'\x07\xd9\x08\x1b'
tRp615
aF5.75
aF5.75
aF5.75
aF5.75
aI0
aa(lp616
g10
(S'\x07\xd9\x08\x1c'
tRp617
aF5.75
aF5.75
aF5.75
aF5.75
aI0
aa(lp618
g10
(S'\x07\xd9\x08\x1f'
tRp619
aF5
aF5
aF5
aF5
aI1500
aa(lp620
g10
(S'\x07\xd9\t\x01'
tRp621
aF5
aF5
aF5
aF5
aI2000
aa(lp622
g10
(S'\x07\xd9\t\x02'
tRp623
aF5
aF5
aF5
aF5
aI5000
aa(lp624
g10
(S'\x07\xd9\t\x03'
tRp625
aF5
aF5
aF5
aF5
aI3500
aa(lp626
g10
(S'\x07\xd9\t\x04'
tRp627
aF5
aF5
aF5
aF5
aI500
aa(lp628
g10
(S'\x07\xd9\t\x08'
tRp629
aF5
aF5
aF5
aF5
aI5500
aa(lp630
g10
(S'\x07\xd9\t\t'
tRp631
aF4.9900000000000002
aF5
aF4.9900000000000002
aF5
aI2000
aa(lp632
g10
(S'\x07\xd9\t\n'
tRp633
aF5
aF5
aF5
aF5
aI5000
aa(lp634
g10
(S'\x07\xd9\t\x0b'
tRp635
aF5
aF5
aF5
aF5
aI0
aa(lp636
g10
(S'\x07\xd9\t\x0e'
tRp637
aF5
aF5
aF5
aF5
aI0
aa(lp638
g10
(S'\x07\xd9\t\x0f'
tRp639
aF5
aF5
aF5
aF5
aI0
aa(lp640
g10
(S'\x07\xd9\t\x10'
tRp641
aF5
aF5
aF5
aF5
aI0
aa(lp642
g10
(S'\x07\xd9\t\x11'
tRp643
aF5
aF5
aF5
aF5
aI0
aa(lp644
g10
(S'\x07\xd9\t\x12'
tRp645
aF5
aF5.75
aF5
aF5.7000000000000002
aI766200
aa(lp646
g10
(S'\x07\xd9\t\x15'
tRp647
aF5.7000000000000002
aF6
aF5.6500000000000004
aF5.9000000000000004
aI144000
aa(lp648
g10
(S'\x07\xd9\t\x16'
tRp649
aF6
aF6.2999999999999998
aF5.8499999999999996
aF6.0499999999999998
aI137100
aa(lp650
g10
(S'\x07\xd9\t\x17'
tRp651
aF6.1699999999999999
aF6.1699999999999999
aF6
aF6.0999999999999996
aI104700
aa(lp652
g10
(S'\x07\xd9\t\x18'
tRp653
aF6.2000000000000002
aF6.21
aF5.8899999999999997
aF5.9100000000000001
aI129800
aa(lp654
g10
(S'\x07\xd9\t\x19'
tRp655
aF6
aF6.0899999999999999
aF5.8099999999999996
aF5.9000000000000004
aI34300
aa(lp656
g10
(S'\x07\xd9\t\x1c'
tRp657
aF6.0800000000000001
aF6.1500000000000004
aF5.8499999999999996
aF5.9000000000000004
aI31600
aa(lp658
g10
(S'\x07\xd9\t\x1d'
tRp659
aF5.9000000000000004
aF5.9000000000000004
aF5.7999999999999998
aF5.9000000000000004
aI42800
aa(lp660
g10
(S'\x07\xd9\t\x1e'
tRp661
aF5.9800000000000004
aF5.9800000000000004
aF5.75
aF5.75
aI21100
aa(lp662
g10
(S'\x07\xd9\n\x01'
tRp663
aF5.7699999999999996
aF5.7699999999999996
aF5.4699999999999998
aF5.4699999999999998
aI37500
aa(lp664
g10
(S'\x07\xd9\n\x02'
tRp665
aF5.46
aF5.75
aF5.46
aF5.5
aI39300
aa(lp666
g10
(S'\x07\xd9\n\x05'
tRp667
aF5.6100000000000003
aF5.9000000000000004
aF5.5300000000000002
aF5.5499999999999998
aI43400
aa(lp668
g10
(S'\x07\xd9\n\x06'
tRp669
aF6
aF6
aF5.5999999999999996
aF5.6100000000000003
aI11500
aa(lp670
g10
(S'\x07\xd9\n\x07'
tRp671
aF5.7800000000000002
aF5.7999999999999998
aF5.5999999999999996
aF5.5999999999999996
aI7700
aa(lp672
g10
(S'\x07\xd9\n\x08'
tRp673
aF5.96
aF6.0800000000000001
aF5.71
aF6
aI19300
aa(lp674
g10
(S'\x07\xd9\n\t'
tRp675
aF5.8899999999999997
aF6
aF5.8899999999999997
aF5.9800000000000004
aI13700
aa(lp676
g10
(S'\x07\xd9\n\x0c'
tRp677
aF6
aF6
aF5.8499999999999996
aF5.9500000000000002
aI8400
aa(lp678
g10
(S'\x07\xd9\n\r'
tRp679
aF5.9500000000000002
aF5.9699999999999998
aF5.75
aF5.75
aI24000
aa(lp680
g10
(S'\x07\xd9\n\x0e'
tRp681
aF5.7599999999999998
aF5.8899999999999997
aF5.75
aF5.8300000000000001
aI10800
aa(lp682
g10
(S'\x07\xd9\n\x0f'
tRp683
aF5.75
aF5.79
aF5.75
aF5.79
aI4100
aa(lp684
g10
(S'\x07\xd9\n\x10'
tRp685
aF5.7599999999999998
aF6.0599999999999996
aF5.75
aF5.75
aI61700
aa(lp686
g10
(S'\x07\xd9\n\x13'
tRp687
aF5.8200000000000003
aF5.9500000000000002
aF5.75
aF5.8300000000000001
aI14100
aa(lp688
g10
(S'\x07\xd9\n\x14'
tRp689
aF5.75
aF6.4299999999999997
aF5.75
aF6.1500000000000004
aI58200
aa(lp690
g10
(S'\x07\xd9\n\x15'
tRp691
aF5.9199999999999999
aF6.1500000000000004
aF5.7999999999999998
aF5.8499999999999996
aI9100
aa(lp692
g10
(S'\x07\xd9\n\x16'
tRp693
aF5.7699999999999996
aF5.9199999999999999
aF5.7699999999999996
aF5.9199999999999999
aI1200
aa(lp694
g10
(S'\x07\xd9\n\x17'
tRp695
aF5.75
aF5.7699999999999996
aF5.7000000000000002
aF5.7000000000000002
aI57600
aa(lp696
g10
(S'\x07\xd9\n\x1a'
tRp697
aF5.71
aF5.7599999999999998
aF5.71
aF5.75
aI26800
aa(lp698
g10
(S'\x07\xd9\n\x1b'
tRp699
aF5.9199999999999999
aF5.9199999999999999
aF5.7000000000000002
aF5.71
aI23400
aa(lp700
g10
(S'\x07\xd9\n\x1c'
tRp701
aF5.7000000000000002
aF5.7199999999999998
aF5.6500000000000004
aF5.6600000000000001
aI25600
aa(lp702
g10
(S'\x07\xd9\n\x1d'
tRp703
aF5.79
aF5.79
aF5.6500000000000004
aF5.6500000000000004
aI1100
aa(lp704
g10
(S'\x07\xd9\n\x1e'
tRp705
aF5.5999999999999996
aF5.7400000000000002
aF5.5999999999999996
aF5.7000000000000002
aI21200
aa(lp706
g10
(S'\x07\xd9\x0b\x02'
tRp707
aF5.5999999999999996
aF5.7999999999999998
aF5.5999999999999996
aF5.7800000000000002
aI5400
aa(lp708
g10
(S'\x07\xd9\x0b\x03'
tRp709
aF5.6799999999999997
aF5.8700000000000001
aF5.6399999999999997
aF5.8700000000000001
aI65100
aa(lp710
g10
(S'\x07\xd9\x0b\x04'
tRp711
aF5.9100000000000001
aF5.9100000000000001
aF5.9100000000000001
aF5.9100000000000001
aI600
aa(lp712
g10
(S'\x07\xd9\x0b\x05'
tRp713
aF5.8499999999999996
aF5.8499999999999996
aF5.5999999999999996
aF5.7699999999999996
aI29200
aa(lp714
g10
(S'\x07\xd9\x0b\x06'
tRp715
aF5.5999999999999996
aF5.8600000000000003
aF5.5999999999999996
aF5.8499999999999996
aI15600
aa(lp716
g10
(S'\x07\xd9\x0b\t'
tRp717
aF6
aF6.1299999999999999
aF5.8200000000000003
aF5.9900000000000002
aI23200
aa(lp718
g10
(S'\x07\xd9\x0b\n'
tRp719
aF6.0499999999999998
aF6.0499999999999998
aF5.79
aF5.8499999999999996
aI25900
aa(lp720
g10
(S'\x07\xd9\x0b\x0b'
tRp721
aF6.0899999999999999
aF6.2000000000000002
aF5.8200000000000003
aF6.04
aI39600
aa(lp722
g10
(S'\x07\xd9\x0b\x0c'
tRp723
aF6.1900000000000004
aF6.1900000000000004
aF5.8200000000000003
aF5.9100000000000001
aI17400
aa(lp724
g10
(S'\x07\xd9\x0b\r'
tRp725
aF6.0899999999999999
aF6.0999999999999996
aF5.8499999999999996
aF6.0999999999999996
aI10500
aa(lp726
g10
(S'\x07\xd9\x0b\x10'
tRp727
aF6.1200000000000001
aF6.25
aF6.04
aF6.0700000000000003
aI12900
aa(lp728
g10
(S'\x07\xd9\x0b\x11'
tRp729
aF6
aF6.2000000000000002
aF5.7999999999999998
aF6.1500000000000004
aI8300
aa(lp730
g10
(S'\x07\xd9\x0b\x12'
tRp731
aF6.2699999999999996
aF6.2999999999999998
aF6.1500000000000004
aF6.1500000000000004
aI25800
aa(lp732
g10
(S'\x07\xd9\x0b\x13'
tRp733
aF6.1500000000000004
aF6.3399999999999999
aF5.9000000000000004
aF6
aI38900
aa(lp734
g10
(S'\x07\xd9\x0b\x14'
tRp735
aF6.2699999999999996
aF6.2800000000000002
aF5.8399999999999999
aF5.9400000000000004
aI22000
aa(lp736
g10
(S'\x07\xd9\x0b\x17'
tRp737
aF6
aF6
aF5.9500000000000002
aF6
aI18500
aa(lp738
g10
(S'\x07\xd9\x0b\x18'
tRp739
aF5.9900000000000002
aF6.2300000000000004
aF5.9900000000000002
aF6.2000000000000002
aI15400
aa(lp740
g10
(S'\x07\xd9\x0b\x19'
tRp741
aF6.0199999999999996
aF6.3499999999999996
aF6.0199999999999996
aF6.3499999999999996
aI7000
aa(lp742
g10
(S'\x07\xd9\x0b\x1b'
tRp743
aF6.3499999999999996
aF6.3499999999999996
aF6.3499999999999996
aF6.3499999999999996
aI0
aa(lp744
g10
(S'\x07\xd9\x0b\x1e'
tRp745
aF6.3700000000000001
aF6.3700000000000001
aF5.7300000000000004
aF6.0999999999999996
aI29600
aa(lp746
g10
(S'\x07\xd9\x0c\x01'
tRp747
aF6.0099999999999998
aF6.25
aF6.0099999999999998
aF6.21
aI5000
aa(lp748
g10
(S'\x07\xd9\x0c\x02'
tRp749
aF6.1600000000000001
aF6.3799999999999999
aF6.1600000000000001
aF6.3799999999999999
aI21400
aa(lp750
g10
(S'\x07\xd9\x0c\x03'
tRp751
aF6.3499999999999996
aF6.3499999999999996
aF6.21
aF6.3499999999999996
aI28900
aa(lp752
g10
(S'\x07\xd9\x0c\x04'
tRp753
aF6.3099999999999996
aF6.5
aF6.3099999999999996
aF6.5
aI17500
aa(lp754
g10
(S'\x07\xd9\x0c\x07'
tRp755
aF6.4900000000000002
aF6.5
aF6.2599999999999998
aF6.5
aI9600
aa(lp756
g10
(S'\x07\xd9\x0c\x08'
tRp757
aF6.5
aF6.7000000000000002
aF6.3799999999999999
aF6.7000000000000002
aI40100
aa(lp758
g10
(S'\x07\xd9\x0c\t'
tRp759
aF6.5499999999999998
aF6.6500000000000004
aF6.1600000000000001
aF6.4900000000000002
aI24500
aa(lp760
g10
(S'\x07\xd9\x0c\n'
tRp761
aF6.6500000000000004
aF6.8499999999999996
aF6.6500000000000004
aF6.8499999999999996
aI43900
aa(lp762
g10
(S'\x07\xd9\x0c\x0b'
tRp763
aF6.8899999999999997
aF6.9500000000000002
aF6.7000000000000002
aF6.7300000000000004
aI25700
aa(lp764
g10
(S'\x07\xd9\x0c\x0e'
tRp765
aF7.9000000000000004
aF7.9000000000000004
aF6.8099999999999996
aF7.0999999999999996
aI365200
aa(lp766
g10
(S'\x07\xd9\x0c\x0f'
tRp767
aF7.0999999999999996
aF7.25
aF6.9800000000000004
aF7.1500000000000004
aI280700
aa(lp768
g10
(S'\x07\xd9\x0c\x10'
tRp769
aF7.2000000000000002
aF7.2300000000000004
aF7.0999999999999996
aF7.0999999999999996
aI175000
aa(lp770
g10
(S'\x07\xd9\x0c\x11'
tRp771
aF7.1500000000000004
aF7.1500000000000004
aF7
aF7.0899999999999999
aI65700
aa(lp772
g10
(S'\x07\xd9\x0c\x12'
tRp773
aF7.0499999999999998
aF7.1699999999999999
aF7.0499999999999998
aF7.1699999999999999
aI95600
aa(lp774
g10
(S'\x07\xd9\x0c\x15'
tRp775
aF7.2000000000000002
aF7.2000000000000002
aF7.0999999999999996
aF7.1299999999999999
aI25800
aa(lp776
g10
(S'\x07\xd9\x0c\x16'
tRp777
aF7.1600000000000001
aF7.1799999999999997
aF7.0999999999999996
aF7.1500000000000004
aI24900
aa(lp778
g10
(S'\x07\xd9\x0c\x17'
tRp779
aF7.0999999999999996
aF7.2999999999999998
aF7.0999999999999996
aF7.2999999999999998
aI13400
aa(lp780
g10
(S'\x07\xd9\x0c\x18'
tRp781
aF7.1299999999999999
aF7.2999999999999998
aF7.1299999999999999
aF7.29
aI2700
aa(lp782
g10
(S'\x07\xd9\x0c\x1c'
tRp783
aF7.29
aF7.4400000000000004
aF7.29
aF7.4000000000000004
aI3900
aa(lp784
g10
(S'\x07\xd9\x0c\x1d'
tRp785
aF7.4000000000000004
aF7.4000000000000004
aF7.25
aF7.25
aI8700
aa(lp786
g10
(S'\x07\xd9\x0c\x1e'
tRp787
aF7.25
aF7.25
aF7.2199999999999998
aF7.25
aI12600
aa(lp788
g10
(S'\x07\xd9\x0c\x1f'
tRp789
aF7.3899999999999997
aF7.3899999999999997
aF7.1399999999999997
aF7.1399999999999997
aI9100
aa(lp790
g10
(S'\x07\xda\x01\x04'
tRp791
aF7.1200000000000001
aF7.4000000000000004
aF7.0999999999999996
aF7.4000000000000004
aI77200
aa(lp792
g10
(S'\x07\xda\x01\x05'
tRp793
aF7.2599999999999998
aF7.3799999999999999
aF7.25
aF7.3600000000000003
aI19600
aa(lp794
g10
(S'\x07\xda\x01\x06'
tRp795
aF7.3399999999999999
aF7.3600000000000003
aF7.25
aF7.2999999999999998
aI14200
aa(lp796
g10
(S'\x07\xda\x01\x07'
tRp797
aF7.25
aF7.7599999999999998
aF7.25
aF7.4000000000000004
aI26600
aa(lp798
g10
(S'\x07\xda\x01\x08'
tRp799
aF7.3099999999999996
aF7.7599999999999998
aF7.3099999999999996
aF7.6500000000000004
aI52900
aa(lp800
g10
(S'\x07\xda\x01\x0b'
tRp801
aF7.75
aF8.0600000000000005
aF7.6600000000000001
aF8
aI27300
aa(lp802
g10
(S'\x07\xda\x01\x0c'
tRp803
aF7.9000000000000004
aF7.9000000000000004
aF7.5
aF7.7800000000000002
aI19700
aa(lp804
g10
(S'\x07\xda\x01\r'
tRp805
aF7.6900000000000004
aF7.8799999999999999
aF7.6500000000000004
aF7.75
aI8700
aa(lp806
g10
(S'\x07\xda\x01\x0e'
tRp807
aF7.5
aF7.7999999999999998
aF7.5
aF7.7699999999999996
aI20800
aa(lp808
g10
(S'\x07\xda\x01\x0f'
tRp809
aF7.5199999999999996
aF7.9000000000000004
aF7.5199999999999996
aF7.75
aI7100
aa(lp810
g10
(S'\x07\xda\x01\x13'
tRp811
aF7.7599999999999998
aF7.7599999999999998
aF7.7199999999999998
aF7.75
aI2100
aa(lp812
g10
(S'\x07\xda\x01\x14'
tRp813
aF7.71
aF7.7999999999999998
aF7.6500000000000004
aF7.7300000000000004
aI5000
aa(lp814
g10
(S'\x07\xda\x01\x15'
tRp815
aF7.7000000000000002
aF8.2300000000000004
aF7.6699999999999999
aF8
aI22700
aa(lp816
g10
(S'\x07\xda\x01\x16'
tRp817
aF7.9000000000000004
aF7.96
aF7.6500000000000004
aF7.7199999999999998
aI62100
aa(lp818
g10
(S'\x07\xda\x01\x19'
tRp819
aF7.7699999999999996
aF7.9000000000000004
aF7.6500000000000004
aF7.71
aI33300
aa(lp820
g10
(S'\x07\xda\x01\x1a'
tRp821
aF7.7000000000000002
aF7.75
aF7.7000000000000002
aF7.7000000000000002
aI13900
aa(lp822
g10
(S'\x07\xda\x01\x1b'
tRp823
aF7.6699999999999999
aF7.8899999999999997
aF7.6500000000000004
aF7.8600000000000003
aI3900
aa(lp824
g10
(S'\x07\xda\x01\x1c'
tRp825
aF7.9000000000000004
aF7.9900000000000002
aF7.6500000000000004
aF7.7300000000000004
aI15100
aa(lp826
g10
(S'\x07\xda\x01\x1d'
tRp827
aF7.7300000000000004
aF7.8300000000000001
aF7.6500000000000004
aF7.71
aI53600
aa(lp828
g10
(S'\x07\xda\x02\x01'
tRp829
aF7.8099999999999996
aF7.8700000000000001
aF7.7000000000000002
aF7.7999999999999998
aI16400
aa(lp830
g10
(S'\x07\xda\x02\x02'
tRp831
aF7.7000000000000002
aF7.7999999999999998
aF7.7000000000000002
aF7.75
aI32100
aa(lp832
g10
(S'\x07\xda\x02\x03'
tRp833
aF7.7400000000000002
aF7.7999999999999998
aF7.7000000000000002
aF7.79
aI8300
aa(lp834
g10
(S'\x07\xda\x02\x04'
tRp835
aF7.7999999999999998
aF7.8899999999999997
aF7.6699999999999999
aF7.8700000000000001
aI32400
aa(lp836
g10
(S'\x07\xda\x02\x05'
tRp837
aF7.9000000000000004
aF7.9500000000000002
aF7.71
aF7.8399999999999999
aI8400
aa(lp838
g10
(S'\x07\xda\x02\x08'
tRp839
aF7.8799999999999999
aF7.8899999999999997
aF7.6600000000000001
aF7.8700000000000001
aI3500
aa(lp840
g10
(S'\x07\xda\x02\t'
tRp841
aF7.8899999999999997
aF7.9800000000000004
aF7.6799999999999997
aF7.9199999999999999
aI154000
aa(lp842
g10
(S'\x07\xda\x02\n'
tRp843
aF7.8799999999999999
aF7.8799999999999999
aF7.75
aF7.8399999999999999
aI4500
aa(lp844
g10
(S'\x07\xda\x02\x0b'
tRp845
aF7.8099999999999996
aF7.8099999999999996
aF7.6900000000000004
aF7.7800000000000002
aI65200
aa(lp846
g10
(S'\x07\xda\x02\x0c'
tRp847
aF7.7400000000000002
aF7.8499999999999996
aF7.71
aF7.8200000000000003
aI12000
aa(lp848
g10
(S'\x07\xda\x02\x10'
tRp849
aF7.9699999999999998
aF7.9699999999999998
aF7.75
aF7.7599999999999998
aI9800
aa(lp850
g10
(S'\x07\xda\x02\x11'
tRp851
aF7.75
aF7.8499999999999996
aF7.75
aF7.75
aI4000
aa(lp852
g10
(S'\x07\xda\x02\x12'
tRp853
aF7.9500000000000002
aF7.9500000000000002
aF7.8099999999999996
aF7.8600000000000003
aI5200
aa(lp854
g10
(S'\x07\xda\x02\x13'
tRp855
aF7.8499999999999996
aF7.9900000000000002
aF7.8399999999999999
aF7.9000000000000004
aI10000
aa(lp856
g10
(S'\x07\xda\x02\x16'
tRp857
aF7.9000000000000004
aF7.9000000000000004
aF7.7999999999999998
aF7.8899999999999997
aI22800
aa(lp858
g10
(S'\x07\xda\x02\x17'
tRp859
aF7.8300000000000001
aF7.8700000000000001
aF7.7999999999999998
aF7.8099999999999996
aI2600
aa(lp860
g10
(S'\x07\xda\x02\x18'
tRp861
aF7.7999999999999998
aF8
aF7.75
aF8
aI60000
aa(lp862
g10
(S'\x07\xda\x02\x19'
tRp863
aF8
aF8
aF7.8700000000000001
aF8
aI56300
aa(lp864
g10
(S'\x07\xda\x02\x1a'
tRp865
aF7.9900000000000002
aF8
aF7.8399999999999999
aF7.8399999999999999
aI7200
aa(lp866
g10
(S'\x07\xda\x03\x01'
tRp867
aF7.9000000000000004
aF8.0999999999999996
aF7.8600000000000003
aF8.0500000000000007
aI21200
aa(lp868
g10
(S'\x07\xda\x03\x02'
tRp869
aF8.1099999999999994
aF8.3200000000000003
aF8.0500000000000007
aF8.2899999999999991
aI13600
aa(lp870
g10
(S'\x07\xda\x03\x03'
tRp871
aF8.25
aF8.3000000000000007
aF8.0099999999999998
aF8.3000000000000007
aI12800
aa(lp872
g10
(S'\x07\xda\x03\x04'
tRp873
aF8.3000000000000007
aF8.4800000000000004
aF8.3000000000000007
aF8.4800000000000004
aI11500
aa(lp874
g10
(S'\x07\xda\x03\x05'
tRp875
aF8.6500000000000004
aF8.6500000000000004
aF8.4499999999999993
aF8.4499999999999993
aI33600
aa(lp876
g10
(S'\x07\xda\x03\x08'
tRp877
aF8.4000000000000004
aF8.4000000000000004
aF8.2300000000000004
aF8.2899999999999991
aI10700
aa(lp878
g10
(S'\x07\xda\x03\t'
tRp879
aF8.2899999999999991
aF8.3000000000000007
aF8.2699999999999996
aF8.2799999999999994
aI10500
aa(lp880
g10
(S'\x07\xda\x03\n'
tRp881
aF8.0099999999999998
aF8.3000000000000007
aF8.0099999999999998
aF8.2400000000000002
aI16100
aa(lp882
g10
(S'\x07\xda\x03\x0b'
tRp883
aF8.1500000000000004
aF8.25
aF8.1500000000000004
aF8.1799999999999997
aI21700
aa(lp884
g10
(S'\x07\xda\x03\x0c'
tRp885
aF8.2200000000000006
aF8.25
aF8.2200000000000006
aF8.2300000000000004
aI17000
aa(lp886
g10
(S'\x07\xda\x03\x0f'
tRp887
aF8.25
aF8.25
aF8
aF8.0099999999999998
aI5700
aa(lp888
g10
(S'\x07\xda\x03\x10'
tRp889
aF8
aF8.1500000000000004
aF8
aF8.1500000000000004
aI4400
aa(lp890
g10
(S'\x07\xda\x03\x11'
tRp891
aF8.1300000000000008
aF8.1300000000000008
aF8
aF8
aI14800
aa(lp892
g10
(S'\x07\xda\x03\x12'
tRp893
aF8.0600000000000005
aF8.1500000000000004
aF8.0600000000000005
aF8.0899999999999999
aI6900
aa(lp894
g10
(S'\x07\xda\x03\x13'
tRp895
aF8.1500000000000004
aF8.1500000000000004
aF8.0999999999999996
aF8.1500000000000004
aI6700
aa(lp896
g10
(S'\x07\xda\x03\x16'
tRp897
aF8.0999999999999996
aF8.1500000000000004
aF8.0199999999999996
aF8.0899999999999999
aI83500
aa(lp898
g10
(S'\x07\xda\x03\x17'
tRp899
aF8.0999999999999996
aF8.1500000000000004
aF8.0999999999999996
aF8.1099999999999994
aI17900
aa(lp900
g10
(S'\x07\xda\x03\x18'
tRp901
aF8.2200000000000006
aF8.25
aF8.0999999999999996
aF8.1099999999999994
aI37400
aa(lp902
g10
(S'\x07\xda\x03\x19'
tRp903
aF8.2400000000000002
aF8.25
aF8.1999999999999993
aF8.25
aI9500
aa(lp904
g10
(S'\x07\xda\x03\x1a'
tRp905
aF8.25
aF8.25
aF8.1500000000000004
aF8.25
aI28500
aa(lp906
g10
(S'\x07\xda\x03\x1d'
tRp907
aF8.1300000000000008
aF8.25
aF8.0899999999999999
aF8.1899999999999995
aI16200
aa(lp908
g10
(S'\x07\xda\x03\x1e'
tRp909
aF8.2400000000000002
aF8.25
aF8
aF8
aI20700
aa(lp910
g10
(S'\x07\xda\x03\x1f'
tRp911
aF8.1500000000000004
aF8.2400000000000002
aF8.0299999999999994
aF8.0500000000000007
aI7900
aa(lp912
g10
(S'\x07\xda\x04\x01'
tRp913
aF8.1699999999999999
aF8.3000000000000007
aF8.0999999999999996
aF8.2699999999999996
aI67500
aa(lp914
g10
(S'\x07\xda\x04\x05'
tRp915
aF8.3599999999999994
aF8.4600000000000009
aF8.2100000000000009
aF8.2100000000000009
aI114700
aa(lp916
g10
(S'\x07\xda\x04\x06'
tRp917
aF8.25
aF8.3000000000000007
aF8.2300000000000004
aF8.25
aI62400
aa(lp918
g10
(S'\x07\xda\x04\x07'
tRp919
aF8.3000000000000007
aF8.3399999999999999
aF8.2300000000000004
aF8.25
aI49600
aa(lp920
g10
(S'\x07\xda\x04\x08'
tRp921
aF8.2400000000000002
aF8.3000000000000007
aF8.2100000000000009
aF8.2699999999999996
aI41700
aa(lp922
g10
(S'\x07\xda\x04\t'
tRp923
aF8.25
aF8.3200000000000003
aF8.2300000000000004
aF8.2799999999999994
aI51100
aa(lp924
g10
(S'\x07\xda\x04\x0c'
tRp925
aF8.6400000000000006
aF8.7899999999999991
aF8.5800000000000001
aF8.6899999999999995
aI377600
aa(lp926
g10
(S'\x07\xda\x04\r'
tRp927
aF8.6999999999999993
aF8.8499999999999996
aF8.6999999999999993
aF8.8100000000000005
aI102300
aa(lp928
g10
(S'\x07\xda\x04\x0e'
tRp929
aF8.8900000000000006
aF8.9000000000000004
aF8.7300000000000004
aF8.8699999999999992
aI94100
aa(lp930
g10
(S'\x07\xda\x04\x0f'
tRp931
aF8.9700000000000006
aF9.0999999999999996
aF8.9499999999999993
aF9.0500000000000007
aI82200
aa(lp932
g10
(S'\x07\xda\x04\x10'
tRp933
aF8.9900000000000002
aF9.0500000000000007
aF8.9700000000000006
aF9
aI73700
aa(lp934
g10
(S'\x07\xda\x04\x13'
tRp935
aF9
aF9
aF8.9299999999999997
aF8.9800000000000004
aI54300
aa(lp936
g10
(S'\x07\xda\x04\x14'
tRp937
aF8.9100000000000001
aF9.0399999999999991
aF8.9100000000000001
aF9.0099999999999998
aI38400
aa(lp938
g10
(S'\x07\xda\x04\x15'
tRp939
aF9.0500000000000007
aF9.1500000000000004
aF9
aF9.0399999999999991
aI59900
aa(lp940
g10
(S'\x07\xda\x04\x16'
tRp941
aF9.0500000000000007
aF9.2200000000000006
aF9.0500000000000007
aF9.0500000000000007
aI59300
aa(lp942
g10
(S'\x07\xda\x04\x17'
tRp943
aF9.2300000000000004
aF9.25
aF9.0899999999999999
aF9.1799999999999997
aI23000
aa(lp944
g10
(S'\x07\xda\x04\x1a'
tRp945
aF9.2200000000000006
aF9.3200000000000003
aF8.8100000000000005
aF8.9100000000000001
aI65400
aa(lp946
g10
(S'\x07\xda\x04\x1b'
tRp947
aF9.0999999999999996
aF9.0999999999999996
aF8.9299999999999997
aF8.9600000000000009
aI47900
aa(lp948
g10
(S'\x07\xda\x04\x1c'
tRp949
aF9
aF9.0800000000000001
aF8.8699999999999992
aF9
aI55500
aa(lp950
g10
(S'\x07\xda\x04\x1d'
tRp951
aF9.0199999999999996
aF9.0899999999999999
aF8.9100000000000001
aF9
aI49800
aa(lp952
g10
(S'\x07\xda\x04\x1e'
tRp953
aF9
aF9.0700000000000003
aF8.9299999999999997
aF8.9499999999999993
aI24200
aa(lp954
g10
(S'\x07\xda\x05\x03'
tRp955
aF9.0299999999999994
aF9.0800000000000001
aF8.8499999999999996
aF9
aI39000
aa(lp956
g10
(S'\x07\xda\x05\x04'
tRp957
aF8.9499999999999993
aF9.0500000000000007
aF8.8699999999999992
aF8.9000000000000004
aI38900
aa(lp958
g10
(S'\x07\xda\x05\x05'
tRp959
aF8.8499999999999996
aF8.9700000000000006
aF8.75
aF8.8000000000000007
aI53200
aa(lp960
g10
(S'\x07\xda\x05\x06'
tRp961
aF8.8800000000000008
aF8.9600000000000009
aF8.7200000000000006
aF8.7200000000000006
aI45600
aa(lp962
g10
(S'\x07\xda\x05\x07'
tRp963
aF8.8000000000000007
aF8.8499999999999996
aF8.6500000000000004
aF8.6500000000000004
aI101100
aa(lp964
g10
(S'\x07\xda\x05\n'
tRp965
aF8.9399999999999995
aF8.9399999999999995
aF8.6999999999999993
aF8.9000000000000004
aI44700
aa(lp966
g10
(S'\x07\xda\x05\x0b'
tRp967
aF8.9399999999999995
aF8.9399999999999995
aF8.8000000000000007
aF8.8499999999999996
aI52600
aa(lp968
g10
(S'\x07\xda\x05\x0c'
tRp969
aF8.8000000000000007
aF9.1999999999999993
aF8.8000000000000007
aF9.1400000000000006
aI87500
aa(lp970
g10
(S'\x07\xda\x05\r'
tRp971
aF9.1500000000000004
aF9.1899999999999995
aF8.8599999999999994
aF9.0500000000000007
aI38400
aa(lp972
g10
(S'\x07\xda\x05\x0e'
tRp973
aF8.9199999999999999
aF9.0999999999999996
aF8.8900000000000006
aF8.8900000000000006
aI44900
aa(lp974
g10
(S'\x07\xda\x05\x11'
tRp975
aF8.8499999999999996
aF8.9299999999999997
aF8.7300000000000004
aF8.8499999999999996
aI65600
aa(lp976
g10
(S'\x07\xda\x05\x12'
tRp977
aF8.8399999999999999
aF9.0999999999999996
aF8.7200000000000006
aF8.8000000000000007
aI33700
aa(lp978
g10
(S'\x07\xda\x05\x13'
tRp979
aF8.9600000000000009
aF8.9600000000000009
aF8.6199999999999992
aF8.6899999999999995
aI60400
aa(lp980
g10
(S'\x07\xda\x05\x14'
tRp981
aF8.6799999999999997
aF8.6799999999999997
aF8.0999999999999996
aF8.1699999999999999
aI121300
aa(lp982
g10
(S'\x07\xda\x05\x15'
tRp983
aF8.0999999999999996
aF8.4800000000000004
aF7.9100000000000001
aF8.4100000000000001
aI177400
aa(lp984
g10
(S'\x07\xda\x05\x18'
tRp985
aF8.4399999999999995
aF8.4900000000000002
aF8.0299999999999994
aF8.2200000000000006
aI62000
aa(lp986
g10
(S'\x07\xda\x05\x19'
tRp987
aF8.0399999999999991
aF8.0399999999999991
aF7.71
aF8
aI86800
aa(lp988
g10
(S'\x07\xda\x05\x1a'
tRp989
aF8.0500000000000007
aF8.1999999999999993
aF7.4400000000000004
aF7.4900000000000002
aI215700
aa(lp990
g10
(S'\x07\xda\x05\x1b'
tRp991
aF7.5
aF7.9699999999999998
aF7.4199999999999999
aF7.79
aI61300
aa(lp992
g10
(S'\x07\xda\x05\x1c'
tRp993
aF7.7999999999999998
aF7.9000000000000004
aF7.7000000000000002
aF7.9000000000000004
aI50000
aa(lp994
g10
(S'\x07\xda\x06\x01'
tRp995
aF7.8200000000000003
aF7.8399999999999999
aF7.6500000000000004
aF7.75
aI31100
aa(lp996
g10
(S'\x07\xda\x06\x02'
tRp997
aF7.75
aF7.9199999999999999
aF7.7000000000000002
aF7.9100000000000001
aI69800
aa(lp998
g10
(S'\x07\xda\x06\x03'
tRp999
aF7.9500000000000002
aF7.9500000000000002
aF7.75
aF7.8499999999999996
aI33900
aa(lp1000
g10
(S'\x07\xda\x06\x04'
tRp1001
aF7.7300000000000004
aF7.9500000000000002
aF7.6900000000000004
aF7.8499999999999996
aI51600
aa(lp1002
g10
(S'\x07\xda\x06\x07'
tRp1003
aF7.8099999999999996
aF7.9299999999999997
aF7.7000000000000002
aF7.8700000000000001
aI30300
aa(lp1004
g10
(S'\x07\xda\x06\x08'
tRp1005
aF7.8200000000000003
aF7.8200000000000003
aF7.7000000000000002
aF7.7800000000000002
aI15900
aa(lp1006
g10
(S'\x07\xda\x06\t'
tRp1007
aF7.7000000000000002
aF7.8099999999999996
aF7.7000000000000002
aF7.7999999999999998
aI14500
aa(lp1008
g10
(S'\x07\xda\x06\n'
tRp1009
aF7.8799999999999999
aF7.9400000000000004
aF7.6100000000000003
aF7.8399999999999999
aI38100
aa(lp1010
g10
(S'\x07\xda\x06\x0b'
tRp1011
aF7.75
aF7.9500000000000002
aF7.6100000000000003
aF7.9000000000000004
aI39400
aa(lp1012
g10
(S'\x07\xda\x06\x0e'
tRp1013
aF7.8600000000000003
aF8.1300000000000008
aF7.7999999999999998
aF8.0500000000000007
aI34300
aa(lp1014
g10
(S'\x07\xda\x06\x0f'
tRp1015
aF8.0800000000000001
aF8.1400000000000006
aF7.9299999999999997
aF8.1400000000000006
aI30000
aa(lp1016
g10
(S'\x07\xda\x06\x10'
tRp1017
aF8.0199999999999996
aF8.0999999999999996
aF7.9500000000000002
aF8.0299999999999994
aI11100
aa(lp1018
g10
(S'\x07\xda\x06\x11'
tRp1019
aF7.8300000000000001
aF8.0800000000000001
aF7.7999999999999998
aF8
aI28800
aa(lp1020
g10
(S'\x07\xda\x06\x12'
tRp1021
aF7.9900000000000002
aF8
aF7.75
aF8
aI43600
aa(lp1022
g10
(S'\x07\xda\x06\x15'
tRp1023
aF7.9699999999999998
aF7.9699999999999998
aF7.8499999999999996
aF7.8899999999999997
aI17500
aa(lp1024
g10
(S'\x07\xda\x06\x16'
tRp1025
aF7.8700000000000001
aF7.9100000000000001
aF7.7000000000000002
aF7.7599999999999998
aI69200
aa(lp1026
g10
(S'\x07\xda\x06\x17'
tRp1027
aF7.71
aF8
aF7.6500000000000004
aF7.96
aI89900
aa(lp1028
g10
(S'\x07\xda\x06\x18'
tRp1029
aF7.9900000000000002
aF7.9900000000000002
aF7.7999999999999998
aF7.9299999999999997
aI209900
aa(lp1030
g10
(S'\x07\xda\x06\x19'
tRp1031
aF7.9299999999999997
aF8.2300000000000004
aF7.79
aF8.0700000000000003
aI3299600
aa(lp1032
g10
(S'\x07\xda\x06\x1c'
tRp1033
aF7.9800000000000004
aF8.0299999999999994
aF7.71
aF7.71
aI94200
aa(lp1034
g10
(S'\x07\xda\x06\x1d'
tRp1035
aF7.6299999999999999
aF7.75
aF7.5700000000000003
aF7.5899999999999999
aI87000
aa(lp1036
g10
(S'\x07\xda\x06\x1e'
tRp1037
aF7.5899999999999999
aF7.6900000000000004
aF7.3499999999999996
aF7.3600000000000003
aI67200
aa(lp1038
g10
(S'\x07\xda\x07\x01'
tRp1039
aF7.3200000000000003
aF7.46
aF6.7999999999999998
aF7.4400000000000004
aI112200
aa(lp1040
g10
(S'\x07\xda\x07\x02'
tRp1041
aF7.4900000000000002
aF7.5499999999999998
aF7.29
aF7.4900000000000002
aI53300
aa(lp1042
g10
(S'\x07\xda\x07\x06'
tRp1043
aF7.5800000000000001
aF7.5800000000000001
aF7.4500000000000002
aF7.5300000000000002
aI61200
aa(lp1044
g10
(S'\x07\xda\x07\x07'
tRp1045
aF7.5700000000000003
aF7.7999999999999998
aF7.5499999999999998
aF7.7999999999999998
aI93600
aa(lp1046
g10
(S'\x07\xda\x07\x08'
tRp1047
aF7.8600000000000003
aF7.9299999999999997
aF7.7000000000000002
aF7.8499999999999996
aI108200
aa(lp1048
g10
(S'\x07\xda\x07\t'
tRp1049
aF7.8200000000000003
aF7.9199999999999999
aF7.8200000000000003
aF7.8799999999999999
aI48200
aa(lp1050
g10
(S'\x07\xda\x07\x0c'
tRp1051
aF7.9000000000000004
aF7.9000000000000004
aF7.7000000000000002
aF7.71
aI32200
aa(lp1052
g10
(S'\x07\xda\x07\r'
tRp1053
aF7.79
aF7.8600000000000003
aF7.71
aF7.7999999999999998
aI73700
aa(lp1054
g10
(S'\x07\xda\x07\x0e'
tRp1055
aF7.7999999999999998
aF7.7999999999999998
aF7.6500000000000004
aF7.71
aI23800
aa(lp1056
g10
(S'\x07\xda\x07\x0f'
tRp1057
aF7.75
aF7.7800000000000002
aF7.5199999999999996
aF7.6399999999999997
aI33000
aa(lp1058
g10
(S'\x07\xda\x07\x10'
tRp1059
aF7.5899999999999999
aF7.7300000000000004
aF7.4800000000000004
aF7.4900000000000002
aI77800
aa(lp1060
g10
(S'\x07\xda\x07\x13'
tRp1061
aF7.4900000000000002
aF7.71
aF7.4900000000000002
aF7.5999999999999996
aI41800
aa(lp1062
g10
(S'\x07\xda\x07\x14'
tRp1063
aF7.5300000000000002
aF7.6200000000000001
aF7.3700000000000001
aF7.6100000000000003
aI57300
aa(lp1064
g10
(S'\x07\xda\x07\x15'
tRp1065
aF7.6500000000000004
aF7.6600000000000001
aF7.3700000000000001
aF7.5
aI39300
aa(lp1066
g10
(S'\x07\xda\x07\x16'
tRp1067
aF7.5700000000000003
aF7.6500000000000004
aF7.3899999999999997
aF7.5899999999999999
aI58600
aa(lp1068
g10
(S'\x07\xda\x07\x17'
tRp1069
aF7.5499999999999998
aF7.9500000000000002
aF7.5499999999999998
aF7.9000000000000004
aI82000
aa(lp1070
g10
(S'\x07\xda\x07\x1a'
tRp1071
aF7.9000000000000004
aF8
aF7.7599999999999998
aF7.9699999999999998
aI64000
aa(lp1072
g10
(S'\x07\xda\x07\x1b'
tRp1073
aF8
aF8
aF7.7999999999999998
aF7.9900000000000002
aI38500
aa(lp1074
g10
(S'\x07\xda\x07\x1c'
tRp1075
aF7.9400000000000004
aF7.96
aF7.4100000000000001
aF7.6500000000000004
aI152500
aa(lp1076
g10
(S'\x07\xda\x07\x1d'
tRp1077
aF7.6500000000000004
aF7.6500000000000004
aF7.4000000000000004
aF7.4400000000000004
aI87100
aa(lp1078
g10
(S'\x07\xda\x07\x1e'
tRp1079
aF7.4000000000000004
aF7.4900000000000002
aF7.4000000000000004
aF7.4400000000000004
aI165300
aa(lp1080
g10
(S'\x07\xda\x08\x02'
tRp1081
aF7.4800000000000004
aF7.4900000000000002
aF7.4000000000000004
aF7.4299999999999997
aI44200
aa(lp1082
g10
(S'\x07\xda\x08\x03'
tRp1083
aF7.4299999999999997
aF7.4500000000000002
aF7.3700000000000001
aF7.3899999999999997
aI77900
aa(lp1084
g10
(S'\x07\xda\x08\x04'
tRp1085
aF7.4199999999999999
aF7.46
aF7.3700000000000001
aF7.4199999999999999
aI67100
aa(lp1086
g10
(S'\x07\xda\x08\x05'
tRp1087
aF7.4100000000000001
aF7.9100000000000001
aF7.3899999999999997
aF7.6299999999999999
aI166200
aa(lp1088
g10
(S'\x07\xda\x08\x06'
tRp1089
aF7.54
aF7.6100000000000003
aF7.25
aF7.4400000000000004
aI67300
aa(lp1090
g10
(S'\x07\xda\x08\t'
tRp1091
aF7.4400000000000004
aF7.5199999999999996
aF7.3799999999999999
aF7.4000000000000004
aI41100
aa(lp1092
g10
(S'\x07\xda\x08\n'
tRp1093
aF7.3300000000000001
aF7.4400000000000004
aF7.25
aF7.2599999999999998
aI44200
aa(lp1094
g10
(S'\x07\xda\x08\x0b'
tRp1095
aF7.2000000000000002
aF7.25
aF7.0499999999999998
aF7.0499999999999998
aI86000
aa(lp1096
g10
(S'\x07\xda\x08\x0c'
tRp1097
aF7
aF7.2699999999999996
aF7
aF7.0499999999999998
aI56500
aa(lp1098
g10
(S'\x07\xda\x08\r'
tRp1099
aF7.04
aF7.1299999999999999
aF6.8200000000000003
aF6.8300000000000001
aI40300
aa(lp1100
g10
(S'\x07\xda\x08\x10'
tRp1101
aF6.79
aF6.8399999999999999
aF6.7000000000000002
aF6.79
aI46000
aa(lp1102
g10
(S'\x07\xda\x08\x11'
tRp1103
aF6.8200000000000003
aF7
aF6.7000000000000002
aF7
aI59200
aa(lp1104
g10
(S'\x07\xda\x08\x12'
tRp1105
aF6.9699999999999998
aF7.0800000000000001
aF6.7999999999999998
aF6.7999999999999998
aI40600
aa(lp1106
g10
(S'\x07\xda\x08\x13'
tRp1107
aF6.7699999999999996
aF6.9000000000000004
aF6.3700000000000001
aF6.3700000000000001
aI92300
aa(lp1108
g10
(S'\x07\xda\x08\x14'
tRp1109
aF6.3399999999999999
aF6.4000000000000004
aF6.0499999999999998
aF6.29
aI116800
aa(lp1110
g10
(S'\x07\xda\x08\x17'
tRp1111
aF6.3499999999999996
aF6.4500000000000002
aF6.1500000000000004
aF6.1799999999999997
aI109400
aa(lp1112
g10
(S'\x07\xda\x08\x18'
tRp1113
aF6.1500000000000004
aF6.25
aF6.0300000000000002
aF6.1600000000000001
aI83600
aa(lp1114
g10
(S'\x07\xda\x08\x19'
tRp1115
aF6.1200000000000001
aF6.1200000000000001
aF5.9199999999999999
aF6.0800000000000001
aI65200
aa(lp1116
g10
(S'\x07\xda\x08\x1a'
tRp1117
aF6.0800000000000001
aF6.1100000000000003
aF5.9100000000000001
aF5.9100000000000001
aI22000
aa(lp1118
g10
(S'\x07\xda\x08\x1b'
tRp1119
aF5.9699999999999998
aF6.04
aF5.75
aF5.9900000000000002
aI87100
aa(lp1120
g10
(S'\x07\xda\x08\x1e'
tRp1121
aF5.96
aF5.96
aF5.75
aF5.7599999999999998
aI42800
aa(lp1122
g10
(S'\x07\xda\x08\x1f'
tRp1123
aF5.79
aF5.9500000000000002
aF5.79
aF5.9000000000000004
aI46900
aa(lp1124
g10
(S'\x07\xda\t\x01'
tRp1125
aF5.9800000000000004
aF6.3099999999999996
aF5.9299999999999997
aF6.2999999999999998
aI62900
aa(lp1126
g10
(S'\x07\xda\t\x02'
tRp1127
aF6.3099999999999996
aF6.4500000000000002
aF6.1699999999999999
aF6.4299999999999997
aI86700
aa(lp1128
g10
(S'\x07\xda\t\x03'
tRp1129
aF6.2999999999999998
aF6.4299999999999997
aF6.2300000000000004
aF6.3099999999999996
aI46300
aa(lp1130
g10
(S'\x07\xda\t\x07'
tRp1131
aF6.3099999999999996
aF6.3099999999999996
aF6.1399999999999997
aF6.1600000000000001
aI66900
aa(lp1132
g10
(S'\x07\xda\t\x08'
tRp1133
aF6.21
aF6.3799999999999999
aF6.1699999999999999
aF6.2400000000000002
aI20900
aa(lp1134
g10
(S'\x07\xda\t\t'
tRp1135
aF6.2999999999999998
aF6.2999999999999998
aF6.1399999999999997
aF6.1699999999999999
aI11800
aa(lp1136
g10
(S'\x07\xda\t\n'
tRp1137
aF6.2000000000000002
aF6.2000000000000002
aF6.0499999999999998
aF6.1399999999999997
aI15400
aa(lp1138
g10
(S'\x07\xda\t\r'
tRp1139
aF6.1600000000000001
aF6.4699999999999998
aF6.0300000000000002
aF6.4199999999999999
aI39800
aa(lp1140
g10
(S'\x07\xda\t\x0e'
tRp1141
aF6.4500000000000002
aF6.4500000000000002
aF6.2599999999999998
aF6.3099999999999996
aI28400
aa(lp1142
g10
(S'\x07\xda\t\x0f'
tRp1143
aF6.3099999999999996
aF6.3300000000000001
aF6.1900000000000004
aF6.2699999999999996
aI14300
aa(lp1144
g10
(S'\x07\xda\t\x10'
tRp1145
aF6.25
aF6.3200000000000003
aF6.1200000000000001
aF6.2199999999999998
aI23000
aa(lp1146
g10
(S'\x07\xda\t\x11'
tRp1147
aF6.3099999999999996
aF6.3399999999999999
aF6.1600000000000001
aF6.3200000000000003
aI73300
aa(lp1148
g10
(S'\x07\xda\t\x14'
tRp1149
aF6.2699999999999996
aF6.54
aF6.2199999999999998
aF6.5300000000000002
aI63900
aa(lp1150
g10
(S'\x07\xda\t\x15'
tRp1151
aF6.5300000000000002
aF6.5599999999999996
aF6.4000000000000004
aF6.4500000000000002
aI21600
aa(lp1152
g10
(S'\x07\xda\t\x16'
tRp1153
aF6.4500000000000002
aF6.5
aF6.1500000000000004
aF6.1600000000000001
aI43200
aa(lp1154
g10
(S'\x07\xda\t\x17'
tRp1155
aF6.1299999999999999
aF6.1299999999999999
aF5.8499999999999996
aF5.9400000000000004
aI64500
aa(lp1156
g10
(S'\x07\xda\t\x18'
tRp1157
aF6
aF6.4000000000000004
aF5.96
aF6.4000000000000004
aI63900
aa(lp1158
g10
(S'\x07\xda\t\x1b'
tRp1159
aF6.4000000000000004
aF6.46
aF6.3200000000000003
aF6.3300000000000001
aI21600
aa(lp1160
g10
(S'\x07\xda\t\x1c'
tRp1161
aF6.3700000000000001
aF6.3899999999999997
aF6.2300000000000004
aF6.2800000000000002
aI65700
aa(lp1162
g10
(S'\x07\xda\t\x1d'
tRp1163
aF6.2400000000000002
aF6.2800000000000002
aF6.1500000000000004
aF6.25
aI32100
aa(lp1164
g10
(S'\x07\xda\t\x1e'
tRp1165
aF6.29
aF6.5
aF6.2300000000000004
aF6.4299999999999997
aI29300
aa(lp1166
g10
(S'\x07\xda\n\x01'
tRp1167
aF6.4699999999999998
aF6.4800000000000004
aF6.29
aF6.4500000000000002
aI20600
aa(lp1168
g10
(S'\x07\xda\n\x04'
tRp1169
aF6.4000000000000004
aF6.4000000000000004
aF6.1299999999999999
aF6.1399999999999997
aI31100
aa(lp1170
g10
(S'\x07\xda\n\x05'
tRp1171
aF6.2000000000000002
aF6.3399999999999999
aF6.1500000000000004
aF6.3099999999999996
aI45500
aa(lp1172
g10
(S'\x07\xda\n\x06'
tRp1173
aF6.3200000000000003
aF6.54
aF6.2699999999999996
aF6.4900000000000002
aI29500
aa(lp1174
g10
(S'\x07\xda\n\x07'
tRp1175
aF6.5099999999999998
aF6.5099999999999998
aF6.3499999999999996
aF6.3600000000000003
aI31200
aa(lp1176
g10
(S'\x07\xda\n\x08'
tRp1177
aF6.2599999999999998
aF6.5099999999999998
aF6.2000000000000002
aF6.46
aI23300
aa(lp1178
g10
(S'\x07\xda\n\x0b'
tRp1179
aF6.3899999999999997
aF6.4199999999999999
aF6.29
aF6.3499999999999996
aI16900
aa(lp1180
g10
(S'\x07\xda\n\x0c'
tRp1181
aF6.3099999999999996
aF6.4500000000000002
aF6.2000000000000002
aF6.2199999999999998
aI21400
aa(lp1182
g10
(S'\x07\xda\n\r'
tRp1183
aF6.2300000000000004
aF6.4500000000000002
aF6.2000000000000002
aF6.4000000000000004
aI45400
aa(lp1184
g10
(S'\x07\xda\n\x0e'
tRp1185
aF6.4000000000000004
aF6.4800000000000004
aF6.3099999999999996
aF6.4400000000000004
aI35100
aa(lp1186
g10
(S'\x07\xda\n\x0f'
tRp1187
aF6.5300000000000002
aF6.5300000000000002
aF6.4000000000000004
aF6.46
aI64900
aa(lp1188
g10
(S'\x07\xda\n\x12'
tRp1189
aF6.4400000000000004
aF6.4699999999999998
aF6.1699999999999999
aF6.4100000000000001
aI69900
aa(lp1190
g10
(S'\x07\xda\n\x13'
tRp1191
aF6.3300000000000001
aF6.4100000000000001
aF6.2000000000000002
aF6.25
aI29200
aa(lp1192
g10
(S'\x07\xda\n\x14'
tRp1193
aF6.29
aF6.4000000000000004
aF6.1699999999999999
aF6.3899999999999997
aI36000
aa(lp1194
g10
(S'\x07\xda\n\x15'
tRp1195
aF6.4199999999999999
aF6.4800000000000004
aF6.1299999999999999
aF6.2300000000000004
aI27600
aa(lp1196
g10
(S'\x07\xda\n\x16'
tRp1197
aF6.2599999999999998
aF6.4500000000000002
aF6.1600000000000001
aF6.2000000000000002
aI39200
aa(lp1198
g10
(S'\x07\xda\n\x19'
tRp1199
aF6.2000000000000002
aF6.29
aF6.1600000000000001
aF6.1900000000000004
aI29000
aa(lp1200
g10
(S'\x07\xda\n\x1a'
tRp1201
aF6.1500000000000004
aF6.1900000000000004
aF6
aF6.1200000000000001
aI102100
aa(lp1202
g10
(S'\x07\xda\n\x1b'
tRp1203
aF6.0800000000000001
aF6.0999999999999996
aF6
aF6.0300000000000002
aI37000
aa(lp1204
g10
(S'\x07\xda\n\x1c'
tRp1205
aF6.0599999999999996
aF6.0700000000000003
aF6
aF6.04
aI109800
aa(lp1206
g10
(S'\x07\xda\n\x1d'
tRp1207
aF6.0099999999999998
aF6.0499999999999998
aF5.9800000000000004
aF6.0199999999999996
aI50800
aa(lp1208
g10
(S'\x07\xda\x0b\x01'
tRp1209
aF5.9900000000000002
aF5.9900000000000002
aF5.75
aF5.7800000000000002
aI33900
aa(lp1210
g10
(S'\x07\xda\x0b\x02'
tRp1211
aF5.8200000000000003
aF5.8499999999999996
aF5.6299999999999999
aF5.71
aI73500
aa(lp1212
g10
(S'\x07\xda\x0b\x03'
tRp1213
aF5.75
aF5.8099999999999996
aF5.7400000000000002
aF5.79
aI57000
aa(lp1214
g10
(S'\x07\xda\x0b\x04'
tRp1215
aF5.8700000000000001
aF6.0499999999999998
aF5.8200000000000003
aF6.0300000000000002
aI78800
aa(lp1216
g10
(S'\x07\xda\x0b\x05'
tRp1217
aF6.04
aF6.0999999999999996
aF5.9400000000000004
aF5.96
aI63100
aa(lp1218
g10
(S'\x07\xda\x0b\x08'
tRp1219
aF5.9699999999999998
aF6.1299999999999999
aF5.9500000000000002
aF6.0199999999999996
aI23500
aa(lp1220
g10
(S'\x07\xda\x0b\t'
tRp1221
aF5.9699999999999998
aF6.1100000000000003
aF5.9100000000000001
aF6.0499999999999998
aI68200
aa(lp1222
g10
(S'\x07\xda\x0b\n'
tRp1223
aF6.0700000000000003
aF6.1200000000000001
aF6.0199999999999996
aF6.0999999999999996
aI36100
aa(lp1224
g10
(S'\x07\xda\x0b\x0b'
tRp1225
aF6.04
aF6.0999999999999996
aF5.9800000000000004
aF6.0199999999999996
aI31400
aa(lp1226
g10
(S'\x07\xda\x0b\x0c'
tRp1227
aF6
aF6.0700000000000003
aF5.9900000000000002
aF5.9900000000000002
aI12400
aa(lp1228
g10
(S'\x07\xda\x0b\x0f'
tRp1229
aF6
aF6.0899999999999999
aF5.96
aF5.9900000000000002
aI12700
aa(lp1230
g10
(S'\x07\xda\x0b\x10'
tRp1231
aF5.9299999999999997
aF5.96
aF5.8499999999999996
aF5.9400000000000004
aI65700
aa(lp1232
g10
(S'\x07\xda\x0b\x11'
tRp1233
aF5.96
aF6.0999999999999996
aF5.9500000000000002
aF6.0599999999999996
aI325200
aa(lp1234
g10
(S'\x07\xda\x0b\x12'
tRp1235
aF6.0999999999999996
aF6.1299999999999999
aF6
aF6.0099999999999998
aI67500
aa(lp1236
g10
(S'\x07\xda\x0b\x13'
tRp1237
aF6.0300000000000002
aF6.0300000000000002
aF5.9000000000000004
aF6.0099999999999998
aI44700
aa(lp1238
g10
(S'\x07\xda\x0b\x16'
tRp1239
aF6.0099999999999998
aF6.0199999999999996
aF5.8799999999999999
aF5.9800000000000004
aI47500
aa(lp1240
g10
(S'\x07\xda\x0b\x17'
tRp1241
aF5.9500000000000002
aF5.9500000000000002
aF5.7999999999999998
aF5.8700000000000001
aI32100
aa(lp1242
g10
(S'\x07\xda\x0b\x18'
tRp1243
aF5.9000000000000004
aF6
aF5.8399999999999999
aF5.9900000000000002
aI21100
aa(lp1244
g10
(S'\x07\xda\x0b\x1a'
tRp1245
aF5.9199999999999999
aF6
aF5.9199999999999999
aF5.9699999999999998
aI16200
aa(lp1246
g10
(S'\x07\xda\x0b\x1d'
tRp1247
aF5.9100000000000001
aF6.0099999999999998
aF5.8099999999999996
aF5.9500000000000002
aI43100
aa(lp1248
g10
(S'\x07\xda\x0b\x1e'
tRp1249
aF5.8899999999999997
aF5.9299999999999997
aF5.7999999999999998
aF5.8200000000000003
aI57700
aa(lp1250
g10
(S'\x07\xda\x0c\x01'
tRp1251
aF5.9299999999999997
aF6.0499999999999998
aF5.8899999999999997
aF6.0499999999999998
aI80900
aa(lp1252
g10
(S'\x07\xda\x0c\x02'
tRp1253
aF6.0700000000000003
aF6.0800000000000001
aF5.9299999999999997
aF6.0599999999999996
aI76300
aa(lp1254
g10
(S'\x07\xda\x0c\x03'
tRp1255
aF5.9299999999999997
aF6.0800000000000001
aF5.9299999999999997
aF6.0700000000000003
aI34100
aa(lp1256
g10
(S'\x07\xda\x0c\x06'
tRp1257
aF6.04
aF6.0700000000000003
aF6.0199999999999996
aF6.0499999999999998
aI45300
aa(lp1258
g10
(S'\x07\xda\x0c\x07'
tRp1259
aF6.0899999999999999
aF6.0899999999999999
aF5.9299999999999997
aF5.9500000000000002
aI87400
aa(lp1260
g10
(S'\x07\xda\x0c\x08'
tRp1261
aF5.9699999999999998
aF6.0499999999999998
aF5.9699999999999998
aF5.9800000000000004
aI70900
aa(lp1262
g10
(S'\x07\xda\x0c\t'
tRp1263
aF5.9900000000000002
aF6.0999999999999996
aF5.9800000000000004
aF6.0899999999999999
aI56800
aa(lp1264
g10
(S'\x07\xda\x0c\n'
tRp1265
aF6.0899999999999999
aF6.3499999999999996
aF6.0199999999999996
aF6.3200000000000003
aI34800
aa(lp1266
g10
(S'\x07\xda\x0c\r'
tRp1267
aF6.3200000000000003
aF6.3200000000000003
aF6.0300000000000002
aF6.25
aI22400
aa(lp1268
g10
(S'\x07\xda\x0c\x0e'
tRp1269
aF6.2800000000000002
aF6.3099999999999996
aF6.21
aF6.2999999999999998
aI16600
aa(lp1270
g10
(S'\x07\xda\x0c\x0f'
tRp1271
aF6.2999999999999998
aF6.3600000000000003
aF6.2400000000000002
aF6.2699999999999996
aI20200
aa(lp1272
g10
(S'\x07\xda\x0c\x10'
tRp1273
aF6.2999999999999998
aF6.4500000000000002
aF6.1900000000000004
aF6.4000000000000004
aI47200
aa(lp1274
g10
(S'\x07\xda\x0c\x11'
tRp1275
aF6.4199999999999999
aF6.4199999999999999
aF6.1600000000000001
aF6.3099999999999996
aI99200
aa(lp1276
g10
(S'\x07\xda\x0c\x14'
tRp1277
aF6.3799999999999999
aF6.6100000000000003
aF6.21
aF6.5700000000000003
aI55900
aa(lp1278
g10
(S'\x07\xda\x0c\x15'
tRp1279
aF6.6100000000000003
aF6.8700000000000001
aF6.5
aF6.8700000000000001
aI29200
aa(lp1280
g10
(S'\x07\xda\x0c\x16'
tRp1281
aF6.8499999999999996
aF7.0999999999999996
aF6.8499999999999996
aF7.0700000000000003
aI25000
aa(lp1282
g10
(S'\x07\xda\x0c\x17'
tRp1283
aF7.0700000000000003
aF7.0700000000000003
aF6.9500000000000002
aF7.0099999999999998
aI16000
aa(lp1284
g10
(S'\x07\xda\x0c\x1b'
tRp1285
aF7.0099999999999998
aF7.0599999999999996
aF6.9500000000000002
aF7
aI24400
aa(lp1286
g10
(S'\x07\xda\x0c\x1c'
tRp1287
aF7.0499999999999998
aF7.0499999999999998
aF6.9100000000000001
aF6.9900000000000002
aI16100
aa(lp1288
g10
(S'\x07\xda\x0c\x1d'
tRp1289
aF6.9900000000000002
aF7
aF6.7999999999999998
aF6.8200000000000003
aI25300
aa(lp1290
g10
(S'\x07\xda\x0c\x1e'
tRp1291
aF6.7999999999999998
aF6.9299999999999997
aF6.7400000000000002
aF6.8899999999999997
aI25300
aa(lp1292
g10
(S'\x07\xda\x0c\x1f'
tRp1293
aF6.8600000000000003
aF6.9400000000000004
aF6.8300000000000001
aF6.9100000000000001
aI20400
aa(lp1294
g10
(S'\x07\xdb\x01\x03'
tRp1295
aF6.9199999999999999
aF7.0999999999999996
aF6.9100000000000001
aF7.04
aI188700
aa(lp1296
g10
(S'\x07\xdb\x01\x04'
tRp1297
aF7.0499999999999998
aF7.0499999999999998
aF6.9100000000000001
aF6.9199999999999999
aI32400
aa(lp1298
g10
(S'\x07\xdb\x01\x05'
tRp1299
aF6.9100000000000001
aF7.0499999999999998
aF6.9100000000000001
aF7.0499999999999998
aI24000
aa(lp1300
g10
(S'\x07\xdb\x01\x06'
tRp1301
aF7.0499999999999998
aF7.0499999999999998
aF6.9100000000000001
aF6.9500000000000002
aI45200
aa(lp1302
g10
(S'\x07\xdb\x01\x07'
tRp1303
aF6.9800000000000004
aF6.9800000000000004
aF6.6900000000000004
aF6.7699999999999996
aI27500
aa(lp1304
g10
(S'\x07\xdb\x01\n'
tRp1305
aF6.7599999999999998
aF7
aF6.6600000000000001
aF7
aI40100
aa(lp1306
g10
(S'\x07\xdb\x01\x0b'
tRp1307
aF7
aF7.04
aF6.9400000000000004
aF7.0199999999999996
aI64700
aa(lp1308
g10
(S'\x07\xdb\x01\x0c'
tRp1309
aF7.0499999999999998
aF7.0999999999999996
aF7
aF7.0499999999999998
aI66100
aa(lp1310
g10
(S'\x07\xdb\x01\r'
tRp1311
aF6.9800000000000004
aF7
aF6.9100000000000001
aF6.9400000000000004
aI62600
aa(lp1312
g10
(S'\x07\xdb\x01\x0e'
tRp1313
aF6.9500000000000002
aF7.0300000000000002
aF6.9400000000000004
aF7.0300000000000002
aI16900
aa(lp1314
g10
(S'\x07\xdb\x01\x12'
tRp1315
aF6.9500000000000002
aF7.0499999999999998
aF6.9500000000000002
aF7.0199999999999996
aI34500
aa(lp1316
g10
(S'\x07\xdb\x01\x13'
tRp1317
aF7.0499999999999998
aF7.0499999999999998
aF6.96
aF7
aI50300
aa(lp1318
g10
(S'\x07\xdb\x01\x14'
tRp1319
aF6.9500000000000002
aF6.9500000000000002
aF6.8600000000000003
aF6.8700000000000001
aI41400
aa(lp1320
g10
(S'\x07\xdb\x01\x15'
tRp1321
aF6.8899999999999997
aF6.96
aF6.8600000000000003
aF6.9000000000000004
aI43900
aa(lp1322
g10
(S'\x07\xdb\x01\x18'
tRp1323
aF6.9800000000000004
aF6.9800000000000004
aF6.8700000000000001
aF6.9199999999999999
aI24300
aa(lp1324
g10
(S'\x07\xdb\x01\x19'
tRp1325
aF6.9299999999999997
aF6.9800000000000004
aF6.8799999999999999
aF6.9299999999999997
aI21100
aa(lp1326
g10
(S'\x07\xdb\x01\x1a'
tRp1327
aF6.9699999999999998
aF7
aF6.9000000000000004
aF6.9699999999999998
aI78100
aa(lp1328
g10
(S'\x07\xdb\x01\x1b'
tRp1329
aF6.9699999999999998
aF7.0700000000000003
aF6.9699999999999998
aF7.0099999999999998
aI39300
aa(lp1330
g10
(S'\x07\xdb\x01\x1c'
tRp1331
aF6.9900000000000002
aF6.9900000000000002
aF6.75
aF6.75
aI58100
aa(lp1332
g10
(S'\x07\xdb\x01\x1f'
tRp1333
aF6.6500000000000004
aF6.6500000000000004
aF6.0099999999999998
aF6.5499999999999998
aI159200
aa(lp1334
g10
(S'\x07\xdb\x02\x01'
tRp1335
aF6.5199999999999996
aF6.6799999999999997
aF6.46
aF6.6399999999999997
aI196100
aa(lp1336
g10
(S'\x07\xdb\x02\x02'
tRp1337
aF6.6299999999999999
aF6.6299999999999999
aF6.4199999999999999
aF6.4400000000000004
aI67200
aa(lp1338
g10
(S'\x07\xdb\x02\x03'
tRp1339
aF6.4400000000000004
aF6.5
aF6.2999999999999998
aF6.3899999999999997
aI35300
aa(lp1340
g10
(S'\x07\xdb\x02\x04'
tRp1341
aF6.3700000000000001
aF6.46
aF6.1699999999999999
aF6.46
aI63400
aa(lp1342
g10
(S'\x07\xdb\x02\x07'
tRp1343
aF6.4500000000000002
aF6.6500000000000004
aF6.3499999999999996
aF6.54
aI39400
aa(lp1344
g10
(S'\x07\xdb\x02\x08'
tRp1345
aF6.5099999999999998
aF6.6299999999999999
aF6.5
aF6.6299999999999999
aI28800
aa(lp1346
g10
(S'\x07\xdb\x02\t'
tRp1347
aF6.6299999999999999
aF6.6500000000000004
aF6.5499999999999998
aF6.5899999999999999
aI27300
aa(lp1348
g10
(S'\x07\xdb\x02\n'
tRp1349
aF6.5499999999999998
aF6.6399999999999997
aF6.54
aF6.5899999999999999
aI29700
aa(lp1350
g10
(S'\x07\xdb\x02\x0b'
tRp1351
aF6.5800000000000001
aF6.6200000000000001
aF6.5099999999999998
aF6.5899999999999999
aI27500
aa(lp1352
g10
(S'\x07\xdb\x02\x0e'
tRp1353
aF6.5300000000000002
aF6.6399999999999997
aF6.5199999999999996
aF6.5999999999999996
aI249100
aa(lp1354
g10
(S'\x07\xdb\x02\x0f'
tRp1355
aF6.5999999999999996
aF6.7300000000000004
aF6.5800000000000001
aF6.5999999999999996
aI98000
aa(lp1356
g10
(S'\x07\xdb\x02\x10'
tRp1357
aF6.6100000000000003
aF6.6399999999999997
aF6.5199999999999996
aF6.5800000000000001
aI93100
aa(lp1358
g10
(S'\x07\xdb\x02\x11'
tRp1359
aF6.5300000000000002
aF6.5999999999999996
aF6.4500000000000002
aF6.5999999999999996
aI24500
aa(lp1360
g10
(S'\x07\xdb\x02\x12'
tRp1361
aF6.6399999999999997
aF6.6399999999999997
aF6.4100000000000001
aF6.4500000000000002
aI58900
aa(lp1362
g10
(S'\x07\xdb\x02\x16'
tRp1363
aF6.4000000000000004
aF6.5099999999999998
aF6.25
aF6.4800000000000004
aI46600
aa(lp1364
g10
(S'\x07\xdb\x02\x17'
tRp1365
aF6.4699999999999998
aF6.5199999999999996
aF6.3499999999999996
aF6.4299999999999997
aI41400
aa(lp1366
g10
(S'\x07\xdb\x02\x18'
tRp1367
aF6.46
aF6.46
aF6.3399999999999999
aF6.4299999999999997
aI62800
aa(lp1368
g10
(S'\x07\xdb\x02\x19'
tRp1369
aF6.4299999999999997
aF6.5999999999999996
aF6.3600000000000003
aF6.5899999999999999
aI37000
aa(lp1370
g10
(S'\x07\xdb\x02\x1c'
tRp1371
aF6.5999999999999996
aF6.5999999999999996
aF6.3300000000000001
aF6.4199999999999999
aI46100
aa(lp1372
g10
(S'\x07\xdb\x03\x01'
tRp1373
aF6.5
aF6.5499999999999998
aF6.46
aF6.5099999999999998
aI31400
aa(lp1374
g10
(S'\x07\xdb\x03\x02'
tRp1375
aF6.4900000000000002
aF6.5499999999999998
aF6.4000000000000004
aF6.54
aI109600
aa(lp1376
g10
(S'\x07\xdb\x03\x03'
tRp1377
aF6.5800000000000001
aF6.8499999999999996
aF6.5099999999999998
aF6.8499999999999996
aI339100
aa(lp1378
g10
(S'\x07\xdb\x03\x04'
tRp1379
aF7.2599999999999998
aF7.46
aF7.0499999999999998
aF7.1799999999999997
aI958700
aa(lp1380
g10
(S'\x07\xdb\x03\x07'
tRp1381
aF7.25
aF7.3499999999999996
aF7.21
aF7.2199999999999998
aI164300
aa(lp1382
g10
(S'\x07\xdb\x03\x08'
tRp1383
aF7.3099999999999996
aF7.3200000000000003
aF7.2000000000000002
aF7.2000000000000002
aI119900
aa(lp1384
g10
(S'\x07\xdb\x03\t'
tRp1385
aF7.2199999999999998
aF7.3899999999999997
aF7.2199999999999998
aF7.2300000000000004
aI56800
aa(lp1386
g10
(S'\x07\xdb\x03\n'
tRp1387
aF7.25
aF7.2999999999999998
aF7.0999999999999996
aF7.0999999999999996
aI91700
aa(lp1388
g10
(S'\x07\xdb\x03\x0b'
tRp1389
aF7.0999999999999996
aF7.2199999999999998
aF7.0199999999999996
aF7.0300000000000002
aI49900
aa(lp1390
g10
(S'\x07\xdb\x03\x0e'
tRp1391
aF7.0199999999999996
aF7.1299999999999999
aF7.0099999999999998
aF7.0499999999999998
aI51500
aa(lp1392
g10
(S'\x07\xdb\x03\x0f'
tRp1393
aF7
aF7.1500000000000004
aF7
aF7.1200000000000001
aI72600
aa(lp1394
g10
(S'\x07\xdb\x03\x10'
tRp1395
aF7.0899999999999999
aF7.1299999999999999
aF7
aF7.04
aI70100
aa(lp1396
g10
(S'\x07\xdb\x03\x11'
tRp1397
aF6.8399999999999999
aF6.8399999999999999
aF6.5899999999999999
aF6.5999999999999996
aI720300
aa(lp1398
g10
(S'\x07\xdb\x03\x12'
tRp1399
aF6.6699999999999999
aF6.9000000000000004
aF6.6100000000000003
aF6.8499999999999996
aI257200
aa(lp1400
g10
(S'\x07\xdb\x03\x15'
tRp1401
aF6.9400000000000004
aF6.9400000000000004
aF6.7800000000000002
aF6.8499999999999996
aI120400
aa(lp1402
g10
(S'\x07\xdb\x03\x16'
tRp1403
aF6.9000000000000004
aF6.9500000000000002
aF6.8099999999999996
aF6.8399999999999999
aI207100
aa(lp1404
g10
(S'\x07\xdb\x03\x17'
tRp1405
aF6.8300000000000001
aF6.8300000000000001
aF6.6399999999999997
aF6.7400000000000002
aI57000
aa(lp1406
g10
(S'\x07\xdb\x03\x18'
tRp1407
aF6.75
aF6.8600000000000003
aF6.5999999999999996
aF6.7199999999999998
aI93900
aa(lp1408
g10
(S'\x07\xdb\x03\x19'
tRp1409
aF6.75
aF7.0800000000000001
aF6.75
aF7.0499999999999998
aI123900
aa(lp1410
g10
(S'\x07\xdb\x03\x1c'
tRp1411
aF7.0800000000000001
aF7.0800000000000001
aF6.9000000000000004
aF6.9000000000000004
aI108700
aa(lp1412
g10
(S'\x07\xdb\x03\x1d'
tRp1413
aF6.8799999999999999
aF7.0300000000000002
aF6.8300000000000001
aF6.9800000000000004
aI101500
aa(lp1414
g10
(S'\x07\xdb\x03\x1e'
tRp1415
aF7.0199999999999996
aF7.0999999999999996
aF6.9199999999999999
aF7.0499999999999998
aI95100
aa(lp1416
g10
(S'\x07\xdb\x03\x1f'
tRp1417
aF7.0899999999999999
aF7.0999999999999996
aF6.9800000000000004
aF7.0199999999999996
aI337000
aa(lp1418
g10
(S'\x07\xdb\x04\x01'
tRp1419
aF7.0499999999999998
aF7.1900000000000004
aF7
aF7.0999999999999996
aI154800
aa(lp1420
g10
(S'\x07\xdb\x04\x04'
tRp1421
aF7.1399999999999997
aF7.1600000000000001
aF7.0599999999999996
aF7.1299999999999999
aI64000
aa(lp1422
g10
(S'\x07\xdb\x04\x05'
tRp1423
aF7.0999999999999996
aF7.1100000000000003
aF7.0599999999999996
aF7.0899999999999999
aI60000
aa(lp1424
g10
(S'\x07\xdb\x04\x06'
tRp1425
aF7.1399999999999997
aF7.1399999999999997
aF7.0499999999999998
aF7.1100000000000003
aI111800
aa(lp1426
g10
(S'\x07\xdb\x04\x07'
tRp1427
aF7.1299999999999999
aF7.1299999999999999
aF7.0700000000000003
aF7.0999999999999996
aI81300
aa(lp1428
g10
(S'\x07\xdb\x04\x08'
tRp1429
aF7.0999999999999996
aF7.1100000000000003
aF7.0499999999999998
aF7.0800000000000001
aI71300
aa(lp1430
g10
(S'\x07\xdb\x04\x0b'
tRp1431
aF7.0599999999999996
aF7.1399999999999997
aF7
aF7
aI109300
aa(lp1432
g10
(S'\x07\xdb\x04\x0c'
tRp1433
aF6.9900000000000002
aF7.0199999999999996
aF6.8200000000000003
aF6.9199999999999999
aI76700
aa(lp1434
g10
(S'\x07\xdb\x04\r'
tRp1435
aF6.9699999999999998
aF6.9800000000000004
aF6.7300000000000004
aF6.75
aI82000
aa(lp1436
g10
(S'\x07\xdb\x04\x0e'
tRp1437
aF6.71
aF6.8600000000000003
aF6.6500000000000004
aF6.8099999999999996
aI30400
aa(lp1438
g10
(S'\x07\xdb\x04\x0f'
tRp1439
aF6.7999999999999998
aF6.7999999999999998
aF6.5499999999999998
aF6.6799999999999997
aI131800
aa(lp1440
g10
(S'\x07\xdb\x04\x12'
tRp1441
aF6.5999999999999996
aF6.6200000000000001
aF6.5099999999999998
aF6.5700000000000003
aI56200
aa(lp1442
g10
(S'\x07\xdb\x04\x13'
tRp1443
aF6.6200000000000001
aF6.6699999999999999
aF6.3399999999999999
aF6.3700000000000001
aI182800
aa(lp1444
g10
(S'\x07\xdb\x04\x14'
tRp1445
aF6.4299999999999997
aF6.6299999999999999
aF6.4000000000000004
aF6.5300000000000002
aI128400
aa(lp1446
g10
(S'\x07\xdb\x04\x15'
tRp1447
aF6.5
aF6.5099999999999998
aF6.4500000000000002
aF6.5
aI78200
aa(lp1448
g10
(S'\x07\xdb\x04\x19'
tRp1449
aF6.5
aF6.6699999999999999
aF6.4500000000000002
aF6.6500000000000004
aI74200
aa(lp1450
g10
(S'\x07\xdb\x04\x1a'
tRp1451
aF6.6500000000000004
aF6.9299999999999997
aF6.5999999999999996
aF6.8700000000000001
aI65100
aa(lp1452
g10
(S'\x07\xdb\x04\x1b'
tRp1453
aF6.8499999999999996
aF7
aF6.7599999999999998
aF6.7999999999999998
aI109900
aa(lp1454
g10
(S'\x07\xdb\x04\x1c'
tRp1455
aF6.8099999999999996
aF6.9500000000000002
aF6.79
aF6.9500000000000002
aI36800
aa(lp1456
g10
(S'\x07\xdb\x04\x1d'
tRp1457
aF6.9699999999999998
aF7
aF6.9199999999999999
aF6.9699999999999998
aI64000
aa(lp1458
g10
(S'\x07\xdb\x05\x02'
tRp1459
aF6.9900000000000002
aF6.9900000000000002
aF6.71
aF6.7199999999999998
aI50300
aa(lp1460
g10
(S'\x07\xdb\x05\x03'
tRp1461
aF6.6699999999999999
aF6.7000000000000002
aF6.4500000000000002
aF6.6100000000000003
aI64500
aa(lp1462
g10
(S'\x07\xdb\x05\x04'
tRp1463
aF6.5800000000000001
aF6.5899999999999999
aF6.4299999999999997
aF6.5199999999999996
aI66000
aa(lp1464
g10
(S'\x07\xdb\x05\x05'
tRp1465
aF6.4699999999999998
aF6.6399999999999997
aF6.4100000000000001
aF6.4900000000000002
aI93500
aa(lp1466
g10
(S'\x07\xdb\x05\x06'
tRp1467
aF6.5599999999999996
aF6.6100000000000003
aF6.4000000000000004
aF6.4400000000000004
aI54000
aa(lp1468
g10
(S'\x07\xdb\x05\t'
tRp1469
aF6.4100000000000001
aF6.54
aF6.4000000000000004
aF6.5199999999999996
aI42700
aa(lp1470
g10
(S'\x07\xdb\x05\n'
tRp1471
aF6.5499999999999998
aF6.5599999999999996
aF6.4000000000000004
aF6.5199999999999996
aI91200
aa(lp1472
g10
(S'\x07\xdb\x05\x0b'
tRp1473
aF6.5300000000000002
aF6.5300000000000002
aF6.3799999999999999
aF6.4100000000000001
aI72200
aa(lp1474
g10
(S'\x07\xdb\x05\x0c'
tRp1475
aF6.4000000000000004
aF6.5899999999999999
aF6.3700000000000001
aF6.5800000000000001
aI66600
aa(lp1476
g10
(S'\x07\xdb\x05\r'
tRp1477
aF6.5599999999999996
aF6.5899999999999999
aF6.4400000000000004
aF6.4699999999999998
aI58000
aa(lp1478
g10
(S'\x07\xdb\x05\x10'
tRp1479
aF6.4199999999999999
aF6.4199999999999999
aF6.2999999999999998
aF6.3099999999999996
aI110000
aa(lp1480
g10
(S'\x07\xdb\x05\x11'
tRp1481
aF6.29
aF6.3099999999999996
aF6.0499999999999998
aF6.2199999999999998
aI163800
aa(lp1482
g10
(S'\x07\xdb\x05\x12'
tRp1483
aF6.2400000000000002
aF6.4199999999999999
aF6.21
aF6.3700000000000001
aI116000
aa(lp1484
g10
(S'\x07\xdb\x05\x13'
tRp1485
aF6.3899999999999997
aF6.4000000000000004
aF6.1399999999999997
aF6.3300000000000001
aI104900
aa(lp1486
g10
(S'\x07\xdb\x05\x14'
tRp1487
aF6.2800000000000002
aF6.3799999999999999
aF6.21
aF6.21
aI64300
aa(lp1488
g10
(S'\x07\xdb\x05\x17'
tRp1489
aF6.1799999999999997
aF6.25
aF6.1299999999999999
aF6.1399999999999997
aI59800
aa(lp1490
g10
(S'\x07\xdb\x05\x18'
tRp1491
aF6.1500000000000004
aF6.1500000000000004
aF6.0499999999999998
aF6.0700000000000003
aI77000
aa(lp1492
g10
(S'\x07\xdb\x05\x19'
tRp1493
aF6.0499999999999998
aF6.1299999999999999
aF6.04
aF6.1100000000000003
aI38900
aa(lp1494
g10
(S'\x07\xdb\x05\x1a'
tRp1495
aF6.0999999999999996
aF6.3899999999999997
aF6.0999999999999996
aF6.3099999999999996
aI77200
aa(lp1496
g10
(S'\x07\xdb\x05\x1b'
tRp1497
aF6.3099999999999996
aF6.3200000000000003
aF6.1299999999999999
aF6.1399999999999997
aI24900
aa(lp1498
g10
(S'\x07\xdb\x05\x1f'
tRp1499
aF6.1699999999999999
aF6.2599999999999998
aF6.0700000000000003
aF6.2300000000000004
aI68700
aa(lp1500
g10
(S'\x07\xdb\x06\x01'
tRp1501
aF6.2000000000000002
aF6.2199999999999998
aF5.9699999999999998
aF5.9699999999999998
aI91100
aa(lp1502
g10
(S'\x07\xdb\x06\x02'
tRp1503
aF6
aF6
aF5.9299999999999997
aF5.9500000000000002
aI50500
aa(lp1504
g10
(S'\x07\xdb\x06\x03'
tRp1505
aF5.8700000000000001
aF6.0300000000000002
aF5.79
aF5.8499999999999996
aI51700
aa(lp1506
g10
(S'\x07\xdb\x06\x06'
tRp1507
aF5.8300000000000001
aF5.8899999999999997
aF5.6200000000000001
aF5.7000000000000002
aI80500
aa(lp1508
g10
(S'\x07\xdb\x06\x07'
tRp1509
aF5.7599999999999998
aF5.8499999999999996
aF5.7599999999999998
aF5.79
aI69000
aa(lp1510
g10
(S'\x07\xdb\x06\x08'
tRp1511
aF5.71
aF5.8099999999999996
aF5.71
aF5.7199999999999998
aI112600
aa(lp1512
g10
(S'\x07\xdb\x06\t'
tRp1513
aF5.7300000000000004
aF5.7999999999999998
aF5.6500000000000004
aF5.7699999999999996
aI60600
aa(lp1514
g10
(S'\x07\xdb\x06\n'
tRp1515
aF5.7199999999999998
aF5.75
aF5.4500000000000002
aF5.5300000000000002
aI115300
aa(lp1516
g10
(S'\x07\xdb\x06\r'
tRp1517
aF5.4100000000000001
aF5.6200000000000001
aF5.1799999999999997
aF5.5599999999999996
aI261300
aa(lp1518
g10
(S'\x07\xdb\x06\x0e'
tRp1519
aF5.5499999999999998
aF5.9000000000000004
aF5.2599999999999998
aF5.8600000000000003
aI126600
aa(lp1520
g10
(S'\x07\xdb\x06\x0f'
tRp1521
aF5.7800000000000002
aF5.8200000000000003
aF5.6699999999999999
aF5.7599999999999998
aI98200
aa(lp1522
g10
(S'\x07\xdb\x06\x10'
tRp1523
aF5.75
aF6.0499999999999998
aF5.75
aF6.04
aI89300
aa(lp1524
g10
(S'\x07\xdb\x06\x11'
tRp1525
aF6.0599999999999996
aF6.2000000000000002
aF5.9900000000000002
aF6.0300000000000002
aI105800
aa(lp1526
g10
(S'\x07\xdb\x06\x14'
tRp1527
aF6.0099999999999998
aF6.0599999999999996
aF6
aF6.0300000000000002
aI37100
aa(lp1528
g10
(S'\x07\xdb\x06\x15'
tRp1529
aF6.0499999999999998
aF6.1799999999999997
aF6.0499999999999998
aF6.1100000000000003
aI116800
aa(lp1530
g10
(S'\x07\xdb\x06\x16'
tRp1531
aF6.0800000000000001
aF6.2000000000000002
aF6.0300000000000002
aF6.0700000000000003
aI41600
aa(lp1532
g10
(S'\x07\xdb\x06\x17'
tRp1533
aF5.9900000000000002
aF6.1500000000000004
aF5.9900000000000002
aF6.0899999999999999
aI41800
aa(lp1534
g10
(S'\x07\xdb\x06\x18'
tRp1535
aF6.0599999999999996
aF6.3099999999999996
aF6.0099999999999998
aF6.2800000000000002
aI272200
aa(lp1536
g10
(S'\x07\xdb\x06\x1b'
tRp1537
aF6.25
aF6.2699999999999996
aF6.1600000000000001
aF6.25
aI44400
aa(lp1538
g10
(S'\x07\xdb\x06\x1c'
tRp1539
aF6.2800000000000002
aF6.3099999999999996
aF6.1500000000000004
aF6.1900000000000004
aI37500
aa(lp1540
g10
(S'\x07\xdb\x06\x1d'
tRp1541
aF6.2199999999999998
aF6.2199999999999998
aF6.0999999999999996
aF6.1799999999999997
aI13600
aa(lp1542
g10
(S'\x07\xdb\x06\x1e'
tRp1543
aF6.21
aF6.2800000000000002
aF6.1600000000000001
aF6.2199999999999998
aI49000
aa(lp1544
g10
(S'\x07\xdb\x07\x01'
tRp1545
aF6.2300000000000004
aF6.25
aF6.1299999999999999
aF6.21
aI37500
aa(lp1546
g10
(S'\x07\xdb\x07\x05'
tRp1547
aF6.1600000000000001
aF6.1900000000000004
aF6.0700000000000003
aF6.1200000000000001
aI69800
aa(lp1548
g10
(S'\x07\xdb\x07\x06'
tRp1549
aF6.0899999999999999
aF6.1900000000000004
aF6
aF6.1299999999999999
aI30900
aa(lp1550
g10
(S'\x07\xdb\x07\x07'
tRp1551
aF6.2000000000000002
aF6.3700000000000001
aF6.1200000000000001
aF6.3700000000000001
aI72500
aa(lp1552
g10
(S'\x07\xdb\x07\x08'
tRp1553
aF6.3200000000000003
aF6.3600000000000003
aF6.1600000000000001
aF6.21
aI36500
aa(lp1554
g10
(S'\x07\xdb\x07\x0b'
tRp1555
aF6.1600000000000001
aF6.2699999999999996
aF6.0099999999999998
aF6.25
aI58300
aa(lp1556
g10
(S'\x07\xdb\x07\x0c'
tRp1557
aF6.25
aF6.3499999999999996
aF6.25
aF6.3300000000000001
aI41700
aa(lp1558
g10
(S'\x07\xdb\x07\r'
tRp1559
aF6.3399999999999999
aF6.4900000000000002
aF6.3399999999999999
aF6.4699999999999998
aI49200
aa(lp1560
g10
(S'\x07\xdb\x07\x0e'
tRp1561
aF6.4800000000000004
aF6.5
aF6.3200000000000003
aF6.3399999999999999
aI55000
aa(lp1562
g10
(S'\x07\xdb\x07\x0f'
tRp1563
aF6.3399999999999999
aF6.3399999999999999
aF6.1200000000000001
aF6.1799999999999997
aI49200
aa(lp1564
g10
(S'\x07\xdb\x07\x12'
tRp1565
aF6.2000000000000002
aF6.2199999999999998
aF6.04
aF6.1500000000000004
aI28800
aa(lp1566
g10
(S'\x07\xdb\x07\x13'
tRp1567
aF6.29
aF6.4199999999999999
aF6.0099999999999998
aF6.3899999999999997
aI63400
aa(lp1568
g10
(S'\x07\xdb\x07\x14'
tRp1569
aF6.3799999999999999
aF6.3799999999999999
aF6.1399999999999997
aF6.3300000000000001
aI35200
aa(lp1570
g10
(S'\x07\xdb\x07\x15'
tRp1571
aF6.3200000000000003
aF6.46
aF6.2300000000000004
aF6.3399999999999999
aI76100
aa(lp1572
g10
(S'\x07\xdb\x07\x16'
tRp1573
aF6.3399999999999999
aF6.3499999999999996
aF6.2199999999999998
aF6.2699999999999996
aI40800
aa(lp1574
g10
(S'\x07\xdb\x07\x19'
tRp1575
aF6.1799999999999997
aF6.2300000000000004
aF6.0999999999999996
aF6.1399999999999997
aI29500
aa(lp1576
g10
(S'\x07\xdb\x07\x1a'
tRp1577
aF6.1600000000000001
aF6.25
aF6.0300000000000002
aF6.04
aI44000
aa(lp1578
g10
(S'\x07\xdb\x07\x1b'
tRp1579
aF6.0999999999999996
aF6.0999999999999996
aF5.7599999999999998
aF5.79
aI81000
aa(lp1580
g10
(S'\x07\xdb\x07\x1c'
tRp1581
aF5.7599999999999998
aF5.8700000000000001
aF5.7300000000000004
aF5.8600000000000003
aI48600
aa(lp1582
g10
(S'\x07\xdb\x07\x1d'
tRp1583
aF5.7999999999999998
aF5.9800000000000004
aF5.7400000000000002
aF5.9299999999999997
aI25400
aa(lp1584
g10
(S'\x07\xdb\x08\x01'
tRp1585
aF5.9000000000000004
aF5.9000000000000004
aF5.6699999999999999
aF5.8399999999999999
aI57900
aa(lp1586
g10
(S'\x07\xdb\x08\x02'
tRp1587
aF5.79
aF5.9000000000000004
aF5.7699999999999996
aF5.7999999999999998
aI67800
aa(lp1588
g10
(S'\x07\xdb\x08\x03'
tRp1589
aF5.7999999999999998
aF6.0199999999999996
aF5.75
aF5.8799999999999999
aI57000
aa(lp1590
g10
(S'\x07\xdb\x08\x04'
tRp1591
aF5.8399999999999999
aF5.9000000000000004
aF5.75
aF5.7599999999999998
aI88500
aa(lp1592
g10
(S'\x07\xdb\x08\x05'
tRp1593
aF5.79
aF5.8499999999999996
aF5.5
aF5.75
aI76600
aa(lp1594
g10
(S'\x07\xdb\x08\x08'
tRp1595
aF5.5899999999999999
aF5.7199999999999998
aF5.2999999999999998
aF5.2999999999999998
aI176200
aa(lp1596
g10
(S'\x07\xdb\x08\t'
tRp1597
aF5.29
aF5.7699999999999996
aF5.0999999999999996
aF5.7400000000000002
aI174400
aa(lp1598
g10
(S'\x07\xdb\x08\n'
tRp1599
aF5.5499999999999998
aF5.7400000000000002
aF5.2999999999999998
aF5.2999999999999998
aI133100
aa(lp1600
g10
(S'\x07\xdb\x08\x0b'
tRp1601
aF5.3300000000000001
aF5.7199999999999998
aF5.3300000000000001
aF5.5899999999999999
aI90100
aa(lp1602
g10
(S'\x07\xdb\x08\x0c'
tRp1603
aF5.6200000000000001
aF5.75
aF5.25
aF5.3200000000000003
aI59300
aa(lp1604
g10
(S'\x07\xdb\x08\x0f'
tRp1605
aF5.3700000000000001
aF5.4400000000000004
aF5.2199999999999998
aF5.4000000000000004
aI45100
aa(lp1606
g10
(S'\x07\xdb\x08\x10'
tRp1607
aF5.3700000000000001
aF5.4400000000000004
aF5.21
aF5.29
aI51600
aa(lp1608
g10
(S'\x07\xdb\x08\x11'
tRp1609
aF5.29
aF5.3899999999999997
aF5.2599999999999998
aF5.3399999999999999
aI35500
aa(lp1610
g10
(S'\x07\xdb\x08\x12'
tRp1611
aF5.25
aF5.3499999999999996
aF5.0700000000000003
aF5.1200000000000001
aI104900
aa(lp1612
g10
(S'\x07\xdb\x08\x13'
tRp1613
aF5.0800000000000001
aF5.2300000000000004
aF4.9500000000000002
aF4.96
aI74400
aa(lp1614
g10
(S'\x07\xdb\x08\x16'
tRp1615
aF5.0300000000000002
aF5.0300000000000002
aF4.75
aF4.8399999999999999
aI56800
aa(lp1616
g10
(S'\x07\xdb\x08\x17'
tRp1617
aF4.8399999999999999
aF5.0099999999999998
aF4.7999999999999998
aF5.0099999999999998
aI103300
aa(lp1618
g10
(S'\x07\xdb\x08\x18'
tRp1619
aF4.9800000000000004
aF5.1299999999999999
aF4.8099999999999996
aF5.1100000000000003
aI43200
aa(lp1620
g10
(S'\x07\xdb\x08\x19'
tRp1621
aF5.0800000000000001
aF5.0800000000000001
aF4.8200000000000003
aF4.8399999999999999
aI74700
aa(lp1622
g10
(S'\x07\xdb\x08\x1a'
tRp1623
aF4.8099999999999996
aF5
aF4.7199999999999998
aF4.9699999999999998
aI81100
aa(lp1624
g10
(S'\x07\xdb\x08\x1d'
tRp1625
aF5.0099999999999998
aF5.4000000000000004
aF5.0099999999999998
aF5.3899999999999997
aI61200
aa(lp1626
g10
(S'\x07\xdb\x08\x1e'
tRp1627
aF5.3600000000000003
aF5.3700000000000001
aF5.1600000000000001
aF5.3099999999999996
aI35600
aa(lp1628
g10
(S'\x07\xdb\x08\x1f'
tRp1629
aF5.3399999999999999
aF5.4000000000000004
aF5.1600000000000001
aF5.3499999999999996
aI82200
aa(lp1630
g10
(S'\x07\xdb\t\x01'
tRp1631
aF5.3300000000000001
aF5.3399999999999999
aF5.1399999999999997
aF5.1699999999999999
aI79400
aa(lp1632
g10
(S'\x07\xdb\t\x02'
tRp1633
aF5.0700000000000003
aF5.0700000000000003
aF4.6500000000000004
aF4.6799999999999997
aI91600
aa(lp1634
g10
(S'\x07\xdb\t\x06'
tRp1635
aF4.6100000000000003
aF4.79
aF4.5599999999999996
aF4.6799999999999997
aI74300
aa(lp1636
g10
(S'\x07\xdb\t\x07'
tRp1637
aF4.7400000000000002
aF5.04
aF4.7400000000000002
aF5.0099999999999998
aI73000
aa(lp1638
g10
(S'\x07\xdb\t\x08'
tRp1639
aF4.96
aF5.0499999999999998
aF4.71
aF4.7699999999999996
aI64300
aa(lp1640
g10
(S'\x07\xdb\t\t'
tRp1641
aF4.7999999999999998
aF4.9100000000000001
aF4.7300000000000004
aF4.75
aI95800
aa(lp1642
g10
(S'\x07\xdb\t\x0c'
tRp1643
aF4.6799999999999997
aF4.8799999999999999
aF4.6699999999999999
aF4.8399999999999999
aI39900
aa(lp1644
g10
(S'\x07\xdb\t\r'
tRp1645
aF4.8799999999999999
aF5.0300000000000002
aF4.8700000000000001
aF4.9800000000000004
aI27300
aa(lp1646
g10
(S'\x07\xdb\t\x0e'
tRp1647
aF5.0300000000000002
aF5.0899999999999999
aF4.8499999999999996
aF4.9800000000000004
aI55700
aa(lp1648
g10
(S'\x07\xdb\t\x0f'
tRp1649
aF5.0099999999999998
aF5.1100000000000003
aF4.9900000000000002
aF5.0700000000000003
aI32400
aa(lp1650
g10
(S'\x07\xdb\t\x10'
tRp1651
aF5.0999999999999996
aF5.1100000000000003
aF5
aF5.0099999999999998
aI84400
aa(lp1652
g10
(S'\x07\xdb\t\x13'
tRp1653
aF4.9299999999999997
aF5.0999999999999996
aF4.8399999999999999
aF4.9900000000000002
aI63200
aa(lp1654
g10
(S'\x07\xdb\t\x14'
tRp1655
aF5
aF5.0300000000000002
aF4.7400000000000002
aF4.7800000000000002
aI40300
aa(lp1656
g10
(S'\x07\xdb\t\x15'
tRp1657
aF4.7999999999999998
aF4.8700000000000001
aF4.6500000000000004
aF4.6799999999999997
aI58100
aa(lp1658
g10
(S'\x07\xdb\t\x16'
tRp1659
aF4.6100000000000003
aF4.8799999999999999
aF4.6100000000000003
aF4.6600000000000001
aI100900
aa(lp1660
g10
(S'\x07\xdb\t\x17'
tRp1661
aF4.6699999999999999
aF4.9100000000000001
aF4.6699999999999999
aF4.8600000000000003
aI45900
aa(lp1662
g10
(S'\x07\xdb\t\x1a'
tRp1663
aF4.9199999999999999
aF5.0599999999999996
aF4.5700000000000003
aF5.04
aI33300
aa(lp1664
g10
(S'\x07\xdb\t\x1b'
tRp1665
aF5.1100000000000003
aF5.2400000000000002
aF5
aF5.1200000000000001
aI108400
aa(lp1666
g10
(S'\x07\xdb\t\x1c'
tRp1667
aF5.0999999999999996
aF5.1900000000000004
aF4.7999999999999998
aF4.7999999999999998
aI91600
aa(lp1668
g10
(S'\x07\xdb\t\x1d'
tRp1669
aF4.9299999999999997
aF4.9500000000000002
aF4.7199999999999998
aF4.9100000000000001
aI54200
aa(lp1670
g10
(S'\x07\xdb\t\x1e'
tRp1671
aF4.8499999999999996
aF5.0099999999999998
aF4.8300000000000001
aF4.9299999999999997
aI59300
aa(lp1672
g10
(S'\x07\xdb\n\x03'
tRp1673
aF4.8799999999999999
aF5.0499999999999998
aF4.5700000000000003
aF4.5700000000000003
aI89600
aa(lp1674
g10
(S'\x07\xdb\n\x04'
tRp1675
aF4.5499999999999998
aF5.1399999999999997
aF4.4400000000000004
aF5.1299999999999999
aI140100
aa(lp1676
g10
(S'\x07\xdb\n\x05'
tRp1677
aF5.1100000000000003
aF5.2800000000000002
aF4.9400000000000004
aF5.1200000000000001
aI55500
aa(lp1678
g10
(S'\x07\xdb\n\x06'
tRp1679
aF5.2300000000000004
aF5.2300000000000004
aF5
aF5.1600000000000001
aI54200
aa(lp1680
g10
(S'\x07\xdb\n\x07'
tRp1681
aF5.1600000000000001
aF5.21
aF4.8300000000000001
aF4.8700000000000001
aI46400
aa(lp1682
g10
(S'\x07\xdb\n\n'
tRp1683
aF4.9800000000000004
aF5.2699999999999996
aF4.8200000000000003
aF5.25
aI83200
aa(lp1684
g10
(S'\x07\xdb\n\x0b'
tRp1685
aF5.1900000000000004
aF5.3499999999999996
aF5.1900000000000004
aF5.3099999999999996
aI48000
aa(lp1686
g10
(S'\x07\xdb\n\x0c'
tRp1687
aF5.3399999999999999
aF5.3899999999999997
aF5
aF5.2300000000000004
aI151000
aa(lp1688
g10
(S'\x07\xdb\n\r'
tRp1689
aF5.2199999999999998
aF5.2300000000000004
aF5.1399999999999997
aF5.21
aI34600
aa(lp1690
g10
(S'\x07\xdb\n\x0e'
tRp1691
aF5.3200000000000003
aF5.3200000000000003
aF5.0700000000000003
aF5.1600000000000001
aI57200
aa(lp1692
g10
(S'\x07\xdb\n\x11'
tRp1693
aF5.1299999999999999
aF5.1799999999999997
aF4.7699999999999996
aF4.7999999999999998
aI124100
aa(lp1694
g10
(S'\x07\xdb\n\x12'
tRp1695
aF4.8399999999999999
aF5
aF4.7000000000000002
aF5
aI129000
aa(lp1696
g10
(S'\x07\xdb\n\x13'
tRp1697
aF4.9900000000000002
aF4.9900000000000002
aF4.79
aF4.8300000000000001
aI59600
aa(lp1698
g10
(S'\x07\xdb\n\x14'
tRp1699
aF4.8200000000000003
aF4.8899999999999997
aF4.7000000000000002
aF4.8600000000000003
aI51000
aa(lp1700
g10
(S'\x07\xdb\n\x15'
tRp1701
aF4.9699999999999998
aF5.0800000000000001
aF4.8700000000000001
aF5.0099999999999998
aI90400
aa(lp1702
g10
(S'\x07\xdb\n\x18'
tRp1703
aF5.25
aF5.2999999999999998
aF5.0999999999999996
aF5.2400000000000002
aI125100
aa(lp1704
g10
(S'\x07\xdb\n\x19'
tRp1705
aF5.3799999999999999
aF5.3799999999999999
aF4.9900000000000002
aF5.0499999999999998
aI128700
aa(lp1706
g10
(S'\x07\xdb\n\x1a'
tRp1707
aF5.1600000000000001
aF5.2699999999999996
aF5.0700000000000003
aF5.25
aI99700
aa(lp1708
g10
(S'\x07\xdb\n\x1b'
tRp1709
aF5.4299999999999997
aF5.4400000000000004
aF5.2300000000000004
aF5.2699999999999996
aI219000
aa(lp1710
g10
(S'\x07\xdb\n\x1c'
tRp1711
aF5.25
aF5.3200000000000003
aF5.1500000000000004
aF5.2000000000000002
aI122400
aa(lp1712
g10
(S'\x07\xdb\n\x1f'
tRp1713
aF5.0999999999999996
aF5.3600000000000003
aF5.0999999999999996
aF5.1799999999999997
aI80300
aa(lp1714
g10
(S'\x07\xdb\x0b\x01'
tRp1715
aF5.1500000000000004
aF5.2999999999999998
aF5.0300000000000002
aF5.0499999999999998
aI120000
aa(lp1716
g10
(S'\x07\xdb\x0b\x02'
tRp1717
aF5.1500000000000004
aF5.3799999999999999
aF5.1200000000000001
aF5.3499999999999996
aI51900
aa(lp1718
g10
(S'\x07\xdb\x0b\x03'
tRp1719
aF5.4100000000000001
aF5.5499999999999998
aF5.1900000000000004
aF5.5300000000000002
aI93600
aa(lp1720
g10
(S'\x07\xdb\x0b\x04'
tRp1721
aF5.4500000000000002
aF5.5199999999999996
aF5.3099999999999996
aF5.4400000000000004
aI48300
aa(lp1722
g10
(S'\x07\xdb\x0b\x07'
tRp1723
aF5.46
aF5.46
aF5.1100000000000003
aF5.3499999999999996
aI59200
aa(lp1724
g10
(S'\x07\xdb\x0b\x08'
tRp1725
aF5.4000000000000004
aF5.5099999999999998
aF5.2199999999999998
aF5.4900000000000002
aI74900
aa(lp1726
g10
(S'\x07\xdb\x0b\t'
tRp1727
aF5.54
aF5.54
aF5.25
aF5.3300000000000001
aI129600
aa(lp1728
g10
(S'\x07\xdb\x0b\n'
tRp1729
aF5.4100000000000001
aF5.4100000000000001
aF5.2300000000000004
aF5.3399999999999999
aI65200
aa(lp1730
g10
(S'\x07\xdb\x0b\x0b'
tRp1731
aF5.3899999999999997
aF5.5499999999999998
aF5.21
aF5.4900000000000002
aI64000
aa(lp1732
g10
(S'\x07\xdb\x0b\x0e'
tRp1733
aF5.7199999999999998
aF5.7300000000000004
aF5.3200000000000003
aF5.4699999999999998
aI121900
aa(lp1734
g10
(S'\x07\xdb\x0b\x0f'
tRp1735
aF5.46
aF5.5499999999999998
aF5.4199999999999999
aF5.5
aI75900
aa(lp1736
g10
(S'\x07\xdb\x0b\x10'
tRp1737
aF5.4299999999999997
aF5.6399999999999997
aF5.4199999999999999
aF5.5099999999999998
aI92700
aa(lp1738
g10
(S'\x07\xdb\x0b\x11'
tRp1739
aF5.5300000000000002
aF5.6299999999999999
aF5.4400000000000004
aF5.4699999999999998
aI83400
aa(lp1740
g10
(S'\x07\xdb\x0b\x12'
tRp1741
aF5.46
aF5.54
aF5.4500000000000002
aF5.4800000000000004
aI75000
aa(lp1742
g10
(S'\x07\xdb\x0b\x15'
tRp1743
aF5.4000000000000004
aF5.4500000000000002
aF5.3099999999999996
aF5.3600000000000003
aI64600
aa(lp1744
g10
(S'\x07\xdb\x0b\x16'
tRp1745
aF5.3399999999999999
aF5.4500000000000002
aF5.2999999999999998
aF5.3499999999999996
aI41900
aa(lp1746
g10
(S'\x07\xdb\x0b\x17'
tRp1747
aF5.2999999999999998
aF5.3200000000000003
aF5.0899999999999999
aF5.0999999999999996
aI87100
aa(lp1748
g10
(S'\x07\xdb\x0b\x19'
tRp1749
aF5.0499999999999998
aF5.1900000000000004
aF5.0499999999999998
aF5.1100000000000003
aI35400
aa(lp1750
g10
(S'\x07\xdb\x0b\x1c'
tRp1751
aF5.2699999999999996
aF5.3700000000000001
aF5.1900000000000004
aF5.3700000000000001
aI86900
aa(lp1752
g10
(S'\x07\xdb\x0b\x1d'
tRp1753
aF5.3600000000000003
aF5.3899999999999997
aF5.2000000000000002
aF5.2199999999999998
aI36300
aa(lp1754
g10
(S'\x07\xdb\x0b\x1e'
tRp1755
aF5.4199999999999999
aF5.5099999999999998
aF5.3099999999999996
aF5.5099999999999998
aI138000
aa(lp1756
g10
(S'\x07\xdb\x0c\x01'
tRp1757
aF5.4800000000000004
aF5.4800000000000004
aF5.2300000000000004
aF5.3200000000000003
aI57700
aa(lp1758
g10
(S'\x07\xdb\x0c\x02'
tRp1759
aF5.4100000000000001
aF5.46
aF5.3399999999999999
aF5.3899999999999997
aI63900
aa(lp1760
g10
(S'\x07\xdb\x0c\x05'
tRp1761
aF5.4400000000000004
aF5.5
aF5.3799999999999999
aF5.5
aI61800
aa(lp1762
g10
(S'\x07\xdb\x0c\x06'
tRp1763
aF5.4900000000000002
aF5.4900000000000002
aF5.2300000000000004
aF5.4500000000000002
aI59300
aa(lp1764
g10
(S'\x07\xdb\x0c\x07'
tRp1765
aF5.3899999999999997
aF5.5099999999999998
aF5.2599999999999998
aF5.4699999999999998
aI64500
aa(lp1766
g10
(S'\x07\xdb\x0c\x08'
tRp1767
aF5.4500000000000002
aF5.4500000000000002
aF5.21
aF5.2400000000000002
aI47500
aa(lp1768
g10
(S'\x07\xdb\x0c\t'
tRp1769
aF5.2800000000000002
aF5.5
aF5.2800000000000002
aF5.4699999999999998
aI91700
aa(lp1770
g10
(S'\x07\xdb\x0c\x0c'
tRp1771
aF5.4000000000000004
aF5.4199999999999999
aF5.3499999999999996
aF5.3799999999999999
aI39400
aa(lp1772
g10
(S'\x07\xdb\x0c\r'
tRp1773
aF5.4400000000000004
aF5.4699999999999998
aF5
aF5.0800000000000001
aI60600
aa(lp1774
g10
(S'\x07\xdb\x0c\x0e'
tRp1775
aF5.0499999999999998
aF5.4500000000000002
aF5.0499999999999998
aF5.3799999999999999
aI154700
aa(lp1776
g10
(S'\x07\xdb\x0c\x0f'
tRp1777
aF5.4699999999999998
aF5.4900000000000002
aF5.3300000000000001
aF5.4800000000000004
aI61200
aa(lp1778
g10
(S'\x07\xdb\x0c\x10'
tRp1779
aF5.5
aF5.5099999999999998
aF5.3799999999999999
aF5.5099999999999998
aI229000
aa(lp1780
g10
(S'\x07\xdb\x0c\x13'
tRp1781
aF5.5199999999999996
aF5.5199999999999996
aF5.2999999999999998
aF5.3399999999999999
aI87100
aa(lp1782
g10
(S'\x07\xdb\x0c\x14'
tRp1783
aF5.46
aF5.5599999999999996
aF5.46
aF5.5300000000000002
aI120400
aa(lp1784
g10
(S'\x07\xdb\x0c\x15'
tRp1785
aF5.5
aF5.5199999999999996
aF5.3799999999999999
aF5.5099999999999998
aI42100
aa(lp1786
g10
(S'\x07\xdb\x0c\x16'
tRp1787
aF5.5300000000000002
aF5.6900000000000004
aF5.5099999999999998
aF5.6200000000000001
aI100100
aa(lp1788
g10
(S'\x07\xdb\x0c\x17'
tRp1789
aF5.6200000000000001
aF5.6500000000000004
aF5.4699999999999998
aF5.6500000000000004
aI16200
aa(lp1790
g10
(S'\x07\xdb\x0c\x1b'
tRp1791
aF5.6500000000000004
aF5.6500000000000004
aF5.4100000000000001
aF5.46
aI33300
aa(lp1792
g10
(S'\x07\xdb\x0c\x1c'
tRp1793
aF5.4400000000000004
aF5.4400000000000004
aF5.3799999999999999
aF5.4199999999999999
aI106700
aa(lp1794
g10
(S'\x07\xdb\x0c\x1d'
tRp1795
aF5.46
aF5.5
aF5.3899999999999997
aF5.4800000000000004
aI36800
aa(lp1796
g10
(S'\x07\xdb\x0c\x1e'
tRp1797
aF5.4500000000000002
aF5.5599999999999996
aF5.4000000000000004
aF5.5499999999999998
aI71800
aa(lp1798
g10
(S'\x07\xdc\x01\x03'
tRp1799
aF5.6900000000000004
aF5.6900000000000004
aF5.5
aF5.6500000000000004
aI50700
aa(lp1800
g10
(S'\x07\xdc\x01\x04'
tRp1801
aF5.5899999999999999
aF5.6500000000000004
aF5.4699999999999998
aF5.6399999999999997
aI30300
aa(lp1802
g10
(S'\x07\xdc\x01\x05'
tRp1803
aF5.5800000000000001
aF5.7699999999999996
aF5.5099999999999998
aF5.7699999999999996
aI21100
aa(lp1804
g10
(S'\x07\xdc\x01\x06'
tRp1805
aF5.7999999999999998
aF5.8700000000000001
aF5.5800000000000001
aF5.6100000000000003
aI84900
aa(lp1806
g10
(S'\x07\xdc\x01\t'
tRp1807
aF5.6500000000000004
aF5.8499999999999996
aF5.5099999999999998
aF5.7000000000000002
aI44000
aa(lp1808
g10
(S'\x07\xdc\x01\n'
tRp1809
aF5.79
aF5.79
aF5.6900000000000004
aF5.75
aI24700
aa(lp1810
g10
(S'\x07\xdc\x01\x0b'
tRp1811
aF5.75
aF5.7999999999999998
aF5.6399999999999997
aF5.7800000000000002
aI24100
aa(lp1812
g10
(S'\x07\xdc\x01\x0c'
tRp1813
aF5.7999999999999998
aF5.7999999999999998
aF5.6799999999999997
aF5.7999999999999998
aI40400
aa(lp1814
g10
(S'\x07\xdc\x01\r'
tRp1815
aF5.7000000000000002
aF5.8300000000000001
aF5.6699999999999999
aF5.8099999999999996
aI17900
aa(lp1816
g10
(S'\x07\xdc\x01\x11'
tRp1817
aF5.8499999999999996
aF5.8899999999999997
aF5.7300000000000004
aF5.8099999999999996
aI58300
aa(lp1818
g10
(S'\x07\xdc\x01\x12'
tRp1819
aF5.79
aF5.96
aF5.75
aF5.9400000000000004
aI43300
aa(lp1820
g10
(S'\x07\xdc\x01\x13'
tRp1821
aF5.9400000000000004
aF5.96
aF5.8499999999999996
aF5.9400000000000004
aI15800
aa(lp1822
g10
(S'\x07\xdc\x01\x14'
tRp1823
aF5.9199999999999999
aF6.0499999999999998
aF5.9100000000000001
aF6.04
aI47900
aa(lp1824
g10
(S'\x07\xdc\x01\x17'
tRp1825
aF6.0300000000000002
aF6.0800000000000001
aF5.9800000000000004
aF6.0700000000000003
aI41400
aa(lp1826
g10
(S'\x07\xdc\x01\x18'
tRp1827
aF6.0099999999999998
aF6.0700000000000003
aF5.9500000000000002
aF6.04
aI121800
aa(lp1828
g10
(S'\x07\xdc\x01\x19'
tRp1829
aF6
aF6.0899999999999999
aF5.96
aF6.0499999999999998
aI76700
aa(lp1830
g10
(S'\x07\xdc\x01\x1a'
tRp1831
aF6.0800000000000001
aF6.0999999999999996
aF5.9800000000000004
aF6.0700000000000003
aI32900
aa(lp1832
g10
(S'\x07\xdc\x01\x1b'
tRp1833
aF6.0300000000000002
aF6.0899999999999999
aF5.9800000000000004
aF6.0099999999999998
aI108500
aa(lp1834
g10
(S'\x07\xdc\x01\x1e'
tRp1835
aF5.9699999999999998
aF5.9800000000000004
aF5.9000000000000004
aF5.9000000000000004
aI23800
aa(lp1836
g10
(S'\x07\xdc\x01\x1f'
tRp1837
aF5.96
aF5.96
aF5.71
aF5.7599999999999998
aI28300
aa(lp1838
g10
(S'\x07\xdc\x02\x01'
tRp1839
aF5.8099999999999996
aF5.9100000000000001
aF5.75
aF5.9000000000000004
aI120200
aa(lp1840
g10
(S'\x07\xdc\x02\x02'
tRp1841
aF5.9199999999999999
aF5.9199999999999999
aF5.7400000000000002
aF5.8099999999999996
aI235900
aa(lp1842
g10
(S'\x07\xdc\x02\x03'
tRp1843
aF5.8899999999999997
aF6.3099999999999996
aF5.8200000000000003
aF6.29
aI129000
aa(lp1844
g10
(S'\x07\xdc\x02\x06'
tRp1845
aF6.2400000000000002
aF6.2599999999999998
aF6.0499999999999998
aF6.2000000000000002
aI41800
aa(lp1846
g10
(S'\x07\xdc\x02\x07'
tRp1847
aF6.2000000000000002
aF6.2999999999999998
aF6.1500000000000004
aF6.2000000000000002
aI16100
aa(lp1848
g10
(S'\x07\xdc\x02\x08'
tRp1849
aF6.1900000000000004
aF6.3300000000000001
aF6.0099999999999998
aF6.29
aI37600
aa(lp1850
g10
(S'\x07\xdc\x02\t'
tRp1851
aF6.29
aF6.29
aF5.9100000000000001
aF5.9400000000000004
aI109500
aa(lp1852
g10
(S'\x07\xdc\x02\n'
tRp1853
aF5.9000000000000004
aF5.9000000000000004
aF5.7800000000000002
aF5.79
aI40500
aa(lp1854
g10
(S'\x07\xdc\x02\r'
tRp1855
aF5.8399999999999999
aF5.9400000000000004
aF5.8200000000000003
aF5.8600000000000003
aI18300
aa(lp1856
g10
(S'\x07\xdc\x02\x0e'
tRp1857
aF5.7800000000000002
aF5.8700000000000001
aF5.75
aF5.8200000000000003
aI58400
aa(lp1858
g10
(S'\x07\xdc\x02\x0f'
tRp1859
aF5.8499999999999996
aF6
aF5.7800000000000002
aF5.8899999999999997
aI58000
aa(lp1860
g10
(S'\x07\xdc\x02\x10'
tRp1861
aF5.9100000000000001
aF6
aF5.9100000000000001
aF6
aI93900
aa(lp1862
g10
(S'\x07\xdc\x02\x11'
tRp1863
aF6
aF6
aF5.9400000000000004
aF5.9800000000000004
aI69900
aa(lp1864
g10
(S'\x07\xdc\x02\x15'
tRp1865
aF5.9800000000000004
aF6
aF5.9299999999999997
aF5.9699999999999998
aI62400
aa(lp1866
g10
(S'\x07\xdc\x02\x16'
tRp1867
aF5.9100000000000001
aF6
aF5.9100000000000001
aF5.9199999999999999
aI62300
aa(lp1868
g10
(S'\x07\xdc\x02\x17'
tRp1869
aF5.9000000000000004
aF6
aF5.8799999999999999
aF6
aI65800
aa(lp1870
g10
(S'\x07\xdc\x02\x18'
tRp1871
aF6
aF6
aF5.9400000000000004
aF5.9699999999999998
aI37100
aa(lp1872
g10
(S'\x07\xdc\x02\x1b'
tRp1873
aF5.9500000000000002
aF6
aF5.9500000000000002
aF5.9900000000000002
aI29200
aa(lp1874
g10
(S'\x07\xdc\x02\x1c'
tRp1875
aF6
aF6
aF5.96
aF5.9900000000000002
aI65300
aa(lp1876
g10
(S'\x07\xdc\x02\x1d'
tRp1877
aF6
aF6
aF5.8700000000000001
aF5.9000000000000004
aI98200
aa(lp1878
g10
(S'\x07\xdc\x03\x01'
tRp1879
aF5.9299999999999997
aF6
aF5.9100000000000001
aF5.9400000000000004
aI94900
aa(lp1880
g10
(S'\x07\xdc\x03\x02'
tRp1881
aF5.9699999999999998
aF5.9800000000000004
aF5.9199999999999999
aF5.9299999999999997
aI177500
aa(lp1882
g10
(S'\x07\xdc\x03\x05'
tRp1883
aF5.9000000000000004
aF5.9900000000000002
aF5.8399999999999999
aF5.9199999999999999
aI53000
aa(lp1884
g10
(S'\x07\xdc\x03\x06'
tRp1885
aF5.8799999999999999
aF5.8799999999999999
aF5.7800000000000002
aF5.79
aI55500
aa(lp1886
g10
(S'\x07\xdc\x03\x07'
tRp1887
aF5.8399999999999999
aF6
aF5.7199999999999998
aF6
aI137700
aa(lp1888
g10
(S'\x07\xdc\x03\x08'
tRp1889
aF6.0199999999999996
aF6.1200000000000001
aF5.9199999999999999
aF6.0700000000000003
aI218500
aa(lp1890
g10
(S'\x07\xdc\x03\t'
tRp1891
aF6.0700000000000003
aF6.2400000000000002
aF5.9500000000000002
aF6.1299999999999999
aI82900
aa(lp1892
g10
(S'\x07\xdc\x03\x0c'
tRp1893
aF6.1399999999999997
aF6.21
aF6.0899999999999999
aF6.1600000000000001
aI40100
aa(lp1894
g10
(S'\x07\xdc\x03\r'
tRp1895
aF6.1900000000000004
aF6.3200000000000003
aF6.1399999999999997
aF6.3099999999999996
aI84800
aa(lp1896
g10
(S'\x07\xdc\x03\x0e'
tRp1897
aF6.25
aF6.3099999999999996
aF6.0700000000000003
aF6.2400000000000002
aI30300
aa(lp1898
g10
(S'\x07\xdc\x03\x0f'
tRp1899
aF6.2400000000000002
aF6.2699999999999996
aF6.1200000000000001
aF6.21
aI39400
aa(lp1900
g10
(S'\x07\xdc\x03\x10'
tRp1901
aF6.2300000000000004
aF6.2300000000000004
aF6.1100000000000003
aF6.2199999999999998
aI123200
aa(lp1902
g10
(S'\x07\xdc\x03\x13'
tRp1903
aF6.2199999999999998
aF6.29
aF6.1799999999999997
aF6.2800000000000002
aI86400
aa(lp1904
g10
(S'\x07\xdc\x03\x14'
tRp1905
aF6.2400000000000002
aF6.2999999999999998
aF6.2000000000000002
aF6.2000000000000002
aI25000
aa(lp1906
g10
(S'\x07\xdc\x03\x15'
tRp1907
aF6.2400000000000002
aF6.2699999999999996
aF6.1600000000000001
aF6.1799999999999997
aI25000
aa(lp1908
g10
(S'\x07\xdc\x03\x16'
tRp1909
aF6.1200000000000001
aF6.1600000000000001
aF5.9199999999999999
aF5.9199999999999999
aI41000
aa(lp1910
g10
(S'\x07\xdc\x03\x17'
tRp1911
aF5.9100000000000001
aF6.1100000000000003
aF5.9000000000000004
aF6.0999999999999996
aI24500
aa(lp1912
g10
(S'\x07\xdc\x03\x1a'
tRp1913
aF6.1799999999999997
aF6.3600000000000003
aF6.1399999999999997
aF6.2699999999999996
aI79000
aa(lp1914
g10
(S'\x07\xdc\x03\x1b'
tRp1915
aF6.29
aF6.3300000000000001
aF6.1600000000000001
aF6.1799999999999997
aI36600
aa(lp1916
g10
(S'\x07\xdc\x03\x1c'
tRp1917
aF6.1799999999999997
aF6.1900000000000004
aF6.0099999999999998
aF6.04
aI68900
aa(lp1918
g10
(S'\x07\xdc\x03\x1d'
tRp1919
aF6
aF6.1200000000000001
aF5.9699999999999998
aF6.0599999999999996
aI23100
aa(lp1920
g10
(S'\x07\xdc\x03\x1e'
tRp1921
aF6.1100000000000003
aF6.1100000000000003
aF6.0099999999999998
aF6.0499999999999998
aI52800
aa(lp1922
g10
(S'\x07\xdc\x04\x02'
tRp1923
aF6.0499999999999998
aF6.3899999999999997
aF6.0499999999999998
aF6.2999999999999998
aI46900
aa(lp1924
g10
(S'\x07\xdc\x04\x03'
tRp1925
aF6.29
aF6.3099999999999996
aF6.0499999999999998
aF6.1399999999999997
aI71300
aa(lp1926
g10
(S'\x07\xdc\x04\x04'
tRp1927
aF6.0499999999999998
aF6.1600000000000001
aF6.0300000000000002
aF6.0999999999999996
aI40900
aa(lp1928
g10
(S'\x07\xdc\x04\x05'
tRp1929
aF6.0599999999999996
aF6.2000000000000002
aF6.0499999999999998
aF6.0499999999999998
aI19400
aa(lp1930
g10
(S'\x07\xdc\x04\t'
tRp1931
aF6.0499999999999998
aF6.0899999999999999
aF6
aF6.0199999999999996
aI48300
aa(lp1932
g10
(S'\x07\xdc\x04\n'
tRp1933
aF6.0199999999999996
aF6.04
aF5.8300000000000001
aF5.8399999999999999
aI78400
aa(lp1934
g10
(S'\x07\xdc\x04\x0b'
tRp1935
aF5.9199999999999999
aF6.0499999999999998
aF5.8099999999999996
aF5.9199999999999999
aI43400
aa(lp1936
g10
(S'\x07\xdc\x04\x0c'
tRp1937
aF5.8799999999999999
aF5.96
aF5.8700000000000001
aF5.9199999999999999
aI30800
aa(lp1938
g10
(S'\x07\xdc\x04\r'
tRp1939
aF5.8799999999999999
aF5.9299999999999997
aF5.7999999999999998
aF5.7999999999999998
aI34200
aa(lp1940
g10
(S'\x07\xdc\x04\x10'
tRp1941
aF5.8200000000000003
aF5.9699999999999998
aF5.75
aF5.9100000000000001
aI22800
aa(lp1942
g10
(S'\x07\xdc\x04\x11'
tRp1943
aF5.9800000000000004
aF6.1500000000000004
aF5.96
aF6.0300000000000002
aI81000
aa(lp1944
g10
(S'\x07\xdc\x04\x12'
tRp1945
aF6
aF6.04
aF5.9000000000000004
aF5.9400000000000004
aI22400
aa(lp1946
g10
(S'\x07\xdc\x04\x13'
tRp1947
aF5.96
aF6.0499999999999998
aF5.8499999999999996
aF5.8499999999999996
aI41600
aa(lp1948
g10
(S'\x07\xdc\x04\x14'
tRp1949
aF6.0300000000000002
aF6.0800000000000001
aF5.9100000000000001
aF5.9699999999999998
aI49000
aa(lp1950
g10
(S'\x07\xdc\x04\x17'
tRp1951
aF5.9100000000000001
aF6
aF5.75
aF5.7699999999999996
aI47700
aa(lp1952
g10
(S'\x07\xdc\x04\x18'
tRp1953
aF5.79
aF6.0700000000000003
aF5.79
aF6.0499999999999998
aI122300
aa(lp1954
g10
(S'\x07\xdc\x04\x19'
tRp1955
aF6.0999999999999996
aF6.1299999999999999
aF6.0599999999999996
aF6.0999999999999996
aI29400
aa(lp1956
g10
(S'\x07\xdc\x04\x1a'
tRp1957
aF6.0700000000000003
aF6.1500000000000004
aF6.0599999999999996
aF6.0999999999999996
aI21300
aa(lp1958
g10
(S'\x07\xdc\x04\x1b'
tRp1959
aF6.1399999999999997
aF6.2300000000000004
aF5.8300000000000001
aF6.21
aI73000
aa(lp1960
g10
(S'\x07\xdc\x04\x1e'
tRp1961
aF6.21
aF6.21
aF6.0300000000000002
aF6.0599999999999996
aI26900
aa(lp1962
g10
(S'\x07\xdc\x05\x01'
tRp1963
aF6.0499999999999998
aF6.2400000000000002
aF5.9800000000000004
aF5.9900000000000002
aI82000
aa(lp1964
g10
(S'\x07\xdc\x05\x02'
tRp1965
aF5.9500000000000002
aF6
aF5.8300000000000001
aF5.8899999999999997
aI32000
aa(lp1966
g10
(S'\x07\xdc\x05\x03'
tRp1967
aF5.8700000000000001
aF5.9199999999999999
aF5.7800000000000002
aF5.8600000000000003
aI38000
aa(lp1968
g10
(S'\x07\xdc\x05\x04'
tRp1969
aF5.8499999999999996
aF5.9400000000000004
aF5.8099999999999996
aF5.8300000000000001
aI64200
aa(lp1970
g10
(S'\x07\xdc\x05\x07'
tRp1971
aF5.8300000000000001
aF5.9000000000000004
aF5.7699999999999996
aF5.8099999999999996
aI18300
aa(lp1972
g10
(S'\x07\xdc\x05\x08'
tRp1973
aF5.79
aF6.0099999999999998
aF5.79
aF5.9000000000000004
aI30400
aa(lp1974
g10
(S'\x07\xdc\x05\t'
tRp1975
aF5.8300000000000001
aF5.8600000000000003
aF5.7800000000000002
aF5.79
aI23800
aa(lp1976
g10
(S'\x07\xdc\x05\n'
tRp1977
aF5.8399999999999999
aF5.9000000000000004
aF5.7599999999999998
aF5.7999999999999998
aI15000
aa(lp1978
g10
(S'\x07\xdc\x05\x0b'
tRp1979
aF5.7800000000000002
aF5.8099999999999996
aF5.7400000000000002
aF5.7999999999999998
aI43700
aa(lp1980
g10
(S'\x07\xdc\x05\x0e'
tRp1981
aF5.7400000000000002
aF5.9400000000000004
aF5.71
aF5.9000000000000004
aI53000
aa(lp1982
g10
(S'\x07\xdc\x05\x0f'
tRp1983
aF5.8799999999999999
aF5.9800000000000004
aF5.8600000000000003
aF5.9299999999999997
aI43700
aa(lp1984
g10
(S'\x07\xdc\x05\x10'
tRp1985
aF5.9400000000000004
aF6
aF5.8499999999999996
aF5.9500000000000002
aI63000
aa(lp1986
g10
(S'\x07\xdc\x05\x11'
tRp1987
aF5.9299999999999997
aF5.9800000000000004
aF5.8700000000000001
aF5.9199999999999999
aI48500
aa(lp1988
g10
(S'\x07\xdc\x05\x12'
tRp1989
aF5.8899999999999997
aF6
aF5.7800000000000002
aF5.8300000000000001
aI55000
aasS'dailyUpdate'
p1990
g10
(S'\x07\xdc\x05\x13'
tRp1991
sS'weeklyUpdate'
p1992
g10
(S'\x07\xb3\x01\x01'
tRp1993
sS'detail'
p1994
S'NASDAQ'
p1995
sS'abbreviation'
p1996
S'FUBC'
p1997
sS'dataSource'
p1998
S'Yahoo'
p1999
sS'previousValues'
p2000
(lp2001
sS'financialType'
p2002
S'stock'
p2003
sS'monthlyUpdate'
p2004
g10
(S'\x07\xb3\x01\x01'
tRp2005
sba.