(lp1
ccopy_reg
_reconstructor
p2
(cDataParserModule.dataParser
FinancialObject
p3
c__builtin__
object
p4
NtRp5
(dp6
S'valuesMonthly'
p7
(lp8
sS'lastUpdate'
p9
cdatetime
date
p10
(S'\x07\xb3\x01\x01'
tRp11
sS'currentValue'
p12
(lp13
sS'name'
p14
S'CZECH 10Y BOND YIELD'
p15
sS'valuesWeekly'
p16
(lp17
sS'weeklyUpdate'
p18
g10
(S'\x07\xb3\x01\x01'
tRp19
sS'valuesDaily'
p20
(lp21
(lp22
g10
(S'\x07\xd5\x0b\x1c'
tRp23
aF3.649
aF3.6589999999999998
aF3.649
aF3.6589999999999998
aa(lp24
g10
(S'\x07\xd5\x0b\x1d'
tRp25
aF3.6629999999999998
aF3.6640000000000001
aF3.6269999999999998
aF3.6549999999999998
aa(lp26
g10
(S'\x07\xd5\x0b\x1e'
tRp27
aF3.6539999999999999
aF3.6640000000000001
aF3.6539999999999999
aF3.6640000000000001
aa(lp28
g10
(S'\x07\xd5\x0c\x01'
tRp29
aF3.665
aF3.669
aF3.6280000000000001
aF3.6280000000000001
aa(lp30
g10
(S'\x07\xd5\x0c\x02'
tRp31
aF3.6280000000000001
aF3.6309999999999998
aF3.6219999999999999
aF3.6219999999999999
aa(lp32
g10
(S'\x07\xd5\x0c\x05'
tRp33
aF3.6230000000000002
aF3.6379999999999999
aF3.6230000000000002
aF3.6379999999999999
aa(lp34
g10
(S'\x07\xd5\x0c\x06'
tRp35
aF3.6379999999999999
aF3.6400000000000001
aF3.6190000000000002
aF3.6190000000000002
aa(lp36
g10
(S'\x07\xd5\x0c\x07'
tRp37
aF3.6190000000000002
aF3.629
aF3.6190000000000002
aF3.629
aa(lp38
g10
(S'\x07\xd5\x0c\x08'
tRp39
aF3.629
aF3.6299999999999999
aF3.6219999999999999
aF3.6219999999999999
aa(lp40
g10
(S'\x07\xd5\x0c\t'
tRp41
aF3.621
aF3.6579999999999999
aF3.621
aF3.6509999999999998
aa(lp42
g10
(S'\x07\xd5\x0c\x0c'
tRp43
aF3.6520000000000001
aF3.6640000000000001
aF3.6520000000000001
aF3.6640000000000001
aa(lp44
g10
(S'\x07\xd5\x0c\r'
tRp45
aF3.6629999999999998
aF3.681
aF3.6629999999999998
aF3.6800000000000002
aa(lp46
g10
(S'\x07\xd5\x0c\x0e'
tRp47
aF3.6819999999999999
aF3.6819999999999999
aF3.6520000000000001
aF3.6579999999999999
aa(lp48
g10
(S'\x07\xd5\x0c\x0f'
tRp49
aF3.6579999999999999
aF3.6579999999999999
aF3.6499999999999999
aF3.6579999999999999
aa(lp50
g10
(S'\x07\xd5\x0c\x10'
tRp51
aF3.6579999999999999
aF3.6579999999999999
aF3.6499999999999999
aF3.6579999999999999
aa(lp52
g10
(S'\x07\xd5\x0c\x13'
tRp53
aF3.625
aF3.6579999999999999
aF3.625
aF3.657
aa(lp54
g10
(S'\x07\xd5\x0c\x14'
tRp55
aF3.6579999999999999
aF3.7029999999999998
aF3.649
aF3.702
aa(lp56
g10
(S'\x07\xd5\x0c\x15'
tRp57
aF3.7029999999999998
aF3.7029999999999998
aF3.6840000000000002
aF3.702
aa(lp58
g10
(S'\x07\xd5\x0c\x16'
tRp59
aF3.7029999999999998
aF3.7029999999999998
aF3.6880000000000002
aF3.702
aa(lp60
g10
(S'\x07\xd5\x0c\x17'
tRp61
aF3.7029999999999998
aF3.7029999999999998
aF3.6850000000000001
aF3.702
aa(lp62
g10
(S'\x07\xd5\x0c\x1a'
tRp63
aF3.702
aF3.702
aF3.702
aF3.702
aa(lp64
g10
(S'\x07\xd5\x0c\x1b'
tRp65
aF3.7029999999999998
aF3.7029999999999998
aF3.6840000000000002
aF3.702
aa(lp66
g10
(S'\x07\xd5\x0c\x1c'
tRp67
aF3.6360000000000001
aF3.702
aF3.6240000000000001
aF3.702
aa(lp68
g10
(S'\x07\xd5\x0c\x1d'
tRp69
aF3.6120000000000001
aF3.702
aF3.6120000000000001
aF3.702
aa(lp70
g10
(S'\x07\xd5\x0c\x1e'
tRp71
aF3.6110000000000002
aF3.702
aF3.6110000000000002
aF3.702
aa(lp72
g10
(S'\x07\xd6\x01\x02'
tRp73
aF3.702
aF3.702
aF3.681
aF3.702
aa(lp74
g10
(S'\x07\xd6\x01\x03'
tRp75
aF3.702
aF3.702
aF3.6779999999999999
aF3.702
aa(lp76
g10
(S'\x07\xd6\x01\x04'
tRp77
aF3.6040000000000001
aF3.6040000000000001
aF3.4969999999999999
aF3.4980000000000002
aa(lp78
g10
(S'\x07\xd6\x01\x05'
tRp79
aF3.4980000000000002
aF3.5089999999999999
aF3.452
aF3.4540000000000002
aa(lp80
g10
(S'\x07\xd6\x01\x06'
tRp81
aF3.6040000000000001
aF3.6040000000000001
aF3.4209999999999998
aF3.4220000000000002
aa(lp82
g10
(S'\x07\xd6\x01\t'
tRp83
aF3.3849999999999998
aF3.3889999999999998
aF3.383
aF3.383
aa(lp84
g10
(S'\x07\xd6\x01\n'
tRp85
aF3.383
aF3.4289999999999998
aF3.383
aF3.423
aa(lp86
g10
(S'\x07\xd6\x01\x0b'
tRp87
aF3.4209999999999998
aF3.4289999999999998
aF3.4209999999999998
aF3.4209999999999998
aa(lp88
g10
(S'\x07\xd6\x01\x0c'
tRp89
aF3.4199999999999999
aF3.4239999999999999
aF3.3809999999999998
aF3.3849999999999998
aa(lp90
g10
(S'\x07\xd6\x01\r'
tRp91
aF3.3740000000000001
aF3.3759999999999999
aF3.367
aF3.3690000000000002
aa(lp92
g10
(S'\x07\xd6\x01\x10'
tRp93
aF3.3679999999999999
aF3.3679999999999999
aF3.2770000000000001
aF3.2770000000000001
aa(lp94
g10
(S'\x07\xd6\x01\x11'
tRp95
aF3.2770000000000001
aF3.2999999999999998
aF3.2669999999999999
aF3.2970000000000002
aa(lp96
g10
(S'\x07\xd6\x01\x12'
tRp97
aF3.2919999999999998
aF3.343
aF3.2730000000000001
aF3.339
aa(lp98
g10
(S'\x07\xd6\x01\x13'
tRp99
aF3.3380000000000001
aF3.3559999999999999
aF3.3380000000000001
aF3.3490000000000002
aa(lp100
g10
(S'\x07\xd6\x01\x14'
tRp101
aF3.3479999999999999
aF3.359
aF3.3090000000000002
aF3.3090000000000002
aa(lp102
g10
(S'\x07\xd6\x01\x17'
tRp103
aF3.3140000000000001
aF3.3460000000000001
aF3.2909999999999999
aF3.3220000000000001
aa(lp104
g10
(S'\x07\xd6\x01\x18'
tRp105
aF3.323
aF3.3359999999999999
aF3.3220000000000001
aF3.3330000000000002
aa(lp106
g10
(S'\x07\xd6\x01\x19'
tRp107
aF3.331
aF3.3540000000000001
aF3.3300000000000001
aF3.3300000000000001
aa(lp108
g10
(S'\x07\xd6\x01\x1a'
tRp109
aF3.331
aF3.391
aF3.331
aF3.3900000000000001
aa(lp110
g10
(S'\x07\xd6\x01\x1b'
tRp111
aF3.3900000000000001
aF3.4140000000000001
aF3.3879999999999999
aF3.4100000000000001
aa(lp112
g10
(S'\x07\xd6\x01\x1e'
tRp113
aF3.4100000000000001
aF3.4140000000000001
aF3.4089999999999998
aF3.4089999999999998
aa(lp114
g10
(S'\x07\xd6\x01\x1f'
tRp115
aF3.4079999999999999
aF3.4609999999999999
aF3.4079999999999999
aF3.4569999999999999
aa(lp116
g10
(S'\x07\xd6\x02\x01'
tRp117
aF3.4550000000000001
aF3.5110000000000001
aF3.4529999999999998
aF3.4700000000000002
aa(lp118
g10
(S'\x07\xd6\x02\x02'
tRp119
aF3.4750000000000001
aF3.5649999999999999
aF3.4700000000000002
aF3.5640000000000001
aa(lp120
g10
(S'\x07\xd6\x02\x03'
tRp121
aF3.5640000000000001
aF3.5640000000000001
aF3.5230000000000001
aF3.5230000000000001
aa(lp122
g10
(S'\x07\xd6\x02\x06'
tRp123
aF3.5110000000000001
aF3.5150000000000001
aF3.496
aF3.4969999999999999
aa(lp124
g10
(S'\x07\xd6\x02\x07'
tRp125
aF3.496
aF3.5
aF3.4849999999999999
aF3.4849999999999999
aa(lp126
g10
(S'\x07\xd6\x02\x08'
tRp127
aF3.4830000000000001
aF3.4900000000000002
aF3.4830000000000001
aF3.4870000000000001
aa(lp128
g10
(S'\x07\xd6\x02\t'
tRp129
aF3.4820000000000002
aF3.4889999999999999
aF3.4620000000000002
aF3.4649999999999999
aa(lp130
g10
(S'\x07\xd6\x02\n'
tRp131
aF3.4609999999999999
aF3.464
aF3.4500000000000002
aF3.4500000000000002
aa(lp132
g10
(S'\x07\xd6\x02\r'
tRp133
aF3.4500000000000002
aF3.4590000000000001
aF3.4500000000000002
aF3.4500000000000002
aa(lp134
g10
(S'\x07\xd6\x02\x0e'
tRp135
aF3.4489999999999998
aF3.4550000000000001
aF3.4399999999999999
aF3.4399999999999999
aa(lp136
g10
(S'\x07\xd6\x02\x0f'
tRp137
aF3.4380000000000002
aF3.4399999999999999
aF3.3929999999999998
aF3.4169999999999998
aa(lp138
g10
(S'\x07\xd6\x02\x10'
tRp139
aF3.4169999999999998
aF3.4169999999999998
aF3.343
aF3.3439999999999999
aa(lp140
g10
(S'\x07\xd6\x02\x11'
tRp141
aF3.343
aF3.3500000000000001
aF3.343
aF3.343
aa(lp142
g10
(S'\x07\xd6\x02\x14'
tRp143
aF3.3439999999999999
aF3.3519999999999999
aF3.327
aF3.327
aa(lp144
g10
(S'\x07\xd6\x02\x15'
tRp145
aF3.3319999999999999
aF3.3620000000000001
aF3.327
aF3.3380000000000001
aa(lp146
g10
(S'\x07\xd6\x02\x16'
tRp147
aF3.3420000000000001
aF3.395
aF3.3380000000000001
aF3.3559999999999999
aa(lp148
g10
(S'\x07\xd6\x02\x17'
tRp149
aF3.3610000000000002
aF3.4449999999999998
aF3.3570000000000002
aF3.4369999999999998
aa(lp150
g10
(S'\x07\xd6\x02\x18'
tRp151
aF3.4540000000000002
aF3.4540000000000002
aF3.427
aF3.4289999999999998
aa(lp152
g10
(S'\x07\xd6\x02\x1b'
tRp153
aF3.4289999999999998
aF3.4449999999999998
aF3.4289999999999998
aF3.4430000000000001
aa(lp154
g10
(S'\x07\xd6\x02\x1c'
tRp155
aF3.4420000000000002
aF3.4620000000000002
aF3.4220000000000002
aF3.4220000000000002
aa(lp156
g10
(S'\x07\xd6\x03\x01'
tRp157
aF3.4220000000000002
aF3.4630000000000001
aF3.4220000000000002
aF3.4380000000000002
aa(lp158
g10
(S'\x07\xd6\x03\x02'
tRp159
aF3.4470000000000001
aF3.5179999999999998
aF3.4380000000000002
aF3.4649999999999999
aa(lp160
g10
(S'\x07\xd6\x03\x03'
tRp161
aF3.4700000000000002
aF3.5150000000000001
aF3.4689999999999999
aF3.4849999999999999
aa(lp162
g10
(S'\x07\xd6\x03\x06'
tRp163
aF3.4950000000000001
aF3.52
aF3.488
aF3.4950000000000001
aa(lp164
g10
(S'\x07\xd6\x03\x07'
tRp165
aF3.5070000000000001
aF3.5590000000000002
aF3.5009999999999999
aF3.5150000000000001
aa(lp166
g10
(S'\x07\xd6\x03\x08'
tRp167
aF3.5099999999999998
aF3.536
aF3.5059999999999998
aF3.5129999999999999
aa(lp168
g10
(S'\x07\xd6\x03\t'
tRp169
aF3.5259999999999998
aF3.5739999999999998
aF3.5179999999999998
aF3.5489999999999999
aa(lp170
g10
(S'\x07\xd6\x03\n'
tRp171
aF3.5739999999999998
aF3.5950000000000002
aF3.5510000000000002
aF3.5640000000000001
aa(lp172
g10
(S'\x07\xd6\x03\r'
tRp173
aF3.5939999999999999
aF3.6190000000000002
aF3.5939999999999999
aF3.6040000000000001
aa(lp174
g10
(S'\x07\xd6\x03\x0e'
tRp175
aF3.613
aF3.629
aF3.6040000000000001
aF3.6040000000000001
aa(lp176
g10
(S'\x07\xd6\x03\x0f'
tRp177
aF3.6040000000000001
aF3.6040000000000001
aF3.5859999999999999
aF3.5859999999999999
aa(lp178
g10
(S'\x07\xd6\x03\x10'
tRp179
aF3.6070000000000002
aF3.6379999999999999
aF3.585
aF3.5899999999999999
aa(lp180
g10
(S'\x07\xd6\x03\x11'
tRp181
aF3.5910000000000002
aF3.5960000000000001
aF3.5649999999999999
aF3.5790000000000002
aa(lp182
g10
(S'\x07\xd6\x03\x14'
tRp183
aF3.5790000000000002
aF3.6200000000000001
aF3.5790000000000002
aF3.589
aa(lp184
g10
(S'\x07\xd6\x03\x15'
tRp185
aF3.6139999999999999
aF3.6139999999999999
aF3.5920000000000001
aF3.5950000000000002
aa(lp186
g10
(S'\x07\xd6\x03\x16'
tRp187
aF3.6030000000000002
aF3.6429999999999998
aF3.5960000000000001
aF3.6019999999999999
aa(lp188
g10
(S'\x07\xd6\x03\x17'
tRp189
aF3.609
aF3.609
aF3.5880000000000001
aF3.5920000000000001
aa(lp190
g10
(S'\x07\xd6\x03\x18'
tRp191
aF3.6000000000000001
aF3.6099999999999999
aF3.585
aF3.585
aa(lp192
g10
(S'\x07\xd6\x03\x1b'
tRp193
aF3.5939999999999999
aF3.5939999999999999
aF3.5840000000000001
aF3.5840000000000001
aa(lp194
g10
(S'\x07\xd6\x03\x1c'
tRp195
aF3.5960000000000001
aF3.6539999999999999
aF3.5870000000000002
aF3.6469999999999998
aa(lp196
g10
(S'\x07\xd6\x03\x1d'
tRp197
aF3.6469999999999998
aF3.7130000000000001
aF3.6459999999999999
aF3.698
aa(lp198
g10
(S'\x07\xd6\x03\x1e'
tRp199
aF3.7109999999999999
aF3.7549999999999999
aF3.7040000000000002
aF3.7250000000000001
aa(lp200
g10
(S'\x07\xd6\x03\x1f'
tRp201
aF3.734
aF3.7400000000000002
aF3.702
aF3.702
aa(lp202
g10
(S'\x07\xd6\x04\x03'
tRp203
aF3.7120000000000002
aF3.7480000000000002
aF3.7120000000000002
aF3.7389999999999999
aa(lp204
g10
(S'\x07\xd6\x04\x04'
tRp205
aF3.746
aF3.7690000000000001
aF3.738
aF3.738
aa(lp206
g10
(S'\x07\xd6\x04\x05'
tRp207
aF3.7530000000000001
aF3.7989999999999999
aF3.7530000000000001
aF3.7690000000000001
aa(lp208
g10
(S'\x07\xd6\x04\x06'
tRp209
aF3.7749999999999999
aF3.8260000000000001
aF3.7599999999999998
aF3.7890000000000001
aa(lp210
g10
(S'\x07\xd6\x04\x07'
tRp211
aF3.7949999999999999
aF3.8199999999999998
aF3.7949999999999999
aF3.8039999999999998
aa(lp212
g10
(S'\x07\xd6\x04\n'
tRp213
aF3.8050000000000002
aF3.839
aF3.8039999999999998
aF3.831
aa(lp214
g10
(S'\x07\xd6\x04\x0b'
tRp215
aF3.8370000000000002
aF3.8450000000000002
aF3.802
aF3.8029999999999999
aa(lp216
g10
(S'\x07\xd6\x04\x0c'
tRp217
aF3.7890000000000001
aF3.79
aF3.7730000000000001
aF3.7730000000000001
aa(lp218
g10
(S'\x07\xd6\x04\r'
tRp219
aF3.778
aF3.8519999999999999
aF3.7759999999999998
aF3.8319999999999999
aa(lp220
g10
(S'\x07\xd6\x04\x0e'
tRp221
aF3.8410000000000002
aF3.8849999999999998
aF3.835
aF3.875
aa(lp222
g10
(S'\x07\xd6\x04\x11'
tRp223
aF3.875
aF3.875
aF3.867
aF3.8730000000000002
aa(lp224
g10
(S'\x07\xd6\x04\x12'
tRp225
aF3.871
aF3.8900000000000001
aF3.8690000000000002
aF3.8740000000000001
aa(lp226
g10
(S'\x07\xd6\x04\x13'
tRp227
aF3.9009999999999998
aF3.927
aF3.871
aF3.899
aa(lp228
g10
(S'\x07\xd6\x04\x14'
tRp229
aF3.9100000000000001
aF3.923
aF3.9049999999999998
aF3.9100000000000001
aa(lp230
g10
(S'\x07\xd6\x04\x15'
tRp231
aF3.915
aF3.9239999999999999
aF3.8969999999999998
aF3.8980000000000001
aa(lp232
g10
(S'\x07\xd6\x04\x18'
tRp233
aF3.891
aF3.9049999999999998
aF3.8639999999999999
aF3.8969999999999998
aa(lp234
g10
(S'\x07\xd6\x04\x19'
tRp235
aF3.9020000000000001
aF3.9359999999999999
aF3.8959999999999999
aF3.9289999999999998
aa(lp236
g10
(S'\x07\xd6\x04\x1a'
tRp237
aF3.927
aF3.9700000000000002
aF3.927
aF3.944
aa(lp238
g10
(S'\x07\xd6\x04\x1b'
tRp239
aF3.9540000000000002
aF4.0060000000000002
aF3.879
aF3.992
aa(lp240
g10
(S'\x07\xd6\x04\x1c'
tRp241
aF3.9929999999999999
aF3.9929999999999999
aF3.9580000000000002
aF3.9590000000000001
aa(lp242
g10
(S'\x07\xd6\x05\x01'
tRp243
aF3.9590000000000001
aF3.9620000000000002
aF3.9590000000000001
aF3.9590000000000001
aa(lp244
g10
(S'\x07\xd6\x05\x02'
tRp245
aF3.9870000000000001
aF4.0179999999999998
aF3.9620000000000002
aF3.9910000000000001
aa(lp246
g10
(S'\x07\xd6\x05\x03'
tRp247
aF3.9940000000000002
aF4.0199999999999996
aF3.988
aF3.988
aa(lp248
g10
(S'\x07\xd6\x05\x04'
tRp249
aF3.9910000000000001
aF4.0019999999999998
aF3.9820000000000002
aF3.9820000000000002
aa(lp250
g10
(S'\x07\xd6\x05\x05'
tRp251
aF3.9910000000000001
aF3.9910000000000001
aF3.9489999999999998
aF3.9489999999999998
aa(lp252
g10
(S'\x07\xd6\x05\x08'
tRp253
aF3.9489999999999998
aF3.9489999999999998
aF3.9359999999999999
aF3.9489999999999998
aa(lp254
g10
(S'\x07\xd6\x05\t'
tRp255
aF3.9470000000000001
aF3.9729999999999999
aF3.9359999999999999
aF3.9359999999999999
aa(lp256
g10
(S'\x07\xd6\x05\n'
tRp257
aF3.9409999999999998
aF3.9420000000000002
aF3.931
aF3.9340000000000002
aa(lp258
g10
(S'\x07\xd6\x05\x0b'
tRp259
aF3.9340000000000002
aF3.948
aF3.9329999999999998
aF3.9329999999999998
aa(lp260
g10
(S'\x07\xd6\x05\x0c'
tRp261
aF3.9430000000000001
aF3.9769999999999999
aF3.9369999999999998
aF3.9500000000000002
aa(lp262
g10
(S'\x07\xd6\x05\x0f'
tRp263
aF3.9500000000000002
aF3.9710000000000001
aF3.9500000000000002
aF3.9500000000000002
aa(lp264
g10
(S'\x07\xd6\x05\x10'
tRp265
aF3.9550000000000001
aF3.9550000000000001
aF3.9359999999999999
aF3.9489999999999998
aa(lp266
g10
(S'\x07\xd6\x05\x11'
tRp267
aF3.9420000000000002
aF3.9609999999999999
aF3.9300000000000002
aF3.9470000000000001
aa(lp268
g10
(S'\x07\xd6\x05\x12'
tRp269
aF3.9500000000000002
aF3.9590000000000001
aF3.9350000000000001
aF3.9350000000000001
aa(lp270
g10
(S'\x07\xd6\x05\x13'
tRp271
aF3.9369999999999998
aF3.9449999999999998
aF3.9319999999999999
aF3.9350000000000001
aa(lp272
g10
(S'\x07\xd6\x05\x16'
tRp273
aF3.9180000000000001
aF3.9180000000000001
aF3.9020000000000001
aF3.9020000000000001
aa(lp274
g10
(S'\x07\xd6\x05\x17'
tRp275
aF3.9100000000000001
aF3.923
aF3.9100000000000001
aF3.923
aa(lp276
g10
(S'\x07\xd6\x05\x18'
tRp277
aF3.9220000000000002
aF3.9239999999999999
aF3.8980000000000001
aF3.8999999999999999
aa(lp278
g10
(S'\x07\xd6\x05\x19'
tRp279
aF3.907
aF3.907
aF3.907
aF3.907
aa(lp280
g10
(S'\x07\xd6\x05\x1a'
tRp281
aF3.907
aF3.9180000000000001
aF3.907
aF3.907
aa(lp282
g10
(S'\x07\xd6\x05\x1d'
tRp283
aF3.8919999999999999
aF3.8919999999999999
aF3.8919999999999999
aF3.8919999999999999
aa(lp284
g10
(S'\x07\xd6\x05\x1e'
tRp285
aF3.8759999999999999
aF3.915
aF3.875
aF3.8799999999999999
aa(lp286
g10
(S'\x07\xd6\x05\x1f'
tRp287
aF3.8849999999999998
aF3.9399999999999999
aF3.8849999999999998
aF3.923
aa(lp288
g10
(S'\x07\xd6\x06\x01'
tRp289
aF3.956
aF4
aF3.927
aF3.9830000000000001
aa(lp290
g10
(S'\x07\xd6\x06\x02'
tRp291
aF3.9710000000000001
aF3.9710000000000001
aF3.9710000000000001
aF3.9710000000000001
aa(lp292
g10
(S'\x07\xd6\x06\x05'
tRp293
aF3.972
aF4
aF3.9700000000000002
aF3.9969999999999999
aa(lp294
g10
(S'\x07\xd6\x06\x06'
tRp295
aF3.9860000000000002
aF3.9860000000000002
aF3.9860000000000002
aF3.9860000000000002
aa(lp296
g10
(S'\x07\xd6\x06\x07'
tRp297
aF3.9870000000000001
aF3.9950000000000001
aF3.9870000000000001
aF3.9950000000000001
aa(lp298
g10
(S'\x07\xd6\x06\x08'
tRp299
aF4.0149999999999997
aF4.0149999999999997
aF4.0149999999999997
aF4.0149999999999997
aa(lp300
g10
(S'\x07\xd6\x06\t'
tRp301
aF3.9849999999999999
aF3.9849999999999999
aF3.9849999999999999
aF3.9849999999999999
aa(lp302
g10
(S'\x07\xd6\x06\x0c'
tRp303
aF3.988
aF4.0069999999999997
aF3.9849999999999999
aF3.9849999999999999
aa(lp304
g10
(S'\x07\xd6\x06\r'
tRp305
aF3.9540000000000002
aF3.964
aF3.9510000000000001
aF3.9510000000000001
aa(lp306
g10
(S'\x07\xd6\x06\x0e'
tRp307
aF3.952
aF3.9649999999999999
aF3.952
aF3.9590000000000001
aa(lp308
g10
(S'\x07\xd6\x06\x0f'
tRp309
aF3.9630000000000001
aF4.0149999999999997
aF3.9630000000000001
aF3.996
aa(lp310
g10
(S'\x07\xd6\x06\x10'
tRp311
aF4.016
aF4.016
aF3.9929999999999999
aF3.9929999999999999
aa(lp312
g10
(S'\x07\xd6\x06\x13'
tRp313
aF4.0389999999999997
aF4.0389999999999997
aF4.0389999999999997
aF4.0389999999999997
aa(lp314
g10
(S'\x07\xd6\x06\x14'
tRp315
aF4.0419999999999998
aF4.1079999999999997
aF4.0389999999999997
aF4.0839999999999996
aa(lp316
g10
(S'\x07\xd6\x06\x15'
tRp317
aF4.0599999999999996
aF4.1719999999999997
aF4.0599999999999996
aF4.1719999999999997
aa(lp318
g10
(S'\x07\xd6\x06\x16'
tRp319
aF4.149
aF4.1520000000000001
aF4.1269999999999998
aF4.1509999999999998
aa(lp320
g10
(S'\x07\xd6\x06\x17'
tRp321
aF4.1509999999999998
aF4.194
aF4.1509999999999998
aF4.1710000000000003
aa(lp322
g10
(S'\x07\xd6\x06\x1a'
tRp323
aF4.1710000000000003
aF4.1710000000000003
aF4.1710000000000003
aF4.1710000000000003
aa(lp324
g10
(S'\x07\xd6\x06\x1b'
tRp325
aF4.1699999999999999
aF4.1699999999999999
aF4.1699999999999999
aF4.1699999999999999
aa(lp326
g10
(S'\x07\xd6\x06\x1c'
tRp327
aF4.1680000000000001
aF4.1689999999999996
aF4.1299999999999999
aF4.1319999999999997
aa(lp328
g10
(S'\x07\xd6\x06\x1d'
tRp329
aF4.1310000000000002
aF4.1310000000000002
aF4.1219999999999999
aF4.1219999999999999
aa(lp330
g10
(S'\x07\xd6\x06\x1e'
tRp331
aF4.1200000000000001
aF4.1200000000000001
aF4.0640000000000001
aF4.1050000000000004
aa(lp332
g10
(S'\x07\xd6\x07\x03'
tRp333
aF4.1029999999999998
aF4.1029999999999998
aF4.1029999999999998
aF4.1029999999999998
aa(lp334
g10
(S'\x07\xd6\x07\x04'
tRp335
aF4.1020000000000003
aF4.1029999999999998
aF4.1020000000000003
aF4.1020000000000003
aa(lp336
g10
(S'\x07\xd6\x07\x05'
tRp337
aF4.1020000000000003
aF4.1020000000000003
aF4.0960000000000001
aF4.0960000000000001
aa(lp338
g10
(S'\x07\xd6\x07\x06'
tRp339
aF4.0960000000000001
aF4.0979999999999999
aF4.0960000000000001
aF4.0979999999999999
aa(lp340
g10
(S'\x07\xd6\x07\x07'
tRp341
aF4.0970000000000004
aF4.0970000000000004
aF4.0899999999999999
aF4.0899999999999999
aa(lp342
g10
(S'\x07\xd6\x07\n'
tRp343
aF4.0890000000000004
aF4.0970000000000004
aF4.0890000000000004
aF4.0960000000000001
aa(lp344
g10
(S'\x07\xd6\x07\x0b'
tRp345
aF4.0960000000000001
aF4.0960000000000001
aF4.0519999999999996
aF4.0529999999999999
aa(lp346
g10
(S'\x07\xd6\x07\x0c'
tRp347
aF4.0510000000000002
aF4.0529999999999999
aF4.0410000000000004
aF4.0499999999999998
aa(lp348
g10
(S'\x07\xd6\x07\r'
tRp349
aF4.0490000000000004
aF4.0490000000000004
aF4.024
aF4.032
aa(lp350
g10
(S'\x07\xd6\x07\x0e'
tRp351
aF4.032
aF4.032
aF4.0069999999999997
aF4.0140000000000002
aa(lp352
g10
(S'\x07\xd6\x07\x11'
tRp353
aF4.0140000000000002
aF4.0140000000000002
aF4.0129999999999999
aF4.0129999999999999
aa(lp354
g10
(S'\x07\xd6\x07\x12'
tRp355
aF4.0119999999999996
aF4.0339999999999998
aF4.0119999999999996
aF4.0339999999999998
aa(lp356
g10
(S'\x07\xd6\x07\x13'
tRp357
aF4.0330000000000004
aF4.0579999999999998
aF4.032
aF4.0579999999999998
aa(lp358
g10
(S'\x07\xd6\x07\x14'
tRp359
aF4.0579999999999998
aF4.0759999999999996
aF4.056
aF4.056
aa(lp360
g10
(S'\x07\xd6\x07\x15'
tRp361
aF4.0549999999999997
aF4.0549999999999997
aF4.0540000000000003
aF4.0540000000000003
aa(lp362
g10
(S'\x07\xd6\x07\x18'
tRp363
aF4.0529999999999999
aF4.056
aF4.0529999999999999
aF4.056
aa(lp364
g10
(S'\x07\xd6\x07\x19'
tRp365
aF4.0549999999999997
aF4.0549999999999997
aF4.0339999999999998
aF4.0339999999999998
aa(lp366
g10
(S'\x07\xd6\x07\x1a'
tRp367
aF4.0330000000000004
aF4.0449999999999999
aF4.0330000000000004
aF4.0449999999999999
aa(lp368
g10
(S'\x07\xd6\x07\x1b'
tRp369
aF4.0449999999999999
aF4.0449999999999999
aF3.9780000000000002
aF3.9780000000000002
aa(lp370
g10
(S'\x07\xd6\x07\x1c'
tRp371
aF3.9769999999999999
aF4.0270000000000001
aF3.9769999999999999
aF3.9780000000000002
aa(lp372
g10
(S'\x07\xd6\x07\x1f'
tRp373
aF3.9769999999999999
aF4.0270000000000001
aF3.972
aF3.972
aa(lp374
g10
(S'\x07\xd6\x08\x01'
tRp375
aF3.9710000000000001
aF4.0259999999999998
aF3.9590000000000001
aF3.9590000000000001
aa(lp376
g10
(S'\x07\xd6\x08\x02'
tRp377
aF3.9569999999999999
aF3.9569999999999999
aF3.9199999999999999
aF3.9199999999999999
aa(lp378
g10
(S'\x07\xd6\x08\x03'
tRp379
aF3.919
aF3.9359999999999999
aF3.919
aF3.9359999999999999
aa(lp380
g10
(S'\x07\xd6\x08\x04'
tRp381
aF3.9350000000000001
aF3.9350000000000001
aF3.9119999999999999
aF3.9119999999999999
aa(lp382
g10
(S'\x07\xd6\x08\x07'
tRp383
aF3.9119999999999999
aF3.9119999999999999
aF3.8919999999999999
aF3.8919999999999999
aa(lp384
g10
(S'\x07\xd6\x08\x08'
tRp385
aF3.8919999999999999
aF3.8919999999999999
aF3.8620000000000001
aF3.8620000000000001
aa(lp386
g10
(S'\x07\xd6\x08\t'
tRp387
aF3.8599999999999999
aF3.8599999999999999
aF3.859
aF3.859
aa(lp388
g10
(S'\x07\xd6\x08\n'
tRp389
aF3.8580000000000001
aF3.8580000000000001
aF3.847
aF3.847
aa(lp390
g10
(S'\x07\xd6\x08\x0b'
tRp391
aF3.8460000000000001
aF3.8730000000000002
aF3.8460000000000001
aF3.8730000000000002
aa(lp392
g10
(S'\x07\xd6\x08\x0e'
tRp393
aF3.8719999999999999
aF3.919
aF3.8719999999999999
aF3.919
aa(lp394
g10
(S'\x07\xd6\x08\x0f'
tRp395
aF3.919
aF3.9260000000000002
aF3.9169999999999998
aF3.9169999999999998
aa(lp396
g10
(S'\x07\xd6\x08\x10'
tRp397
aF3.915
aF3.915
aF3.899
aF3.899
aa(lp398
g10
(S'\x07\xd6\x08\x11'
tRp399
aF3.8980000000000001
aF3.8980000000000001
aF3.847
aF3.847
aa(lp400
g10
(S'\x07\xd6\x08\x12'
tRp401
aF3.8460000000000001
aF3.8460000000000001
aF3.8450000000000002
aF3.8460000000000001
aa(lp402
g10
(S'\x07\xd6\x08\x15'
tRp403
aF3.8460000000000001
aF3.8460000000000001
aF3.8100000000000001
aF3.8100000000000001
aa(lp404
g10
(S'\x07\xd6\x08\x16'
tRp405
aF3.8090000000000002
aF3.8090000000000002
aF3.754
aF3.7559999999999998
aa(lp406
g10
(S'\x07\xd6\x08\x17'
tRp407
aF3.754
aF3.7629999999999999
aF3.754
aF3.7629999999999999
aa(lp408
g10
(S'\x07\xd6\x08\x18'
tRp409
aF3.7629999999999999
aF3.7629999999999999
aF3.7599999999999998
aF3.7599999999999998
aa(lp410
g10
(S'\x07\xd6\x08\x19'
tRp411
aF3.7589999999999999
aF3.7589999999999999
aF3.7410000000000001
aF3.7410000000000001
aa(lp412
g10
(S'\x07\xd6\x08\x1c'
tRp413
aF3.7410000000000001
aF3.7410000000000001
aF3.7320000000000002
aF3.7320000000000002
aa(lp414
g10
(S'\x07\xd6\x08\x1d'
tRp415
aF3.7309999999999999
aF3.7519999999999998
aF3.7309999999999999
aF3.7519999999999998
aa(lp416
g10
(S'\x07\xd6\x08\x1e'
tRp417
aF3.7490000000000001
aF3.754
aF3.742
aF3.754
aa(lp418
g10
(S'\x07\xd6\x08\x1f'
tRp419
aF3.754
aF3.754
aF3.7400000000000002
aF3.7400000000000002
aa(lp420
g10
(S'\x07\xd6\t\x01'
tRp421
aF3.7389999999999999
aF3.7400000000000002
aF3.7330000000000001
aF3.7330000000000001
aa(lp422
g10
(S'\x07\xd6\t\x04'
tRp423
aF3.7320000000000002
aF3.7320000000000002
aF3.7320000000000002
aF3.7320000000000002
aa(lp424
g10
(S'\x07\xd6\t\x05'
tRp425
aF3.7320000000000002
aF3.7530000000000001
aF3.73
aF3.7530000000000001
aa(lp426
g10
(S'\x07\xd6\t\x06'
tRp427
aF3.73
aF3.806
aF3.73
aF3.806
aa(lp428
g10
(S'\x07\xd6\t\x07'
tRp429
aF3.806
aF3.8319999999999999
aF3.806
aF3.8319999999999999
aa(lp430
g10
(S'\x07\xd6\t\x08'
tRp431
aF3.831
aF3.8570000000000002
aF3.831
aF3.8570000000000002
aa(lp432
g10
(S'\x07\xd6\t\x0b'
tRp433
aF3.8570000000000002
aF3.8650000000000002
aF3.8570000000000002
aF3.8650000000000002
aa(lp434
g10
(S'\x07\xd6\t\x0c'
tRp435
aF3.8650000000000002
aF3.8769999999999998
aF3.8650000000000002
aF3.8769999999999998
aa(lp436
g10
(S'\x07\xd6\t\r'
tRp437
aF3.875
aF3.879
aF3.8740000000000001
aF3.879
aa(lp438
g10
(S'\x07\xd6\t\x0e'
tRp439
aF3.8740000000000001
aF3.8849999999999998
aF3.8740000000000001
aF3.8849999999999998
aa(lp440
g10
(S'\x07\xd6\t\x0f'
tRp441
aF3.8849999999999998
aF3.8849999999999998
aF3.8809999999999998
aF3.8809999999999998
aa(lp442
g10
(S'\x07\xd6\t\x12'
tRp443
aF3.8799999999999999
aF3.9199999999999999
aF3.8799999999999999
aF3.9199999999999999
aa(lp444
g10
(S'\x07\xd6\t\x13'
tRp445
aF3.9199999999999999
aF3.9199999999999999
aF3.871
aF3.871
aa(lp446
g10
(S'\x07\xd6\t\x14'
tRp447
aF3.8809999999999998
aF3.8999999999999999
aF3.8690000000000002
aF3.8929999999999998
aa(lp448
g10
(S'\x07\xd6\t\x15'
tRp449
aF3.8929999999999998
aF3.9529999999999998
aF3.871
aF3.871
aa(lp450
g10
(S'\x07\xd6\t\x16'
tRp451
aF3.871
aF3.8900000000000001
aF3.8290000000000002
aF3.8439999999999999
aa(lp452
g10
(S'\x07\xd6\t\x19'
tRp453
aF3.843
aF3.8580000000000001
aF3.823
aF3.823
aa(lp454
g10
(S'\x07\xd6\t\x1a'
tRp455
aF3.8210000000000002
aF3.8359999999999999
aF3.8210000000000002
aF3.8359999999999999
aa(lp456
g10
(S'\x07\xd6\t\x1b'
tRp457
aF3.8359999999999999
aF3.8359999999999999
aF3.8279999999999998
aF3.8279999999999998
aa(lp458
g10
(S'\x07\xd6\t\x1c'
tRp459
aF3.8279999999999998
aF3.8279999999999998
aF3.827
aF3.827
aa(lp460
g10
(S'\x07\xd6\t\x1d'
tRp461
aF3.827
aF3.839
aF3.827
aF3.839
aa(lp462
g10
(S'\x07\xd6\n\x02'
tRp463
aF3.8380000000000001
aF3.8740000000000001
aF3.8380000000000001
aF3.8519999999999999
aa(lp464
g10
(S'\x07\xd6\n\x03'
tRp465
aF3.8519999999999999
aF3.8519999999999999
aF3.8450000000000002
aF3.8519999999999999
aa(lp466
g10
(S'\x07\xd6\n\x04'
tRp467
aF3.8500000000000001
aF3.8500000000000001
aF3.8359999999999999
aF3.8359999999999999
aa(lp468
g10
(S'\x07\xd6\n\x05'
tRp469
aF3.8359999999999999
aF3.847
aF3.831
aF3.831
aa(lp470
g10
(S'\x07\xd6\n\x06'
tRp471
aF3.8300000000000001
aF3.8300000000000001
aF3.7959999999999998
aF3.8069999999999999
aa(lp472
g10
(S'\x07\xd6\n\t'
tRp473
aF3.806
aF3.8130000000000002
aF3.8029999999999999
aF3.8109999999999999
aa(lp474
g10
(S'\x07\xd6\n\n'
tRp475
aF3.8100000000000001
aF3.8359999999999999
aF3.8100000000000001
aF3.8359999999999999
aa(lp476
g10
(S'\x07\xd6\n\x0b'
tRp477
aF3.8340000000000001
aF3.8490000000000002
aF3.802
aF3.843
aa(lp478
g10
(S'\x07\xd6\n\x0c'
tRp479
aF3.8420000000000001
aF3.8719999999999999
aF3.8420000000000001
aF3.8719999999999999
aa(lp480
g10
(S'\x07\xd6\n\r'
tRp481
aF3.8719999999999999
aF3.879
aF3.871
aF3.879
aa(lp482
g10
(S'\x07\xd6\n\x10'
tRp483
aF3.879
aF3.8839999999999999
aF3.879
aF3.8839999999999999
aa(lp484
g10
(S'\x07\xd6\n\x11'
tRp485
aF3.8839999999999999
aF3.8839999999999999
aF3.8599999999999999
aF3.8599999999999999
aa(lp486
g10
(S'\x07\xd6\n\x12'
tRp487
aF3.8580000000000001
aF3.907
aF3.8330000000000002
aF3.8330000000000002
aa(lp488
g10
(S'\x07\xd6\n\x13'
tRp489
aF3.8319999999999999
aF3.8319999999999999
aF3.8199999999999998
aF3.8199999999999998
aa(lp490
g10
(S'\x07\xd6\n\x14'
tRp491
aF3.819
aF3.8610000000000002
aF3.819
aF3.8210000000000002
aa(lp492
g10
(S'\x07\xd6\n\x17'
tRp493
aF3.8210000000000002
aF3.8460000000000001
aF3.8210000000000002
aF3.8460000000000001
aa(lp494
g10
(S'\x07\xd6\n\x18'
tRp495
aF3.8460000000000001
aF3.867
aF3.8460000000000001
aF3.867
aa(lp496
g10
(S'\x07\xd6\n\x19'
tRp497
aF3.8650000000000002
aF3.8900000000000001
aF3.8650000000000002
aF3.8900000000000001
aa(lp498
g10
(S'\x07\xd6\n\x1a'
tRp499
aF3.8900000000000001
aF3.8900000000000001
aF3.8679999999999999
aF3.8679999999999999
aa(lp500
g10
(S'\x07\xd6\n\x1b'
tRp501
aF3.867
aF3.8690000000000002
aF3.867
aF3.8690000000000002
aa(lp502
g10
(S'\x07\xd6\n\x1e'
tRp503
aF3.8690000000000002
aF3.8690000000000002
aF3.8580000000000001
aF3.8580000000000001
aa(lp504
g10
(S'\x07\xd6\n\x1f'
tRp505
aF3.8570000000000002
aF3.8570000000000002
aF3.8149999999999999
aF3.8159999999999998
aa(lp506
g10
(S'\x07\xd6\x0b\x01'
tRp507
aF3.8140000000000001
aF3.8140000000000001
aF3.7839999999999998
aF3.7850000000000001
aa(lp508
g10
(S'\x07\xd6\x0b\x02'
tRp509
aF3.7839999999999998
aF3.8530000000000002
aF3.7839999999999998
aF3.839
aa(lp510
g10
(S'\x07\xd6\x0b\x03'
tRp511
aF3.8380000000000001
aF3.867
aF3.8380000000000001
aF3.867
aa(lp512
g10
(S'\x07\xd6\x0b\x06'
tRp513
aF3.8660000000000001
aF3.8679999999999999
aF3.8570000000000002
aF3.8620000000000001
aa(lp514
g10
(S'\x07\xd6\x0b\x07'
tRp515
aF3.8610000000000002
aF3.8620000000000001
aF3.839
aF3.839
aa(lp516
g10
(S'\x07\xd6\x0b\x08'
tRp517
aF3.8370000000000002
aF3.8370000000000002
aF3.7989999999999999
aF3.7999999999999998
aa(lp518
g10
(S'\x07\xd6\x0b\t'
tRp519
aF3.7989999999999999
aF3.7999999999999998
aF3.7829999999999999
aF3.7829999999999999
aa(lp520
g10
(S'\x07\xd6\x0b\n'
tRp521
aF3.782
aF3.782
aF3.7400000000000002
aF3.7559999999999998
aa(lp522
g10
(S'\x07\xd6\x0b\r'
tRp523
aF3.7549999999999999
aF3.7549999999999999
aF3.7269999999999999
aF3.7410000000000001
aa(lp524
g10
(S'\x07\xd6\x0b\x0e'
tRp525
aF3.738
aF3.7389999999999999
aF3.726
aF3.726
aa(lp526
g10
(S'\x07\xd6\x0b\x0f'
tRp527
aF3.7250000000000001
aF3.7610000000000001
aF3.7250000000000001
aF3.7610000000000001
aa(lp528
g10
(S'\x07\xd6\x0b\x10'
tRp529
aF3.7599999999999998
aF3.7599999999999998
aF3.7370000000000001
aF3.7469999999999999
aa(lp530
g10
(S'\x07\xd6\x0b\x11'
tRp531
aF3.7469999999999999
aF3.7469999999999999
aF3.7389999999999999
aF3.7410000000000001
aa(lp532
g10
(S'\x07\xd6\x0b\x14'
tRp533
aF3.7400000000000002
aF3.7400000000000002
aF3.7290000000000001
aF3.7290000000000001
aa(lp534
g10
(S'\x07\xd6\x0b\x15'
tRp535
aF3.7290000000000001
aF3.7290000000000001
aF3.726
aF3.726
aa(lp536
g10
(S'\x07\xd6\x0b\x16'
tRp537
aF3.7240000000000002
aF3.73
aF3.7240000000000002
aF3.7250000000000001
aa(lp538
g10
(S'\x07\xd6\x0b\x17'
tRp539
aF3.7240000000000002
aF3.73
aF3.7240000000000002
aF3.73
aa(lp540
g10
(S'\x07\xd6\x0b\x18'
tRp541
aF3.7290000000000001
aF3.7290000000000001
aF3.7170000000000001
aF3.7170000000000001
aa(lp542
g10
(S'\x07\xd6\x0b\x1b'
tRp543
aF3.7160000000000002
aF3.7210000000000001
aF3.7160000000000002
aF3.7210000000000001
aa(lp544
g10
(S'\x07\xd6\x0b\x1c'
tRp545
aF3.7200000000000002
aF3.7210000000000001
aF3.6970000000000001
aF3.6970000000000001
aa(lp546
g10
(S'\x07\xd6\x0b\x1d'
tRp547
aF3.6949999999999998
aF3.6949999999999998
aF3.6739999999999999
aF3.6760000000000002
aa(lp548
g10
(S'\x07\xd6\x0b\x1e'
tRp549
aF3.6760000000000002
aF3.6760000000000002
aF3.6499999999999999
aF3.6499999999999999
aa(lp550
g10
(S'\x07\xd6\x0c\x01'
tRp551
aF3.649
aF3.649
aF3.6389999999999998
aF3.6400000000000001
aa(lp552
g10
(S'\x07\xd6\x0c\x04'
tRp553
aF3.6389999999999998
aF3.6389999999999998
aF3.5960000000000001
aF3.5960000000000001
aa(lp554
g10
(S'\x07\xd6\x0c\x05'
tRp555
aF3.5950000000000002
aF3.5960000000000001
aF3.5830000000000002
aF3.5830000000000002
aa(lp556
g10
(S'\x07\xd6\x0c\x06'
tRp557
aF3.5800000000000001
aF3.6019999999999999
aF3.5800000000000001
aF3.6019999999999999
aa(lp558
g10
(S'\x07\xd6\x0c\x07'
tRp559
aF3.601
aF3.6059999999999999
aF3.601
aF3.6059999999999999
aa(lp560
g10
(S'\x07\xd6\x0c\x08'
tRp561
aF3.6059999999999999
aF3.6059999999999999
aF3.6059999999999999
aF3.6059999999999999
aa(lp562
g10
(S'\x07\xd6\x0c\x0b'
tRp563
aF3.605
aF3.6200000000000001
aF3.605
aF3.6200000000000001
aa(lp564
g10
(S'\x07\xd6\x0c\x0c'
tRp565
aF3.6190000000000002
aF3.6259999999999999
aF3.6190000000000002
aF3.6259999999999999
aa(lp566
g10
(S'\x07\xd6\x0c\r'
tRp567
aF3.6240000000000001
aF3.6240000000000001
aF3.6190000000000002
aF3.6219999999999999
aa(lp568
g10
(S'\x07\xd6\x0c\x0e'
tRp569
aF3.621
aF3.6480000000000001
aF3.621
aF3.6480000000000001
aa(lp570
g10
(S'\x07\xd6\x0c\x0f'
tRp571
aF3.6469999999999998
aF3.6469999999999998
aF3.625
aF3.6429999999999998
aa(lp572
g10
(S'\x07\xd6\x0c\x12'
tRp573
aF3.6419999999999999
aF3.665
aF3.6240000000000001
aF3.665
aa(lp574
g10
(S'\x07\xd6\x0c\x13'
tRp575
aF3.665
aF3.6930000000000001
aF3.6230000000000002
aF3.6930000000000001
aa(lp576
g10
(S'\x07\xd6\x0c\x14'
tRp577
aF3.6920000000000002
aF3.6920000000000002
aF3.6219999999999999
aF3.6899999999999999
aa(lp578
g10
(S'\x07\xd6\x0c\x15'
tRp579
aF3.6890000000000001
aF3.6890000000000001
aF3.621
aF3.6859999999999999
aa(lp580
g10
(S'\x07\xd6\x0c\x16'
tRp581
aF3.6850000000000001
aF3.6920000000000002
aF3.6200000000000001
aF3.6920000000000002
aa(lp582
g10
(S'\x07\xd6\x0c\x19'
tRp583
aF3.6920000000000002
aF3.6920000000000002
aF3.6840000000000002
aF3.6840000000000002
aa(lp584
g10
(S'\x07\xd6\x0c\x1a'
tRp585
aF3.6840000000000002
aF3.6840000000000002
aF3.6840000000000002
aF3.6840000000000002
aa(lp586
g10
(S'\x07\xd6\x0c\x1b'
tRp587
aF3.6819999999999999
aF3.6930000000000001
aF3.6819999999999999
aF3.6930000000000001
aa(lp588
g10
(S'\x07\xd6\x0c\x1c'
tRp589
aF3.6920000000000002
aF3.7040000000000002
aF3.6920000000000002
aF3.7040000000000002
aa(lp590
g10
(S'\x07\xd6\x0c\x1d'
tRp591
aF3.7040000000000002
aF3.7149999999999999
aF3.7029999999999998
aF3.7149999999999999
aa(lp592
g10
(S'\x07\xd7\x01\x01'
tRp593
aF3.7149999999999999
aF3.7149999999999999
aF3.7120000000000002
aF3.7120000000000002
aa(lp594
g10
(S'\x07\xd7\x01\x02'
tRp595
aF3.7120000000000002
aF3.7120000000000002
aF3.7090000000000001
aF3.7090000000000001
aa(lp596
g10
(S'\x07\xd7\x01\x03'
tRp597
aF3.7069999999999999
aF3.7069999999999999
aF3.7000000000000002
aF3.7000000000000002
aa(lp598
g10
(S'\x07\xd7\x01\x04'
tRp599
aF3.6989999999999998
aF3.706
aF3.6989999999999998
aF3.706
aa(lp600
g10
(S'\x07\xd7\x01\x05'
tRp601
aF3.7050000000000001
aF3.7120000000000002
aF3.6850000000000001
aF3.7120000000000002
aa(lp602
g10
(S'\x07\xd7\x01\x08'
tRp603
aF3.7109999999999999
aF3.7130000000000001
aF3.7109999999999999
aF3.7130000000000001
aa(lp604
g10
(S'\x07\xd7\x01\t'
tRp605
aF3.7120000000000002
aF3.7400000000000002
aF3.7120000000000002
aF3.7400000000000002
aa(lp606
g10
(S'\x07\xd7\x01\n'
tRp607
aF3.738
aF3.7839999999999998
aF3.738
aF3.7839999999999998
aa(lp608
g10
(S'\x07\xd7\x01\x0b'
tRp609
aF3.7829999999999999
aF3.802
aF3.7610000000000001
aF3.802
aa(lp610
g10
(S'\x07\xd7\x01\x0c'
tRp611
aF3.8010000000000002
aF3.843
aF3.8010000000000002
aF3.843
aa(lp612
g10
(S'\x07\xd7\x01\x0f'
tRp613
aF3.8420000000000001
aF3.843
aF3.8420000000000001
aF3.8420000000000001
aa(lp614
g10
(S'\x07\xd7\x01\x10'
tRp615
aF3.8410000000000002
aF3.8410000000000002
aF3.7930000000000001
aF3.7949999999999999
aa(lp616
g10
(S'\x07\xd7\x01\x11'
tRp617
aF3.7930000000000001
aF3.8119999999999998
aF3.7919999999999998
aF3.8119999999999998
aa(lp618
g10
(S'\x07\xd7\x01\x12'
tRp619
aF3.8119999999999998
aF3.8250000000000002
aF3.8119999999999998
aF3.8199999999999998
aa(lp620
g10
(S'\x07\xd7\x01\x13'
tRp621
aF3.819
aF3.819
aF3.802
aF3.802
aa(lp622
g10
(S'\x07\xd7\x01\x16'
tRp623
aF3.8010000000000002
aF3.8010000000000002
aF3.8010000000000002
aF3.8010000000000002
aa(lp624
g10
(S'\x07\xd7\x01\x17'
tRp625
aF3.7999999999999998
aF3.8100000000000001
aF3.7999999999999998
aF3.8100000000000001
aa(lp626
g10
(S'\x07\xd7\x01\x18'
tRp627
aF3.8079999999999998
aF3.8410000000000002
aF3.8079999999999998
aF3.8410000000000002
aa(lp628
g10
(S'\x07\xd7\x01\x19'
tRp629
aF3.8399999999999999
aF3.8530000000000002
aF3.8399999999999999
aF3.8530000000000002
aa(lp630
g10
(S'\x07\xd7\x01\x1a'
tRp631
aF3.8530000000000002
aF3.8530000000000002
aF3.851
aF3.851
aa(lp632
g10
(S'\x07\xd7\x01\x1d'
tRp633
aF3.8500000000000001
aF3.8620000000000001
aF3.8500000000000001
aF3.8620000000000001
aa(lp634
g10
(S'\x07\xd7\x01\x1e'
tRp635
aF3.8610000000000002
aF3.8620000000000001
aF3.855
aF3.8620000000000001
aa(lp636
g10
(S'\x07\xd7\x01\x1f'
tRp637
aF3.859
aF3.859
aF3.843
aF3.843
aa(lp638
g10
(S'\x07\xd7\x02\x01'
tRp639
aF3.8420000000000001
aF3.8420000000000001
aF3.8130000000000002
aF3.8130000000000002
aa(lp640
g10
(S'\x07\xd7\x02\x02'
tRp641
aF3.8119999999999998
aF3.8149999999999999
aF3.802
aF3.802
aa(lp642
g10
(S'\x07\xd7\x02\x05'
tRp643
aF3.8010000000000002
aF3.8010000000000002
aF3.7570000000000001
aF3.7570000000000001
aa(lp644
g10
(S'\x07\xd7\x02\x06'
tRp645
aF3.7559999999999998
aF3.7559999999999998
aF3.7370000000000001
aF3.7440000000000002
aa(lp646
g10
(S'\x07\xd7\x02\x07'
tRp647
aF3.742
aF3.742
aF3.7330000000000001
aF3.7330000000000001
aa(lp648
g10
(S'\x07\xd7\x02\x08'
tRp649
aF3.7320000000000002
aF3.7730000000000001
aF3.7320000000000002
aF3.7730000000000001
aa(lp650
g10
(S'\x07\xd7\x02\t'
tRp651
aF3.7719999999999998
aF3.778
aF3.7719999999999998
aF3.778
aa(lp652
g10
(S'\x07\xd7\x02\x0c'
tRp653
aF3.7770000000000001
aF3.7930000000000001
aF3.7770000000000001
aF3.7930000000000001
aa(lp654
g10
(S'\x07\xd7\x02\r'
tRp655
aF3.7930000000000001
aF3.8010000000000002
aF3.7930000000000001
aF3.8010000000000002
aa(lp656
g10
(S'\x07\xd7\x02\x0e'
tRp657
aF3.798
aF3.798
aF3.7389999999999999
aF3.7389999999999999
aa(lp658
g10
(S'\x07\xd7\x02\x0f'
tRp659
aF3.738
aF3.738
aF3.7189999999999999
aF3.7189999999999999
aa(lp660
g10
(S'\x07\xd7\x02\x10'
tRp661
aF3.718
aF3.718
aF3.7069999999999999
aF3.7069999999999999
aa(lp662
g10
(S'\x07\xd7\x02\x13'
tRp663
aF3.706
aF3.71
aF3.6960000000000002
aF3.71
aa(lp664
g10
(S'\x07\xd7\x02\x14'
tRp665
aF3.71
aF3.722
aF3.7090000000000001
aF3.722
aa(lp666
g10
(S'\x07\xd7\x02\x15'
tRp667
aF3.7200000000000002
aF3.734
aF3.7189999999999999
aF3.734
aa(lp668
g10
(S'\x07\xd7\x02\x16'
tRp669
aF3.7330000000000001
aF3.7400000000000002
aF3.7330000000000001
aF3.7400000000000002
aa(lp670
g10
(S'\x07\xd7\x02\x17'
tRp671
aF3.7400000000000002
aF3.7400000000000002
aF3.7370000000000001
aF3.7370000000000001
aa(lp672
g10
(S'\x07\xd7\x02\x1a'
tRp673
aF3.7349999999999999
aF3.7349999999999999
aF3.71
aF3.71
aa(lp674
g10
(S'\x07\xd7\x02\x1b'
tRp675
aF3.7090000000000001
aF3.7090000000000001
aF3.6859999999999999
aF3.6859999999999999
aa(lp676
g10
(S'\x07\xd7\x02\x1c'
tRp677
aF3.6840000000000002
aF3.6840000000000002
aF3.6739999999999999
aF3.6739999999999999
aa(lp678
g10
(S'\x07\xd7\x03\x01'
tRp679
aF3.673
aF3.7280000000000002
aF3.673
aF3.706
aa(lp680
g10
(S'\x07\xd7\x03\x02'
tRp681
aF3.7050000000000001
aF3.706
aF3.6819999999999999
aF3.706
aa(lp682
g10
(S'\x07\xd7\x03\x05'
tRp683
aF3.7050000000000001
aF3.7050000000000001
aF3.6920000000000002
aF3.6920000000000002
aa(lp684
g10
(S'\x07\xd7\x03\x06'
tRp685
aF3.6909999999999998
aF3.7080000000000002
aF3.6909999999999998
aF3.7080000000000002
aa(lp686
g10
(S'\x07\xd7\x03\x07'
tRp687
aF3.706
aF3.7130000000000001
aF3.706
aF3.7130000000000001
aa(lp688
g10
(S'\x07\xd7\x03\x08'
tRp689
aF3.7120000000000002
aF3.718
aF3.7120000000000002
aF3.718
aa(lp690
g10
(S'\x07\xd7\x03\t'
tRp691
aF3.7170000000000001
aF3.734
aF3.7170000000000001
aF3.734
aa(lp692
g10
(S'\x07\xd7\x03\x0c'
tRp693
aF3.7330000000000001
aF3.746
aF3.7330000000000001
aF3.746
aa(lp694
g10
(S'\x07\xd7\x03\r'
tRp695
aF3.7450000000000001
aF3.7450000000000001
aF3.7429999999999999
aF3.7429999999999999
aa(lp696
g10
(S'\x07\xd7\x03\x0e'
tRp697
aF3.7410000000000001
aF3.7469999999999999
aF3.7410000000000001
aF3.7469999999999999
aa(lp698
g10
(S'\x07\xd7\x03\x0f'
tRp699
aF3.746
aF3.7570000000000001
aF3.746
aF3.7570000000000001
aa(lp700
g10
(S'\x07\xd7\x03\x10'
tRp701
aF3.7559999999999998
aF4.0049999999999999
aF3.754
aF4.0049999999999999
aa(lp702
g10
(S'\x07\xd7\x03\x13'
tRp703
aF4.0049999999999999
aF4.0049999999999999
aF4.0030000000000001
aF4.0030000000000001
aa(lp704
g10
(S'\x07\xd7\x03\x14'
tRp705
aF4.0030000000000001
aF4.0060000000000002
aF4.0030000000000001
aF4.0060000000000002
aa(lp706
g10
(S'\x07\xd7\x03\x15'
tRp707
aF4.0060000000000002
aF4.0179999999999998
aF4
aF4.0179999999999998
aa(lp708
g10
(S'\x07\xd7\x03\x16'
tRp709
aF4.0170000000000003
aF4.0220000000000002
aF4.0170000000000003
aF4.0220000000000002
aa(lp710
g10
(S'\x07\xd7\x03\x17'
tRp711
aF4.0220000000000002
aF4.0389999999999997
aF4.0220000000000002
aF4.0389999999999997
aa(lp712
g10
(S'\x07\xd7\x03\x1a'
tRp713
aF4.0389999999999997
aF4.0679999999999996
aF4.0389999999999997
aF4.0679999999999996
aa(lp714
g10
(S'\x07\xd7\x03\x1b'
tRp715
aF4.0679999999999996
aF4.0800000000000001
aF4.0679999999999996
aF4.0800000000000001
aa(lp716
g10
(S'\x07\xd7\x03\x1c'
tRp717
aF4.0800000000000001
aF4.0800000000000001
aF4.0759999999999996
aF4.0759999999999996
aa(lp718
g10
(S'\x07\xd7\x03\x1d'
tRp719
aF4.0759999999999996
aF4.0800000000000001
aF4.0759999999999996
aF4.0800000000000001
aa(lp720
g10
(S'\x07\xd7\x03\x1e'
tRp721
aF4.0800000000000001
aF4.1020000000000003
aF4.0800000000000001
aF4.1020000000000003
aa(lp722
g10
(S'\x07\xd7\x04\x02'
tRp723
aF4.1020000000000003
aF4.1050000000000004
aF4.1020000000000003
aF4.1050000000000004
aa(lp724
g10
(S'\x07\xd7\x04\x03'
tRp725
aF4.1050000000000004
aF4.1150000000000002
aF4.1050000000000004
aF4.1150000000000002
aa(lp726
g10
(S'\x07\xd7\x04\x04'
tRp727
aF4.1150000000000002
aF4.1150000000000002
aF4.0990000000000002
aF4.0990000000000002
aa(lp728
g10
(S'\x07\xd7\x04\x05'
tRp729
aF4.0979999999999999
aF4.0979999999999999
aF4.0960000000000001
aF4.0960000000000001
aa(lp730
g10
(S'\x07\xd7\x04\x06'
tRp731
aF4.0960000000000001
aF4.1130000000000004
aF4.0960000000000001
aF4.1130000000000004
aa(lp732
g10
(S'\x07\xd7\x04\t'
tRp733
aF4.1130000000000004
aF4.1139999999999999
aF4.1130000000000004
aF4.1139999999999999
aa(lp734
g10
(S'\x07\xd7\x04\n'
tRp735
aF4.1139999999999999
aF4.117
aF4.1139999999999999
aF4.117
aa(lp736
g10
(S'\x07\xd7\x04\x0b'
tRp737
aF4.1159999999999997
aF4.1239999999999997
aF4.1159999999999997
aF4.1210000000000004
aa(lp738
g10
(S'\x07\xd7\x04\x0c'
tRp739
aF4.1210000000000004
aF4.1299999999999999
aF4.1210000000000004
aF4.1299999999999999
aa(lp740
g10
(S'\x07\xd7\x04\r'
tRp741
aF4.1299999999999999
aF4.149
aF4.1239999999999997
aF4.149
aa(lp742
g10
(S'\x07\xd7\x04\x10'
tRp743
aF4.1479999999999997
aF4.149
aF4.1239999999999997
aF4.149
aa(lp744
g10
(S'\x07\xd7\x04\x11'
tRp745
aF4.149
aF4.149
aF4.1319999999999997
aF4.1449999999999996
aa(lp746
g10
(S'\x07\xd7\x04\x12'
tRp747
aF4.1449999999999996
aF4.1449999999999996
aF4.1139999999999999
aF4.1139999999999999
aa(lp748
g10
(S'\x07\xd7\x04\x13'
tRp749
aF4.1139999999999999
aF4.1239999999999997
aF4.1139999999999999
aF4.1239999999999997
aa(lp750
g10
(S'\x07\xd7\x04\x14'
tRp751
aF4.1239999999999997
aF4.133
aF4.1150000000000002
aF4.133
aa(lp752
g10
(S'\x07\xd7\x04\x17'
tRp753
aF4.133
aF4.133
aF4.1269999999999998
aF4.1269999999999998
aa(lp754
g10
(S'\x07\xd7\x04\x18'
tRp755
aF4.1269999999999998
aF4.1420000000000003
aF4.1269999999999998
aF4.1420000000000003
aa(lp756
g10
(S'\x07\xd7\x04\x19'
tRp757
aF4.1420000000000003
aF4.1669999999999998
aF4.1420000000000003
aF4.1449999999999996
aa(lp758
g10
(S'\x07\xd7\x04\x1a'
tRp759
aF4.1449999999999996
aF4.1580000000000004
aF4.1449999999999996
aF4.1580000000000004
aa(lp760
g10
(S'\x07\xd7\x04\x1b'
tRp761
aF4.1580000000000004
aF4.181
aF4.1580000000000004
aF4.181
aa(lp762
g10
(S'\x07\xd7\x04\x1e'
tRp763
aF4.181
aF4.181
aF4.165
aF4.165
aa(lp764
g10
(S'\x07\xd7\x05\x01'
tRp765
aF4.165
aF4.1699999999999999
aF4.165
aF4.1699999999999999
aa(lp766
g10
(S'\x07\xd7\x05\x02'
tRp767
aF4.1699999999999999
aF4.1870000000000003
aF4.1699999999999999
aF4.1870000000000003
aa(lp768
g10
(S'\x07\xd7\x05\x03'
tRp769
aF4.1870000000000003
aF4.1989999999999998
aF4.1870000000000003
aF4.1989999999999998
aa(lp770
g10
(S'\x07\xd7\x05\x04'
tRp771
aF4.1989999999999998
aF4.1989999999999998
aF4.1799999999999997
aF4.1929999999999996
aa(lp772
g10
(S'\x07\xd7\x05\x07'
tRp773
aF4.1929999999999996
aF4.1970000000000001
aF4.1929999999999996
aF4.1970000000000001
aa(lp774
g10
(S'\x07\xd7\x05\x08'
tRp775
aF4.1970000000000001
aF4.1970000000000001
aF4.1609999999999996
aF4.1609999999999996
aa(lp776
g10
(S'\x07\xd7\x05\t'
tRp777
aF4.1600000000000001
aF4.1920000000000002
aF4.1600000000000001
aF4.1920000000000002
aa(lp778
g10
(S'\x07\xd7\x05\n'
tRp779
aF4.1920000000000002
aF4.234
aF4.1920000000000002
aF4.234
aa(lp780
g10
(S'\x07\xd7\x05\x0b'
tRp781
aF4.234
aF4.234
aF4.2279999999999998
aF4.2279999999999998
aa(lp782
g10
(S'\x07\xd7\x05\x0e'
tRp783
aF4.2279999999999998
aF4.2489999999999997
aF4.2279999999999998
aF4.2480000000000002
aa(lp784
g10
(S'\x07\xd7\x05\x0f'
tRp785
aF4.2469999999999999
aF4.2750000000000004
aF4.2469999999999999
aF4.2750000000000004
aa(lp786
g10
(S'\x07\xd7\x05\x10'
tRp787
aF4.274
aF4.2880000000000003
aF4.274
aF4.2839999999999998
aa(lp788
g10
(S'\x07\xd7\x05\x11'
tRp789
aF4.2839999999999998
aF4.2839999999999998
aF4.2830000000000004
aF4.2830000000000004
aa(lp790
g10
(S'\x07\xd7\x05\x12'
tRp791
aF4.2830000000000004
aF4.2830000000000004
aF4.2530000000000001
aF4.2530000000000001
aa(lp792
g10
(S'\x07\xd7\x05\x15'
tRp793
aF4.2530000000000001
aF4.258
aF4.2530000000000001
aF4.258
aa(lp794
g10
(S'\x07\xd7\x05\x16'
tRp795
aF4.2569999999999997
aF4.2599999999999998
aF4.2569999999999997
aF4.2599999999999998
aa(lp796
g10
(S'\x07\xd7\x05\x17'
tRp797
aF4.2599999999999998
aF4.2679999999999998
aF4.2599999999999998
aF4.2679999999999998
aa(lp798
g10
(S'\x07\xd7\x05\x18'
tRp799
aF4.2679999999999998
aF4.2709999999999999
aF4.2679999999999998
aF4.2709999999999999
aa(lp800
g10
(S'\x07\xd7\x05\x19'
tRp801
aF4.2709999999999999
aF4.2709999999999999
aF4.2709999999999999
aF4.2709999999999999
aa(lp802
g10
(S'\x07\xd7\x05\x1c'
tRp803
aF4.2709999999999999
aF4.2770000000000001
aF4.2709999999999999
aF4.2770000000000001
aa(lp804
g10
(S'\x07\xd7\x05\x1d'
tRp805
aF4.2770000000000001
aF4.2770000000000001
aF4.2729999999999997
aF4.2729999999999997
aa(lp806
g10
(S'\x07\xd7\x05\x1e'
tRp807
aF4.2729999999999997
aF4.274
aF4.2649999999999997
aF4.274
aa(lp808
g10
(S'\x07\xd7\x05\x1f'
tRp809
aF4.274
aF4.3049999999999997
aF4.274
aF4.3049999999999997
aa(lp810
g10
(S'\x07\xd7\x06\x01'
tRp811
aF4.3150000000000004
aF4.327
aF4.3150000000000004
aF4.3170000000000002
aa(lp812
g10
(S'\x07\xd7\x06\x04'
tRp813
aF4.327
aF4.3730000000000002
aF4.327
aF4.3730000000000002
aa(lp814
g10
(S'\x07\xd7\x06\x05'
tRp815
aF4.3890000000000002
aF4.4459999999999997
aF4.3890000000000002
aF4.4450000000000003
aa(lp816
g10
(S'\x07\xd7\x06\x06'
tRp817
aF4.4569999999999999
aF4.4749999999999996
aF4.4320000000000004
aF4.4320000000000004
aa(lp818
g10
(S'\x07\xd7\x06\x07'
tRp819
aF4.4569999999999999
aF4.5439999999999996
aF4.452
aF4.532
aa(lp820
g10
(S'\x07\xd7\x06\x08'
tRp821
aF4.532
aF4.6130000000000004
aF4.532
aF4.585
aa(lp822
g10
(S'\x07\xd7\x06\x0b'
tRp823
aF4.5759999999999996
aF4.5759999999999996
aF4.5339999999999998
aF4.5339999999999998
aa(lp824
g10
(S'\x07\xd7\x06\x0c'
tRp825
aF4.5339999999999998
aF4.5940000000000003
aF4.5339999999999998
aF4.5940000000000003
aa(lp826
g10
(S'\x07\xd7\x06\r'
tRp827
aF4.5899999999999999
aF4.6740000000000004
aF4.5899999999999999
aF4.6470000000000002
aa(lp828
g10
(S'\x07\xd7\x06\x0e'
tRp829
aF4.6509999999999998
aF4.6589999999999998
aF4.6509999999999998
aF4.6589999999999998
aa(lp830
g10
(S'\x07\xd7\x06\x0f'
tRp831
aF4.6710000000000003
aF4.6909999999999998
aF4.665
aF4.6699999999999999
aa(lp832
g10
(S'\x07\xd7\x06\x12'
tRp833
aF4.6710000000000003
aF4.6760000000000002
aF4.6600000000000001
aF4.6639999999999997
aa(lp834
g10
(S'\x07\xd7\x06\x13'
tRp835
aF4.6719999999999997
aF4.6719999999999997
aF4.6459999999999999
aF4.6459999999999999
aa(lp836
g10
(S'\x07\xd7\x06\x14'
tRp837
aF4.6289999999999996
aF4.649
aF4.5899999999999999
aF4.649
aa(lp838
g10
(S'\x07\xd7\x06\x15'
tRp839
aF4.6550000000000002
aF4.6719999999999997
aF4.6550000000000002
aF4.665
aa(lp840
g10
(S'\x07\xd7\x06\x16'
tRp841
aF4.6719999999999997
aF4.681
aF4.6719999999999997
aF4.681
aa(lp842
g10
(S'\x07\xd7\x06\x19'
tRp843
aF4.6900000000000004
aF4.6909999999999998
aF4.6900000000000004
aF4.6909999999999998
aa(lp844
g10
(S'\x07\xd7\x06\x1a'
tRp845
aF4.6870000000000003
aF4.6870000000000003
aF4.6870000000000003
aF4.6870000000000003
aa(lp846
g10
(S'\x07\xd7\x06\x1b'
tRp847
aF4.6779999999999999
aF4.6779999999999999
aF4.6680000000000001
aF4.6680000000000001
aa(lp848
g10
(S'\x07\xd7\x06\x1c'
tRp849
aF4.673
aF4.6959999999999997
aF4.673
aF4.6920000000000002
aa(lp850
g10
(S'\x07\xd7\x06\x1d'
tRp851
aF4.7080000000000002
aF4.7610000000000001
aF4.7009999999999996
aF4.7039999999999997
aa(lp852
g10
(S'\x07\xd7\x07\x02'
tRp853
aF4.6900000000000004
aF4.6900000000000004
aF4.6589999999999998
aF4.6589999999999998
aa(lp854
g10
(S'\x07\xd7\x07\x03'
tRp855
aF4.6719999999999997
aF4.6740000000000004
aF4.6719999999999997
aF4.6740000000000004
aa(lp856
g10
(S'\x07\xd7\x07\x04'
tRp857
aF4.6790000000000003
aF4.6870000000000003
aF4.6790000000000003
aF4.6870000000000003
aa(lp858
g10
(S'\x07\xd7\x07\x05'
tRp859
aF4.6710000000000003
aF4.6840000000000002
aF4.6710000000000003
aF4.6840000000000002
aa(lp860
g10
(S'\x07\xd7\x07\x06'
tRp861
aF4.702
aF4.702
aF4.702
aF4.702
aa(lp862
g10
(S'\x07\xd7\x07\t'
tRp863
aF4.6970000000000001
aF4.7519999999999998
aF4.6970000000000001
aF4.7380000000000004
aa(lp864
g10
(S'\x07\xd7\x07\n'
tRp865
aF4.7320000000000002
aF4.7320000000000002
aF4.6970000000000001
aF4.6970000000000001
aa(lp866
g10
(S'\x07\xd7\x07\x0b'
tRp867
aF4.6699999999999999
aF4.6699999999999999
aF4.657
aF4.657
aa(lp868
g10
(S'\x07\xd7\x07\x0c'
tRp869
aF4.6609999999999996
aF4.6680000000000001
aF4.6609999999999996
aF4.6680000000000001
aa(lp870
g10
(S'\x07\xd7\x07\r'
tRp871
aF4.673
aF4.6799999999999997
aF4.673
aF4.6799999999999997
aa(lp872
g10
(S'\x07\xd7\x07\x10'
tRp873
aF4.6749999999999998
aF4.6829999999999998
aF4.6719999999999997
aF4.6829999999999998
aa(lp874
g10
(S'\x07\xd7\x07\x11'
tRp875
aF4.6859999999999999
aF4.6859999999999999
aF4.6859999999999999
aF4.6859999999999999
aa(lp876
g10
(S'\x07\xd7\x07\x12'
tRp877
aF4.681
aF4.681
aF4.6509999999999998
aF4.6740000000000004
aa(lp878
g10
(S'\x07\xd7\x07\x13'
tRp879
aF4.6550000000000002
aF4.6790000000000003
aF4.6550000000000002
aF4.6719999999999997
aa(lp880
g10
(S'\x07\xd7\x07\x14'
tRp881
aF4.6630000000000003
aF4.6689999999999996
aF4.649
aF4.649
aa(lp882
g10
(S'\x07\xd7\x07\x17'
tRp883
aF4.6500000000000004
aF4.6500000000000004
aF4.6020000000000003
aF4.6210000000000004
aa(lp884
g10
(S'\x07\xd7\x07\x18'
tRp885
aF4.6340000000000003
aF4.6340000000000003
aF4.5979999999999999
aF4.6340000000000003
aa(lp886
g10
(S'\x07\xd7\x07\x19'
tRp887
aF4.6020000000000003
aF4.625
aF4.6020000000000003
aF4.6189999999999998
aa(lp888
g10
(S'\x07\xd7\x07\x1a'
tRp889
aF4.6029999999999998
aF4.6120000000000001
aF4.6029999999999998
aF4.6120000000000001
aa(lp890
g10
(S'\x07\xd7\x07\x1b'
tRp891
aF4.5960000000000001
aF4.6079999999999997
aF4.5910000000000002
aF4.6020000000000003
aa(lp892
g10
(S'\x07\xd7\x07\x1e'
tRp893
aF4.6079999999999997
aF4.6079999999999997
aF4.5880000000000001
aF4.5880000000000001
aa(lp894
g10
(S'\x07\xd7\x07\x1f'
tRp895
aF4.6020000000000003
aF4.6020000000000003
aF4.601
aF4.601
aa(lp896
g10
(S'\x07\xd7\x08\x01'
tRp897
aF4.5899999999999999
aF4.593
aF4.5659999999999998
aF4.593
aa(lp898
g10
(S'\x07\xd7\x08\x02'
tRp899
aF4.5899999999999999
aF4.5940000000000003
aF4.5899999999999999
aF4.5940000000000003
aa(lp900
g10
(S'\x07\xd7\x08\x03'
tRp901
aF4.585
aF4.585
aF4.5739999999999998
aF4.5780000000000003
aa(lp902
g10
(S'\x07\xd7\x08\x06'
tRp903
aF4.5789999999999997
aF4.5789999999999997
aF4.5789999999999997
aF4.5789999999999997
aa(lp904
g10
(S'\x07\xd7\x08\x07'
tRp905
aF4.5759999999999996
aF4.5890000000000004
aF4.5759999999999996
aF4.5890000000000004
aa(lp906
g10
(S'\x07\xd7\x08\x08'
tRp907
aF4.601
aF4.601
aF4.5810000000000004
aF4.5940000000000003
aa(lp908
g10
(S'\x07\xd7\x08\t'
tRp909
aF4.5810000000000004
aF4.5899999999999999
aF4.5720000000000001
aF4.577
aa(lp910
g10
(S'\x07\xd7\x08\n'
tRp911
aF4.5659999999999998
aF4.5659999999999998
aF4.548
aF4.5519999999999996
aa(lp912
g10
(S'\x07\xd7\x08\r'
tRp913
aF4.5519999999999996
aF4.5519999999999996
aF4.5510000000000002
aF4.5510000000000002
aa(lp914
g10
(S'\x07\xd7\x08\x0e'
tRp915
aF4.5510000000000002
aF4.5510000000000002
aF4.5060000000000002
aF4.5170000000000003
aa(lp916
g10
(S'\x07\xd7\x08\x0f'
tRp917
aF4.5170000000000003
aF4.5170000000000003
aF4.4859999999999998
aF4.4969999999999999
aa(lp918
g10
(S'\x07\xd7\x08\x10'
tRp919
aF4.4889999999999999
aF4.4889999999999999
aF4.4359999999999999
aF4.4450000000000003
aa(lp920
g10
(S'\x07\xd7\x08\x11'
tRp921
aF4.4450000000000003
aF4.4880000000000004
aF4.4359999999999999
aF4.4880000000000004
aa(lp922
g10
(S'\x07\xd7\x08\x14'
tRp923
aF4.4880000000000004
aF4.5190000000000001
aF4.4409999999999998
aF4.5119999999999996
aa(lp924
g10
(S'\x07\xd7\x08\x15'
tRp925
aF4.5119999999999996
aF4.5119999999999996
aF4.4619999999999997
aF4.4809999999999999
aa(lp926
g10
(S'\x07\xd7\x08\x16'
tRp927
aF4.4809999999999999
aF4.5419999999999998
aF4.4649999999999999
aF4.5369999999999999
aa(lp928
g10
(S'\x07\xd7\x08\x17'
tRp929
aF4.5369999999999999
aF4.5730000000000004
aF4.5129999999999999
aF4.5499999999999998
aa(lp930
g10
(S'\x07\xd7\x08\x18'
tRp931
aF4.5499999999999998
aF4.556
aF4.5069999999999997
aF4.556
aa(lp932
g10
(S'\x07\xd7\x08\x1b'
tRp933
aF4.556
aF4.577
aF4.5129999999999999
aF4.5739999999999998
aa(lp934
g10
(S'\x07\xd7\x08\x1c'
tRp935
aF4.5739999999999998
aF4.5739999999999998
aF4.5129999999999999
aF4.5519999999999996
aa(lp936
g10
(S'\x07\xd7\x08\x1d'
tRp937
aF4.5519999999999996
aF4.5780000000000003
aF4.5119999999999996
aF4.5780000000000003
aa(lp938
g10
(S'\x07\xd7\x08\x1e'
tRp939
aF4.5780000000000003
aF4.6189999999999998
aF4.5780000000000003
aF4.6189999999999998
aa(lp940
g10
(S'\x07\xd7\x08\x1f'
tRp941
aF4.6189999999999998
aF4.6550000000000002
aF4.5839999999999996
aF4.6449999999999996
aa(lp942
g10
(S'\x07\xd7\t\x03'
tRp943
aF4.6449999999999996
aF4.6449999999999996
aF4.6159999999999997
aF4.6390000000000002
aa(lp944
g10
(S'\x07\xd7\t\x04'
tRp945
aF4.6390000000000002
aF4.6390000000000002
aF4.5890000000000004
aF4.6280000000000001
aa(lp946
g10
(S'\x07\xd7\t\x05'
tRp947
aF4.6280000000000001
aF4.6600000000000001
aF4.5839999999999996
aF4.6299999999999999
aa(lp948
g10
(S'\x07\xd7\t\x06'
tRp949
aF4.6299999999999999
aF4.6299999999999999
aF4.5839999999999996
aF4.6299999999999999
aa(lp950
g10
(S'\x07\xd7\t\x07'
tRp951
aF4.6289999999999996
aF4.6289999999999996
aF4.5839999999999996
aF4.5910000000000002
aa(lp952
g10
(S'\x07\xd7\t\n'
tRp953
aF4.5910000000000002
aF4.5970000000000004
aF4.5410000000000004
aF4.5739999999999998
aa(lp954
g10
(S'\x07\xd7\t\x0b'
tRp955
aF4.5739999999999998
aF4.5739999999999998
aF4.5350000000000001
aF4.5659999999999998
aa(lp956
g10
(S'\x07\xd7\t\x0c'
tRp957
aF4.5650000000000004
aF4.5979999999999999
aF4.5540000000000003
aF4.5780000000000003
aa(lp958
g10
(S'\x07\xd7\t\r'
tRp959
aF4.5780000000000003
aF4.5970000000000004
aF4.5590000000000002
aF4.5860000000000003
aa(lp960
g10
(S'\x07\xd7\t\x0e'
tRp961
aF4.5860000000000003
aF4.5880000000000001
aF4.5590000000000002
aF4.5839999999999996
aa(lp962
g10
(S'\x07\xd7\t\x11'
tRp963
aF4.5839999999999996
aF4.5839999999999996
aF4.5709999999999997
aF4.5750000000000002
aa(lp964
g10
(S'\x07\xd7\t\x12'
tRp965
aF4.5750000000000002
aF4.5979999999999999
aF4.5750000000000002
aF4.5979999999999999
aa(lp966
g10
(S'\x07\xd7\t\x13'
tRp967
aF4.5970000000000004
aF4.6379999999999999
aF4.593
aF4.6040000000000001
aa(lp968
g10
(S'\x07\xd7\t\x14'
tRp969
aF4.6040000000000001
aF4.6299999999999999
aF4.5979999999999999
aF4.6299999999999999
aa(lp970
g10
(S'\x07\xd7\t\x15'
tRp971
aF4.6299999999999999
aF4.6399999999999997
aF4.6239999999999997
aF4.6369999999999996
aa(lp972
g10
(S'\x07\xd7\t\x18'
tRp973
aF4.6369999999999996
aF4.6369999999999996
aF4.6260000000000003
aF4.6260000000000003
aa(lp974
g10
(S'\x07\xd7\t\x19'
tRp975
aF4.6260000000000003
aF4.6260000000000003
aF4.5730000000000004
aF4.5830000000000002
aa(lp976
g10
(S'\x07\xd7\t\x1a'
tRp977
aF4.5819999999999999
aF4.6180000000000003
aF4.5819999999999999
aF4.6180000000000003
aa(lp978
g10
(S'\x07\xd7\t\x1b'
tRp979
aF4.6180000000000003
aF4.6319999999999997
aF4.5949999999999998
aF4.6040000000000001
aa(lp980
g10
(S'\x07\xd7\t\x1c'
tRp981
aF4.6040000000000001
aF4.6040000000000001
aF4.593
aF4.6020000000000003
aa(lp982
g10
(S'\x07\xd7\n\x01'
tRp983
aF4.6020000000000003
aF4.6020000000000003
aF4.5730000000000004
aF4.5919999999999996
aa(lp984
g10
(S'\x07\xd7\n\x02'
tRp985
aF4.5919999999999996
aF4.5919999999999996
aF4.5720000000000001
aF4.5839999999999996
aa(lp986
g10
(S'\x07\xd7\n\x03'
tRp987
aF4.5839999999999996
aF4.5839999999999996
aF4.5499999999999998
aF4.5730000000000004
aa(lp988
g10
(S'\x07\xd7\n\x04'
tRp989
aF4.5730000000000004
aF4.5730000000000004
aF4.5709999999999997
aF4.5709999999999997
aa(lp990
g10
(S'\x07\xd7\n\x05'
tRp991
aF4.5709999999999997
aF4.5819999999999999
aF4.5709999999999997
aF4.5819999999999999
aa(lp992
g10
(S'\x07\xd7\n\x08'
tRp993
aF4.5819999999999999
aF4.5830000000000002
aF4.5720000000000001
aF4.5819999999999999
aa(lp994
g10
(S'\x07\xd7\n\t'
tRp995
aF4.5819999999999999
aF4.5819999999999999
aF4.569
aF4.5700000000000003
aa(lp996
g10
(S'\x07\xd7\n\n'
tRp997
aF4.5700000000000003
aF4.5899999999999999
aF4.5670000000000002
aF4.5899999999999999
aa(lp998
g10
(S'\x07\xd7\n\x0b'
tRp999
aF4.5899999999999999
aF4.6139999999999999
aF4.5839999999999996
aF4.6139999999999999
aa(lp1000
g10
(S'\x07\xd7\n\x0c'
tRp1001
aF4.6139999999999999
aF4.6299999999999999
aF4.5899999999999999
aF4.6299999999999999
aa(lp1002
g10
(S'\x07\xd7\n\x0f'
tRp1003
aF4.6289999999999996
aF4.6529999999999996
aF4.6289999999999996
aF4.6529999999999996
aa(lp1004
g10
(S'\x07\xd7\n\x10'
tRp1005
aF4.6529999999999996
aF4.6529999999999996
aF4.6280000000000001
aF4.649
aa(lp1006
g10
(S'\x07\xd7\n\x11'
tRp1007
aF4.649
aF4.649
aF4.6219999999999999
aF4.6390000000000002
aa(lp1008
g10
(S'\x07\xd7\n\x12'
tRp1009
aF4.6390000000000002
aF4.6390000000000002
aF4.5759999999999996
aF4.5899999999999999
aa(lp1010
g10
(S'\x07\xd7\n\x13'
tRp1011
aF4.5899999999999999
aF4.5899999999999999
aF4.5469999999999997
aF4.5540000000000003
aa(lp1012
g10
(S'\x07\xd7\n\x16'
tRp1013
aF4.5540000000000003
aF4.5540000000000003
aF4.4939999999999998
aF4.5030000000000001
aa(lp1014
g10
(S'\x07\xd7\n\x17'
tRp1015
aF4.5030000000000001
aF4.516
aF4.5030000000000001
aF4.516
aa(lp1016
g10
(S'\x07\xd7\n\x18'
tRp1017
aF4.516
aF4.516
aF4.5060000000000002
aF4.5060000000000002
aa(lp1018
g10
(S'\x07\xd7\n\x19'
tRp1019
aF4.5060000000000002
aF4.5060000000000002
aF4.4969999999999999
aF4.4969999999999999
aa(lp1020
g10
(S'\x07\xd7\n\x1a'
tRp1021
aF4.4969999999999999
aF4.5110000000000001
aF4.4969999999999999
aF4.5110000000000001
aa(lp1022
g10
(S'\x07\xd7\n\x1d'
tRp1023
aF4.5110000000000001
aF4.5110000000000001
aF4.4779999999999998
aF4.4779999999999998
aa(lp1024
g10
(S'\x07\xd7\n\x1e'
tRp1025
aF4.4779999999999998
aF4.4939999999999998
aF4.4779999999999998
aF4.4939999999999998
aa(lp1026
g10
(S'\x07\xd7\n\x1f'
tRp1027
aF4.4939999999999998
aF4.5190000000000001
aF4.4939999999999998
aF4.5190000000000001
aa(lp1028
g10
(S'\x07\xd7\x0b\x01'
tRp1029
aF4.5190000000000001
aF4.569
aF4.5190000000000001
aF4.54
aa(lp1030
g10
(S'\x07\xd7\x0b\x02'
tRp1031
aF4.54
aF4.54
aF4.5229999999999997
aF4.5229999999999997
aa(lp1032
g10
(S'\x07\xd7\x0b\x05'
tRp1033
aF4.5229999999999997
aF4.532
aF4.5229999999999997
aF4.532
aa(lp1034
g10
(S'\x07\xd7\x0b\x06'
tRp1035
aF4.532
aF4.5629999999999997
aF4.532
aF4.5609999999999999
aa(lp1036
g10
(S'\x07\xd7\x0b\x07'
tRp1037
aF4.5609999999999999
aF4.6120000000000001
aF4.5609999999999999
aF4.6050000000000004
aa(lp1038
g10
(S'\x07\xd7\x0b\x08'
tRp1039
aF4.6050000000000004
aF4.6299999999999999
aF4.6029999999999998
aF4.6299999999999999
aa(lp1040
g10
(S'\x07\xd7\x0b\t'
tRp1041
aF4.6299999999999999
aF4.6299999999999999
aF4.5860000000000003
aF4.6130000000000004
aa(lp1042
g10
(S'\x07\xd7\x0b\x0c'
tRp1043
aF4.6130000000000004
aF4.6130000000000004
aF4.601
aF4.609
aa(lp1044
g10
(S'\x07\xd7\x0b\r'
tRp1045
aF4.609
aF4.6120000000000001
aF4.5789999999999997
aF4.609
aa(lp1046
g10
(S'\x07\xd7\x0b\x0e'
tRp1047
aF4.609
aF4.6260000000000003
aF4.5810000000000004
aF4.6139999999999999
aa(lp1048
g10
(S'\x07\xd7\x0b\x0f'
tRp1049
aF4.6230000000000002
aF4.6230000000000002
aF4.5490000000000004
aF4.5709999999999997
aa(lp1050
g10
(S'\x07\xd7\x0b\x10'
tRp1051
aF4.5709999999999997
aF4.5709999999999997
aF4.532
aF4.5430000000000001
aa(lp1052
g10
(S'\x07\xd7\x0b\x13'
tRp1053
aF4.5430000000000001
aF4.5430000000000001
aF4.5030000000000001
aF4.5179999999999998
aa(lp1054
g10
(S'\x07\xd7\x0b\x14'
tRp1055
aF4.5179999999999998
aF4.5620000000000003
aF4.508
aF4.5549999999999997
aa(lp1056
g10
(S'\x07\xd7\x0b\x15'
tRp1057
aF4.5549999999999997
aF4.5629999999999997
aF4.5220000000000002
aF4.548
aa(lp1058
g10
(S'\x07\xd7\x0b\x16'
tRp1059
aF4.548
aF4.5570000000000004
aF4.5389999999999997
aF4.5540000000000003
aa(lp1060
g10
(S'\x07\xd7\x0b\x17'
tRp1061
aF4.5540000000000003
aF4.593
aF4.548
aF4.5919999999999996
aa(lp1062
g10
(S'\x07\xd7\x0b\x1a'
tRp1063
aF4.5919999999999996
aF4.6180000000000003
aF4.548
aF4.6150000000000002
aa(lp1064
g10
(S'\x07\xd7\x0b\x1b'
tRp1065
aF4.6150000000000002
aF4.6239999999999997
aF4.5970000000000004
aF4.6239999999999997
aa(lp1066
g10
(S'\x07\xd7\x0b\x1c'
tRp1067
aF4.6239999999999997
aF4.6509999999999998
aF4.5949999999999998
aF4.6509999999999998
aa(lp1068
g10
(S'\x07\xd7\x0b\x1d'
tRp1069
aF4.6509999999999998
aF4.6689999999999996
aF4.5789999999999997
aF4.5890000000000004
aa(lp1070
g10
(S'\x07\xd7\x0b\x1e'
tRp1071
aF4.5890000000000004
aF4.601
aF4.5599999999999996
aF4.601
aa(lp1072
g10
(S'\x07\xd7\x0c\x03'
tRp1073
aF4.601
aF4.6079999999999997
aF4.5670000000000002
aF4.5780000000000003
aa(lp1074
g10
(S'\x07\xd7\x0c\x04'
tRp1075
aF4.5780000000000003
aF4.5830000000000002
aF4.5529999999999999
aF4.5709999999999997
aa(lp1076
g10
(S'\x07\xd7\x0c\x05'
tRp1077
aF4.5709999999999997
aF4.5709999999999997
aF4.5529999999999999
aF4.5549999999999997
aa(lp1078
g10
(S'\x07\xd7\x0c\x06'
tRp1079
aF4.5549999999999997
aF4.5819999999999999
aF4.5369999999999999
aF4.5730000000000004
aa(lp1080
g10
(S'\x07\xd7\x0c\x07'
tRp1081
aF4.5730000000000004
aF4.6289999999999996
aF4.5730000000000004
aF4.6230000000000002
aa(lp1082
g10
(S'\x07\xd7\x0c\n'
tRp1083
aF4.6230000000000002
aF4.7140000000000004
aF4.6230000000000002
aF4.6929999999999996
aa(lp1084
g10
(S'\x07\xd7\x0c\x0b'
tRp1085
aF4.6929999999999996
aF4.7229999999999999
aF4.6699999999999999
aF4.7110000000000003
aa(lp1086
g10
(S'\x07\xd7\x0c\x0c'
tRp1087
aF4.726
aF4.7640000000000002
aF4.7110000000000003
aF4.7439999999999998
aa(lp1088
g10
(S'\x07\xd7\x0c\r'
tRp1089
aF4.7439999999999998
aF4.7729999999999997
aF4.7439999999999998
aF4.7519999999999998
aa(lp1090
g10
(S'\x07\xd7\x0c\x0e'
tRp1091
aF4.7519999999999998
aF4.7850000000000001
aF4.7489999999999997
aF4.7640000000000002
aa(lp1092
g10
(S'\x07\xd7\x0c\x11'
tRp1093
aF4.7640000000000002
aF4.7999999999999998
aF4.7640000000000002
aF4.7709999999999999
aa(lp1094
g10
(S'\x07\xd7\x0c\x12'
tRp1095
aF4.7720000000000002
aF4.8120000000000003
aF4.7569999999999997
aF4.7880000000000003
aa(lp1096
g10
(S'\x07\xd7\x0c\x13'
tRp1097
aF4.8179999999999996
aF4.8179999999999996
aF4.7489999999999997
aF4.7720000000000002
aa(lp1098
g10
(S'\x07\xd7\x0c\x14'
tRp1099
aF4.7720000000000002
aF4.7759999999999998
aF4.7519999999999998
aF4.7759999999999998
aa(lp1100
g10
(S'\x07\xd7\x0c\x15'
tRp1101
aF4.7759999999999998
aF4.7770000000000001
aF4.7560000000000002
aF4.7770000000000001
aa(lp1102
g10
(S'\x07\xd7\x0c\x18'
tRp1103
aF4.7770000000000001
aF4.7770000000000001
aF4.7679999999999998
aF4.7679999999999998
aa(lp1104
g10
(S'\x07\xd7\x0c\x19'
tRp1105
aF4.7679999999999998
aF4.7679999999999998
aF4.7679999999999998
aF4.7679999999999998
aa(lp1106
g10
(S'\x07\xd7\x0c\x1a'
tRp1107
aF4.7679999999999998
aF4.7679999999999998
aF4.7679999999999998
aF4.7679999999999998
aa(lp1108
g10
(S'\x07\xd7\x0c\x1b'
tRp1109
aF4.7679999999999998
aF4.7779999999999996
aF4.7560000000000002
aF4.7779999999999996
aa(lp1110
g10
(S'\x07\xd7\x0c\x1c'
tRp1111
aF4.7779999999999996
aF4.7779999999999996
aF4.7560000000000002
aF4.7640000000000002
aa(lp1112
g10
(S'\x07\xd7\x0c\x1f'
tRp1113
aF4.7640000000000002
aF4.7649999999999997
aF4.7640000000000002
aF4.7649999999999997
aa(lp1114
g10
(S'\x07\xd8\x01\x01'
tRp1115
aF4.7649999999999997
aF4.7850000000000001
aF4.7649999999999997
aF4.7850000000000001
aa(lp1116
g10
(S'\x07\xd8\x01\x02'
tRp1117
aF4.7850000000000001
aF4.7850000000000001
aF4.7389999999999999
aF4.7389999999999999
aa(lp1118
g10
(S'\x07\xd8\x01\x03'
tRp1119
aF4.7389999999999999
aF4.7389999999999999
aF4.657
aF4.657
aa(lp1120
g10
(S'\x07\xd8\x01\x04'
tRp1121
aF4.657
aF4.657
aF4.6130000000000004
aF4.6130000000000004
aa(lp1122
g10
(S'\x07\xd8\x01\x07'
tRp1123
aF4.6130000000000004
aF4.6289999999999996
aF4.5789999999999997
aF4.6059999999999999
aa(lp1124
g10
(S'\x07\xd8\x01\x08'
tRp1125
aF4.6059999999999999
aF4.6059999999999999
aF4.5730000000000004
aF4.5960000000000001
aa(lp1126
g10
(S'\x07\xd8\x01\t'
tRp1127
aF4.5960000000000001
aF4.5999999999999996
aF4.5789999999999997
aF4.5999999999999996
aa(lp1128
g10
(S'\x07\xd8\x01\n'
tRp1129
aF4.5999999999999996
aF4.6020000000000003
aF4.5839999999999996
aF4.6020000000000003
aa(lp1130
g10
(S'\x07\xd8\x01\x0b'
tRp1131
aF4.6020000000000003
aF4.6859999999999999
aF4.5810000000000004
aF4.6470000000000002
aa(lp1132
g10
(S'\x07\xd8\x01\x0e'
tRp1133
aF4.6470000000000002
aF4.6470000000000002
aF4.6120000000000001
aF4.6180000000000003
aa(lp1134
g10
(S'\x07\xd8\x01\x0f'
tRp1135
aF4.6180000000000003
aF4.6180000000000003
aF4.5990000000000002
aF4.5990000000000002
aa(lp1136
g10
(S'\x07\xd8\x01\x10'
tRp1137
aF4.5990000000000002
aF4.5999999999999996
aF4.5739999999999998
aF4.5999999999999996
aa(lp1138
g10
(S'\x07\xd8\x01\x11'
tRp1139
aF4.5999999999999996
aF4.5999999999999996
aF4.5810000000000004
aF4.593
aa(lp1140
g10
(S'\x07\xd8\x01\x12'
tRp1141
aF4.593
aF4.5979999999999999
aF4.5789999999999997
aF4.5979999999999999
aa(lp1142
g10
(S'\x07\xd8\x01\x15'
tRp1143
aF4.5979999999999999
aF4.5979999999999999
aF4.5519999999999996
aF4.5609999999999999
aa(lp1144
g10
(S'\x07\xd8\x01\x16'
tRp1145
aF4.5609999999999999
aF4.5629999999999997
aF4.4870000000000001
aF4.5629999999999997
aa(lp1146
g10
(S'\x07\xd8\x01\x17'
tRp1147
aF4.5629999999999997
aF4.5629999999999997
aF4.4950000000000001
aF4.5119999999999996
aa(lp1148
g10
(S'\x07\xd8\x01\x18'
tRp1149
aF4.5119999999999996
aF4.5679999999999996
aF4.5119999999999996
aF4.5599999999999996
aa(lp1150
g10
(S'\x07\xd8\x01\x19'
tRp1151
aF4.5599999999999996
aF4.5810000000000004
aF4.548
aF4.5549999999999997
aa(lp1152
g10
(S'\x07\xd8\x01\x1c'
tRp1153
aF4.5549999999999997
aF4.5549999999999997
aF4.5259999999999998
aF4.5259999999999998
aa(lp1154
g10
(S'\x07\xd8\x01\x1d'
tRp1155
aF4.5259999999999998
aF4.5430000000000001
aF4.5259999999999998
aF4.5430000000000001
aa(lp1156
g10
(S'\x07\xd8\x01\x1e'
tRp1157
aF4.5430000000000001
aF4.5739999999999998
aF4.5430000000000001
aF4.569
aa(lp1158
g10
(S'\x07\xd8\x01\x1f'
tRp1159
aF4.569
aF4.569
aF4.548
aF4.5549999999999997
aa(lp1160
g10
(S'\x07\xd8\x02\x01'
tRp1161
aF4.5549999999999997
aF4.5700000000000003
aF4.5549999999999997
aF4.5640000000000001
aa(lp1162
g10
(S'\x07\xd8\x02\x04'
tRp1163
aF4.5640000000000001
aF4.5819999999999999
aF4.5640000000000001
aF4.5780000000000003
aa(lp1164
g10
(S'\x07\xd8\x02\x05'
tRp1165
aF4.5780000000000003
aF4.5880000000000001
aF4.5359999999999996
aF4.5430000000000001
aa(lp1166
g10
(S'\x07\xd8\x02\x06'
tRp1167
aF4.5430000000000001
aF4.5570000000000004
aF4.5339999999999998
aF4.5339999999999998
aa(lp1168
g10
(S'\x07\xd8\x02\x07'
tRp1169
aF4.5339999999999998
aF4.5510000000000002
aF4.4740000000000002
aF4.4770000000000003
aa(lp1170
g10
(S'\x07\xd8\x02\x08'
tRp1171
aF4.4770000000000003
aF4.5430000000000001
aF4.4770000000000003
aF4.4989999999999997
aa(lp1172
g10
(S'\x07\xd8\x02\x0b'
tRp1173
aF4.4989999999999997
aF4.5369999999999999
aF4.4969999999999999
aF4.5140000000000002
aa(lp1174
g10
(S'\x07\xd8\x02\x0c'
tRp1175
aF4.5140000000000002
aF4.5759999999999996
aF4.5049999999999999
aF4.5759999999999996
aa(lp1176
g10
(S'\x07\xd8\x02\r'
tRp1177
aF4.5759999999999996
aF4.5759999999999996
aF4.5300000000000002
aF4.5650000000000004
aa(lp1178
g10
(S'\x07\xd8\x02\x0e'
tRp1179
aF4.5650000000000004
aF4.6120000000000001
aF4.5650000000000004
aF4.5970000000000004
aa(lp1180
g10
(S'\x07\xd8\x02\x0f'
tRp1181
aF4.5970000000000004
aF4.601
aF4.5469999999999997
aF4.5640000000000001
aa(lp1182
g10
(S'\x07\xd8\x02\x12'
tRp1183
aF4.5640000000000001
aF4.5810000000000004
aF4.5579999999999998
aF4.5720000000000001
aa(lp1184
g10
(S'\x07\xd8\x02\x13'
tRp1185
aF4.5720000000000001
aF4.5810000000000004
aF4.5650000000000004
aF4.5759999999999996
aa(lp1186
g10
(S'\x07\xd8\x02\x14'
tRp1187
aF4.5759999999999996
aF4.6360000000000001
aF4.5759999999999996
aF4.625
aa(lp1188
g10
(S'\x07\xd8\x02\x15'
tRp1189
aF4.625
aF4.6349999999999998
aF4.6210000000000004
aF4.6299999999999999
aa(lp1190
g10
(S'\x07\xd8\x02\x16'
tRp1191
aF4.6299999999999999
aF4.6299999999999999
aF4.5869999999999997
aF4.5999999999999996
aa(lp1192
g10
(S'\x07\xd8\x02\x19'
tRp1193
aF4.5999999999999996
aF4.6289999999999996
aF4.5999999999999996
aF4.6210000000000004
aa(lp1194
g10
(S'\x07\xd8\x02\x1a'
tRp1195
aF4.6210000000000004
aF4.6440000000000001
aF4.6210000000000004
aF4.6440000000000001
aa(lp1196
g10
(S'\x07\xd8\x02\x1b'
tRp1197
aF4.6440000000000001
aF4.6550000000000002
aF4.6340000000000003
aF4.6550000000000002
aa(lp1198
g10
(S'\x07\xd8\x02\x1c'
tRp1199
aF4.6550000000000002
aF4.6550000000000002
aF4.6310000000000002
aF4.6310000000000002
aa(lp1200
g10
(S'\x07\xd8\x02\x1d'
tRp1201
aF4.6310000000000002
aF4.6369999999999996
aF4.5750000000000002
aF4.5899999999999999
aa(lp1202
g10
(S'\x07\xd8\x03\x03'
tRp1203
aF4.5899999999999999
aF4.6200000000000001
aF4.5670000000000002
aF4.5810000000000004
aa(lp1204
g10
(S'\x07\xd8\x03\x04'
tRp1205
aF4.5810000000000004
aF4.5810000000000004
aF4.5389999999999997
aF4.5549999999999997
aa(lp1206
g10
(S'\x07\xd8\x03\x05'
tRp1207
aF4.5549999999999997
aF4.5700000000000003
aF4.5469999999999997
aF4.569
aa(lp1208
g10
(S'\x07\xd8\x03\x06'
tRp1209
aF4.569
aF4.5970000000000004
aF4.5540000000000003
aF4.5970000000000004
aa(lp1210
g10
(S'\x07\xd8\x03\x07'
tRp1211
aF4.5970000000000004
aF4.7779999999999996
aF4.5970000000000004
aF4.7770000000000001
aa(lp1212
g10
(S'\x07\xd8\x03\n'
tRp1213
aF4.7770000000000001
aF4.9119999999999999
aF4.7770000000000001
aF4.8200000000000003
aa(lp1214
g10
(S'\x07\xd8\x03\x0b'
tRp1215
aF4.8200000000000003
aF4.8200000000000003
aF4.7539999999999996
aF4.7789999999999999
aa(lp1216
g10
(S'\x07\xd8\x03\x0c'
tRp1217
aF4.7789999999999999
aF4.7789999999999999
aF4.7599999999999998
aF4.7599999999999998
aa(lp1218
g10
(S'\x07\xd8\x03\r'
tRp1219
aF4.7610000000000001
aF4.7610000000000001
aF4.6139999999999999
aF4.6429999999999998
aa(lp1220
g10
(S'\x07\xd8\x03\x0e'
tRp1221
aF4.6429999999999998
aF4.6429999999999998
aF4.5670000000000002
aF4.585
aa(lp1222
g10
(S'\x07\xd8\x03\x11'
tRp1223
aF4.585
aF4.585
aF4.5199999999999996
aF4.5570000000000004
aa(lp1224
g10
(S'\x07\xd8\x03\x12'
tRp1225
aF4.5570000000000004
aF4.6520000000000001
aF4.5570000000000004
aF4.6520000000000001
aa(lp1226
g10
(S'\x07\xd8\x03\x13'
tRp1227
aF4.6520000000000001
aF4.7649999999999997
aF4.6509999999999998
aF4.7649999999999997
aa(lp1228
g10
(S'\x07\xd8\x03\x14'
tRp1229
aF4.7649999999999997
aF4.7649999999999997
aF4.7199999999999998
aF4.7460000000000004
aa(lp1230
g10
(S'\x07\xd8\x03\x15'
tRp1231
aF4.7460000000000004
aF4.7469999999999999
aF4.7460000000000004
aF4.7469999999999999
aa(lp1232
g10
(S'\x07\xd8\x03\x18'
tRp1233
aF4.7469999999999999
aF4.7469999999999999
aF4.7469999999999999
aF4.7469999999999999
aa(lp1234
g10
(S'\x07\xd8\x03\x19'
tRp1235
aF4.7469999999999999
aF4.8159999999999998
aF4.7359999999999998
aF4.8159999999999998
aa(lp1236
g10
(S'\x07\xd8\x03\x1a'
tRp1237
aF4.8159999999999998
aF4.8159999999999998
aF4.7220000000000004
aF4.75
aa(lp1238
g10
(S'\x07\xd8\x03\x1b'
tRp1239
aF4.75
aF4.7519999999999998
aF4.7220000000000004
aF4.7519999999999998
aa(lp1240
g10
(S'\x07\xd8\x03\x1c'
tRp1241
aF4.7530000000000001
aF4.8120000000000003
aF4.7359999999999998
aF4.8120000000000003
aa(lp1242
g10
(S'\x07\xd8\x03\x1f'
tRp1243
aF4.8120000000000003
aF4.8419999999999996
aF4.8040000000000003
aF4.8339999999999996
aa(lp1244
g10
(S'\x07\xd8\x04\x01'
tRp1245
aF4.8339999999999996
aF4.8479999999999999
aF4.8259999999999996
aF4.8259999999999996
aa(lp1246
g10
(S'\x07\xd8\x04\x02'
tRp1247
aF4.8259999999999996
aF4.8700000000000001
aF4.8259999999999996
aF4.8700000000000001
aa(lp1248
g10
(S'\x07\xd8\x04\x03'
tRp1249
aF4.8710000000000004
aF4.8760000000000003
aF4.8620000000000001
aF4.8739999999999997
aa(lp1250
g10
(S'\x07\xd8\x04\x04'
tRp1251
aF4.8739999999999997
aF4.8739999999999997
aF4.8570000000000002
aF4.8570000000000002
aa(lp1252
g10
(S'\x07\xd8\x04\x07'
tRp1253
aF4.8570000000000002
aF4.8760000000000003
aF4.8570000000000002
aF4.8760000000000003
aa(lp1254
g10
(S'\x07\xd8\x04\x08'
tRp1255
aF4.8760000000000003
aF4.8760000000000003
aF4.8310000000000004
aF4.8419999999999996
aa(lp1256
g10
(S'\x07\xd8\x04\t'
tRp1257
aF4.8419999999999996
aF4.8419999999999996
aF4.7640000000000002
aF4.7640000000000002
aa(lp1258
g10
(S'\x07\xd8\x04\n'
tRp1259
aF4.7640000000000002
aF4.7919999999999998
aF4.7359999999999998
aF4.7359999999999998
aa(lp1260
g10
(S'\x07\xd8\x04\x0b'
tRp1261
aF4.7359999999999998
aF4.7359999999999998
aF4.7229999999999999
aF4.7229999999999999
aa(lp1262
g10
(S'\x07\xd8\x04\x0e'
tRp1263
aF4.7229999999999999
aF4.7229999999999999
aF4.6950000000000003
aF4.6950000000000003
aa(lp1264
g10
(S'\x07\xd8\x04\x0f'
tRp1265
aF4.6950000000000003
aF4.6950000000000003
aF4.6539999999999999
aF4.6600000000000001
aa(lp1266
g10
(S'\x07\xd8\x04\x10'
tRp1267
aF4.6600000000000001
aF4.6600000000000001
aF4.6509999999999998
aF4.6509999999999998
aa(lp1268
g10
(S'\x07\xd8\x04\x11'
tRp1269
aF4.6509999999999998
aF4.7210000000000001
aF4.6509999999999998
aF4.7210000000000001
aa(lp1270
g10
(S'\x07\xd8\x04\x12'
tRp1271
aF4.7210000000000001
aF4.7210000000000001
aF4.7050000000000001
aF4.7050000000000001
aa(lp1272
g10
(S'\x07\xd8\x04\x15'
tRp1273
aF4.7050000000000001
aF4.7050000000000001
aF4.6689999999999996
aF4.6689999999999996
aa(lp1274
g10
(S'\x07\xd8\x04\x16'
tRp1275
aF4.6689999999999996
aF4.7060000000000004
aF4.6669999999999998
aF4.7060000000000004
aa(lp1276
g10
(S'\x07\xd8\x04\x17'
tRp1277
aF4.7060000000000004
aF4.7060000000000004
aF4.6680000000000001
aF4.6920000000000002
aa(lp1278
g10
(S'\x07\xd8\x04\x18'
tRp1279
aF4.6920000000000002
aF4.7480000000000002
aF4.6790000000000003
aF4.7460000000000004
aa(lp1280
g10
(S'\x07\xd8\x04\x19'
tRp1281
aF4.7460000000000004
aF4.8179999999999996
aF4.7460000000000004
aF4.7960000000000003
aa(lp1282
g10
(S'\x07\xd8\x04\x1c'
tRp1283
aF4.7960000000000003
aF4.8200000000000003
aF4.7800000000000002
aF4.8200000000000003
aa(lp1284
g10
(S'\x07\xd8\x04\x1d'
tRp1285
aF4.8200000000000003
aF4.8200000000000003
aF4.7930000000000001
aF4.7939999999999996
aa(lp1286
g10
(S'\x07\xd8\x04\x1e'
tRp1287
aF4.7949999999999999
aF4.7949999999999999
aF4.7309999999999999
aF4.7809999999999997
aa(lp1288
g10
(S'\x07\xd8\x05\x01'
tRp1289
aF4.742
aF4.7779999999999996
aF4.7309999999999999
aF4.7779999999999996
aa(lp1290
g10
(S'\x07\xd8\x05\x02'
tRp1291
aF4.7779999999999996
aF4.8209999999999997
aF4.7549999999999999
aF4.8209999999999997
aa(lp1292
g10
(S'\x07\xd8\x05\x05'
tRp1293
aF4.8209999999999997
aF4.8209999999999997
aF4.806
aF4.8170000000000002
aa(lp1294
g10
(S'\x07\xd8\x05\x06'
tRp1295
aF4.8170000000000002
aF4.8170000000000002
aF4.7190000000000003
aF4.7190000000000003
aa(lp1296
g10
(S'\x07\xd8\x05\x07'
tRp1297
aF4.7190000000000003
aF4.7759999999999998
aF4.6970000000000001
aF4.7009999999999996
aa(lp1298
g10
(S'\x07\xd8\x05\x08'
tRp1299
aF4.7009999999999996
aF4.702
aF4.6699999999999999
aF4.702
aa(lp1300
g10
(S'\x07\xd8\x05\t'
tRp1301
aF4.702
aF4.702
aF4.6349999999999998
aF4.6509999999999998
aa(lp1302
g10
(S'\x07\xd8\x05\x0c'
tRp1303
aF4.6509999999999998
aF4.6890000000000001
aF4.6470000000000002
aF4.6890000000000001
aa(lp1304
g10
(S'\x07\xd8\x05\r'
tRp1305
aF4.6890000000000001
aF4.7119999999999997
aF4.6660000000000004
aF4.7119999999999997
aa(lp1306
g10
(S'\x07\xd8\x05\x0e'
tRp1307
aF4.7130000000000001
aF4.7560000000000002
aF4.6749999999999998
aF4.7560000000000002
aa(lp1308
g10
(S'\x07\xd8\x05\x0f'
tRp1309
aF4.7569999999999997
aF4.835
aF4.7240000000000002
aF4.835
aa(lp1310
g10
(S'\x07\xd8\x05\x10'
tRp1311
aF4.8360000000000003
aF4.8360000000000003
aF4.7999999999999998
aF4.8070000000000004
aa(lp1312
g10
(S'\x07\xd8\x05\x13'
tRp1313
aF4.8070000000000004
aF4.8070000000000004
aF4.7670000000000003
aF4.7949999999999999
aa(lp1314
g10
(S'\x07\xd8\x05\x14'
tRp1315
aF4.7949999999999999
aF4.7949999999999999
aF4.7789999999999999
aF4.7910000000000004
aa(lp1316
g10
(S'\x07\xd8\x05\x15'
tRp1317
aF4.7910000000000004
aF4.8579999999999997
aF4.7789999999999999
aF4.8179999999999996
aa(lp1318
g10
(S'\x07\xd8\x05\x16'
tRp1319
aF4.8179999999999996
aF4.9349999999999996
aF4.8179999999999996
aF4.9249999999999998
aa(lp1320
g10
(S'\x07\xd8\x05\x17'
tRp1321
aF4.9249999999999998
aF4.9249999999999998
aF4.8799999999999999
aF4.9009999999999998
aa(lp1322
g10
(S'\x07\xd8\x05\x1a'
tRp1323
aF4.9020000000000001
aF4.9020000000000001
aF4.8890000000000002
aF4.8929999999999998
aa(lp1324
g10
(S'\x07\xd8\x05\x1b'
tRp1325
aF4.8929999999999998
aF4.9889999999999999
aF4.8890000000000002
aF4.9889999999999999
aa(lp1326
g10
(S'\x07\xd8\x05\x1c'
tRp1327
aF4.9889999999999999
aF5.0579999999999998
aF4.9889999999999999
aF5.0579999999999998
aa(lp1328
g10
(S'\x07\xd8\x05\x1d'
tRp1329
aF5.0579999999999998
aF5.1840000000000002
aF5.0579999999999998
aF5.1740000000000004
aa(lp1330
g10
(S'\x07\xd8\x05\x1e'
tRp1331
aF5.1740000000000004
aF5.1820000000000004
aF5.1689999999999996
aF5.1689999999999996
aa(lp1332
g10
(S'\x07\xd8\x06\x02'
tRp1333
aF5.1689999999999996
aF5.1689999999999996
aF5.0970000000000004
aF5.1070000000000002
aa(lp1334
g10
(S'\x07\xd8\x06\x03'
tRp1335
aF5.1070000000000002
aF5.1219999999999999
aF5.0759999999999996
aF5.1219999999999999
aa(lp1336
g10
(S'\x07\xd8\x06\x04'
tRp1337
aF5.1230000000000002
aF5.1230000000000002
aF5.0810000000000004
aF5.0810000000000004
aa(lp1338
g10
(S'\x07\xd8\x06\x05'
tRp1339
aF5.0810000000000004
aF5.1719999999999997
aF5.0810000000000004
aF5.1719999999999997
aa(lp1340
g10
(S'\x07\xd8\x06\x06'
tRp1341
aF5.1719999999999997
aF5.1879999999999997
aF5.1379999999999999
aF5.1539999999999999
aa(lp1342
g10
(S'\x07\xd8\x06\t'
tRp1343
aF5.1539999999999999
aF5.1660000000000004
aF5.0940000000000003
aF5.1529999999999996
aa(lp1344
g10
(S'\x07\xd8\x06\n'
tRp1345
aF5.1529999999999996
aF5.2069999999999999
aF5.1440000000000001
aF5.2069999999999999
aa(lp1346
g10
(S'\x07\xd8\x06\x0b'
tRp1347
aF5.2069999999999999
aF5.2069999999999999
aF5.149
aF5.2050000000000001
aa(lp1348
g10
(S'\x07\xd8\x06\x0c'
tRp1349
aF5.2050000000000001
aF5.2699999999999996
aF5.1520000000000001
aF5.2699999999999996
aa(lp1350
g10
(S'\x07\xd8\x06\r'
tRp1351
aF5.2699999999999996
aF5.3040000000000003
aF5.2699999999999996
aF5.3040000000000003
aa(lp1352
g10
(S'\x07\xd8\x06\x10'
tRp1353
aF5.3040000000000003
aF5.3659999999999997
aF5.2949999999999999
aF5.3659999999999997
aa(lp1354
g10
(S'\x07\xd8\x06\x11'
tRp1355
aF5.3470000000000004
aF5.3470000000000004
aF5.2460000000000004
aF5.2460000000000004
aa(lp1356
g10
(S'\x07\xd8\x06\x12'
tRp1357
aF5.2469999999999999
aF5.2869999999999999
aF5.0810000000000004
aF5.0810000000000004
aa(lp1358
g10
(S'\x07\xd8\x06\x13'
tRp1359
aF5.0810000000000004
aF5.1399999999999997
aF5.0519999999999996
aF5.1399999999999997
aa(lp1360
g10
(S'\x07\xd8\x06\x14'
tRp1361
aF5.1399999999999997
aF5.181
aF5.1289999999999996
aF5.1289999999999996
aa(lp1362
g10
(S'\x07\xd8\x06\x17'
tRp1363
aF5.1299999999999999
aF5.1299999999999999
aF5.032
aF5.0490000000000004
aa(lp1364
g10
(S'\x07\xd8\x06\x18'
tRp1365
aF5.0490000000000004
aF5.0490000000000004
aF5.0060000000000002
aF5.016
aa(lp1366
g10
(S'\x07\xd8\x06\x19'
tRp1367
aF5.0170000000000003
aF5.0519999999999996
aF5.0069999999999997
aF5.0519999999999996
aa(lp1368
g10
(S'\x07\xd8\x06\x1a'
tRp1369
aF5.0519999999999996
aF5.0519999999999996
aF4.9939999999999998
aF5.0439999999999996
aa(lp1370
g10
(S'\x07\xd8\x06\x1b'
tRp1371
aF5.0439999999999996
aF5.069
aF5.0330000000000004
aF5.069
aa(lp1372
g10
(S'\x07\xd8\x06\x1e'
tRp1373
aF5.0599999999999996
aF5.1520000000000001
aF5.0599999999999996
aF5.1520000000000001
aa(lp1374
g10
(S'\x07\xd8\x07\x01'
tRp1375
aF5.1520000000000001
aF5.1639999999999997
aF5.0890000000000004
aF5.1219999999999999
aa(lp1376
g10
(S'\x07\xd8\x07\x02'
tRp1377
aF5.1230000000000002
aF5.1449999999999996
aF5.1200000000000001
aF5.1449999999999996
aa(lp1378
g10
(S'\x07\xd8\x07\x03'
tRp1379
aF5.1449999999999996
aF5.1760000000000002
aF5.0780000000000003
aF5.0780000000000003
aa(lp1380
g10
(S'\x07\xd8\x07\x04'
tRp1381
aF5.0789999999999997
aF5.1159999999999997
aF5.0640000000000001
aF5.0640000000000001
aa(lp1382
g10
(S'\x07\xd8\x07\x07'
tRp1383
aF5.0650000000000004
aF5.0650000000000004
aF4.9820000000000002
aF4.9939999999999998
aa(lp1384
g10
(S'\x07\xd8\x07\x08'
tRp1385
aF4.9939999999999998
aF4.9939999999999998
aF4.9320000000000004
aF4.96
aa(lp1386
g10
(S'\x07\xd8\x07\t'
tRp1387
aF4.96
aF4.96
aF4.9219999999999997
aF4.9530000000000003
aa(lp1388
g10
(S'\x07\xd8\x07\n'
tRp1389
aF4.9530000000000003
aF4.9530000000000003
aF4.8789999999999996
aF4.8970000000000002
aa(lp1390
g10
(S'\x07\xd8\x07\x0b'
tRp1391
aF4.8970000000000002
aF4.907
aF4.8140000000000001
aF4.8470000000000004
aa(lp1392
g10
(S'\x07\xd8\x07\x0e'
tRp1393
aF4.8470000000000004
aF4.8579999999999997
aF4.8079999999999998
aF4.8390000000000004
aa(lp1394
g10
(S'\x07\xd8\x07\x0f'
tRp1395
aF4.8390000000000004
aF4.8390000000000004
aF4.7770000000000001
aF4.8230000000000004
aa(lp1396
g10
(S'\x07\xd8\x07\x10'
tRp1397
aF4.8259999999999996
aF4.8559999999999999
aF4.7960000000000003
aF4.8559999999999999
aa(lp1398
g10
(S'\x07\xd8\x07\x11'
tRp1399
aF4.8559999999999999
aF4.9290000000000003
aF4.8559999999999999
aF4.9290000000000003
aa(lp1400
g10
(S'\x07\xd8\x07\x12'
tRp1401
aF4.9109999999999996
aF5.0039999999999996
aF4.9059999999999997
aF5.0039999999999996
aa(lp1402
g10
(S'\x07\xd8\x07\x15'
tRp1403
aF4.9900000000000002
aF5.0499999999999998
aF4.9900000000000002
aF5.0499999999999998
aa(lp1404
g10
(S'\x07\xd8\x07\x16'
tRp1405
aF5.0179999999999998
aF5.0179999999999998
aF4.8840000000000003
aF4.8940000000000001
aa(lp1406
g10
(S'\x07\xd8\x07\x17'
tRp1407
aF4.8940000000000001
aF4.9290000000000003
aF4.8819999999999997
aF4.9020000000000001
aa(lp1408
g10
(S'\x07\xd8\x07\x18'
tRp1409
aF4.9020000000000001
aF4.9020000000000001
aF4.8360000000000003
aF4.843
aa(lp1410
g10
(S'\x07\xd8\x07\x19'
tRp1411
aF4.843
aF4.843
aF4.7999999999999998
aF4.835
aa(lp1412
g10
(S'\x07\xd8\x07\x1c'
tRp1413
aF4.835
aF4.8399999999999999
aF4.8099999999999996
aF4.8129999999999997
aa(lp1414
g10
(S'\x07\xd8\x07\x1d'
tRp1415
aF4.8129999999999997
aF4.8129999999999997
aF4.7199999999999998
aF4.7549999999999999
aa(lp1416
g10
(S'\x07\xd8\x07\x1e'
tRp1417
aF4.7549999999999999
aF4.7590000000000003
aF4.6070000000000002
aF4.6470000000000002
aa(lp1418
g10
(S'\x07\xd8\x07\x1f'
tRp1419
aF4.6470000000000002
aF4.6550000000000002
aF4.6070000000000002
aF4.6070000000000002
aa(lp1420
g10
(S'\x07\xd8\x08\x01'
tRp1421
aF4.6070000000000002
aF4.6310000000000002
aF4.5979999999999999
aF4.6200000000000001
aa(lp1422
g10
(S'\x07\xd8\x08\x04'
tRp1423
aF4.6200000000000001
aF4.6210000000000004
aF4.6130000000000004
aF4.6130000000000004
aa(lp1424
g10
(S'\x07\xd8\x08\x05'
tRp1425
aF4.6130000000000004
aF4.6130000000000004
aF4.5359999999999996
aF4.5359999999999996
aa(lp1426
g10
(S'\x07\xd8\x08\x06'
tRp1427
aF4.5359999999999996
aF4.5359999999999996
aF4.4930000000000003
aF4.4969999999999999
aa(lp1428
g10
(S'\x07\xd8\x08\x07'
tRp1429
aF4.4969999999999999
aF4.5529999999999999
aF4.4820000000000002
aF4.4820000000000002
aa(lp1430
g10
(S'\x07\xd8\x08\x08'
tRp1431
aF4.4820000000000002
aF4.5609999999999999
aF4.4779999999999998
aF4.5579999999999998
aa(lp1432
g10
(S'\x07\xd8\x08\x0b'
tRp1433
aF4.5579999999999998
aF4.6040000000000001
aF4.5579999999999998
aF4.6040000000000001
aa(lp1434
g10
(S'\x07\xd8\x08\x0c'
tRp1435
aF4.6040000000000001
aF4.6040000000000001
aF4.5700000000000003
aF4.5800000000000001
aa(lp1436
g10
(S'\x07\xd8\x08\r'
tRp1437
aF4.5800000000000001
aF4.5800000000000001
aF4.5369999999999999
aF4.5430000000000001
aa(lp1438
g10
(S'\x07\xd8\x08\x0e'
tRp1439
aF4.5430000000000001
aF4.5430000000000001
aF4.5019999999999998
aF4.5019999999999998
aa(lp1440
g10
(S'\x07\xd8\x08\x0f'
tRp1441
aF4.5019999999999998
aF4.5110000000000001
aF4.4800000000000004
aF4.4800000000000004
aa(lp1442
g10
(S'\x07\xd8\x08\x12'
tRp1443
aF4.4800000000000004
aF4.4800000000000004
aF4.3959999999999999
aF4.3959999999999999
aa(lp1444
g10
(S'\x07\xd8\x08\x13'
tRp1445
aF4.3959999999999999
aF4.3959999999999999
aF4.335
aF4.3609999999999998
aa(lp1446
g10
(S'\x07\xd8\x08\x14'
tRp1447
aF4.3600000000000003
aF4.4169999999999998
aF4.3600000000000003
aF4.4009999999999998
aa(lp1448
g10
(S'\x07\xd8\x08\x15'
tRp1449
aF4.4009999999999998
aF4.4139999999999997
aF4.4009999999999998
aF4.4139999999999997
aa(lp1450
g10
(S'\x07\xd8\x08\x16'
tRp1451
aF4.4130000000000003
aF4.4340000000000002
aF4.4130000000000003
aF4.423
aa(lp1452
g10
(S'\x07\xd8\x08\x19'
tRp1453
aF4.423
aF4.423
aF4.407
aF4.407
aa(lp1454
g10
(S'\x07\xd8\x08\x1a'
tRp1455
aF4.407
aF4.4370000000000003
aF4.4029999999999996
aF4.4029999999999996
aa(lp1456
g10
(S'\x07\xd8\x08\x1b'
tRp1457
aF4.4219999999999997
aF4.4649999999999999
aF4.4219999999999997
aF4.4580000000000002
aa(lp1458
g10
(S'\x07\xd8\x08\x1c'
tRp1459
aF4.4580000000000002
aF4.5110000000000001
aF4.4580000000000002
aF4.5060000000000002
aa(lp1460
g10
(S'\x07\xd8\x08\x1d'
tRp1461
aF4.5060000000000002
aF4.5060000000000002
aF4.4710000000000001
aF4.4710000000000001
aa(lp1462
g10
(S'\x07\xd8\t\x01'
tRp1463
aF4.4699999999999998
aF4.4969999999999999
aF4.4699999999999998
aF4.492
aa(lp1464
g10
(S'\x07\xd8\t\x02'
tRp1465
aF4.492
aF4.5540000000000003
aF4.492
aF4.5499999999999998
aa(lp1466
g10
(S'\x07\xd8\t\x03'
tRp1467
aF4.5499999999999998
aF4.5499999999999998
aF4.5199999999999996
aF4.5199999999999996
aa(lp1468
g10
(S'\x07\xd8\t\x04'
tRp1469
aF4.5199999999999996
aF4.5220000000000002
aF4.4400000000000004
aF4.4400000000000004
aa(lp1470
g10
(S'\x07\xd8\t\x05'
tRp1471
aF4.4400000000000004
aF4.4400000000000004
aF4.4109999999999996
aF4.4260000000000002
aa(lp1472
g10
(S'\x07\xd8\t\x08'
tRp1473
aF4.4160000000000004
aF4.5220000000000002
aF4.4160000000000004
aF4.4589999999999996
aa(lp1474
g10
(S'\x07\xd8\t\t'
tRp1475
aF4.4589999999999996
aF4.5279999999999996
aF4.4420000000000002
aF4.5279999999999996
aa(lp1476
g10
(S'\x07\xd8\t\n'
tRp1477
aF4.5279999999999996
aF4.5279999999999996
aF4.4560000000000004
aF4.5179999999999998
aa(lp1478
g10
(S'\x07\xd8\t\x0b'
tRp1479
aF4.4960000000000004
aF4.4960000000000004
aF4.4020000000000001
aF4.4160000000000004
aa(lp1480
g10
(S'\x07\xd8\t\x0c'
tRp1481
aF4.4160000000000004
aF4.4219999999999997
aF4.3639999999999999
aF4.3860000000000001
aa(lp1482
g10
(S'\x07\xd8\t\x0f'
tRp1483
aF4.3860000000000001
aF4.4489999999999998
aF4.3390000000000004
aF4.3460000000000001
aa(lp1484
g10
(S'\x07\xd8\t\x10'
tRp1485
aF4.3460000000000001
aF4.3460000000000001
aF4.2519999999999998
aF4.29
aa(lp1486
g10
(S'\x07\xd8\t\x11'
tRp1487
aF4.2889999999999997
aF4.3259999999999996
aF4.2770000000000001
aF4.3099999999999996
aa(lp1488
g10
(S'\x07\xd8\t\x12'
tRp1489
aF4.3259999999999996
aF4.3360000000000003
aF4.2949999999999999
aF4.335
aa(lp1490
g10
(S'\x07\xd8\t\x13'
tRp1491
aF4.335
aF4.3620000000000001
aF4.3010000000000002
aF4.3620000000000001
aa(lp1492
g10
(S'\x07\xd8\t\x16'
tRp1493
aF4.399
aF4.4710000000000001
aF4.3609999999999998
aF4.4710000000000001
aa(lp1494
g10
(S'\x07\xd8\t\x17'
tRp1495
aF4.4710000000000001
aF4.5359999999999996
aF4.4509999999999996
aF4.5359999999999996
aa(lp1496
g10
(S'\x07\xd8\t\x18'
tRp1497
aF4.5250000000000004
aF4.5250000000000004
aF4.4660000000000002
aF4.4870000000000001
aa(lp1498
g10
(S'\x07\xd8\t\x19'
tRp1499
aF4.4870000000000001
aF4.4870000000000001
aF4.4660000000000002
aF4.476
aa(lp1500
g10
(S'\x07\xd8\t\x1a'
tRp1501
aF4.476
aF4.4820000000000002
aF4.4690000000000003
aF4.4820000000000002
aa(lp1502
g10
(S'\x07\xd8\t\x1d'
tRp1503
aF4.4820000000000002
aF4.4820000000000002
aF4.383
aF4.4009999999999998
aa(lp1504
g10
(S'\x07\xd8\t\x1e'
tRp1505
aF4.4000000000000004
aF4.4089999999999998
aF4.3730000000000002
aF4.3730000000000002
aa(lp1506
g10
(S'\x07\xd8\n\x01'
tRp1507
aF4.3730000000000002
aF4.3799999999999999
aF4.3650000000000002
aF4.3650000000000002
aa(lp1508
g10
(S'\x07\xd8\n\x02'
tRp1509
aF4.3650000000000002
aF4.3650000000000002
aF4.2450000000000001
aF4.2699999999999996
aa(lp1510
g10
(S'\x07\xd8\n\x03'
tRp1511
aF4.2699999999999996
aF4.2699999999999996
aF4.2119999999999997
aF4.2229999999999999
aa(lp1512
g10
(S'\x07\xd8\n\x06'
tRp1513
aF4.2229999999999999
aF4.2229999999999999
aF4.1749999999999998
aF4.1820000000000004
aa(lp1514
g10
(S'\x07\xd8\n\x07'
tRp1515
aF4.1820000000000004
aF4.2130000000000001
aF4.1760000000000002
aF4.1769999999999996
aa(lp1516
g10
(S'\x07\xd8\n\x08'
tRp1517
aF4.1760000000000002
aF4.1950000000000003
aF4.125
aF4.1360000000000001
aa(lp1518
g10
(S'\x07\xd8\n\t'
tRp1519
aF4.1360000000000001
aF4.2380000000000004
aF4.1360000000000001
aF4.1760000000000002
aa(lp1520
g10
(S'\x07\xd8\n\n'
tRp1521
aF4.1760000000000002
aF4.2839999999999998
aF4.1529999999999996
aF4.1660000000000004
aa(lp1522
g10
(S'\x07\xd8\n\r'
tRp1523
aF4.165
aF4.4219999999999997
aF4.165
aF4.165
aa(lp1524
g10
(S'\x07\xd8\n\x0e'
tRp1525
aF4.165
aF4.4020000000000001
aF4.165
aF4.165
aa(lp1526
g10
(S'\x07\xd8\n\x0f'
tRp1527
aF4.165
aF4.4649999999999999
aF4.165
aF4.165
aa(lp1528
g10
(S'\x07\xd8\n\x10'
tRp1529
aF4.165
aF4.3970000000000002
aF4.165
aF4.165
aa(lp1530
g10
(S'\x07\xd8\n\x11'
tRp1531
aF4.165
aF4.6509999999999998
aF4.165
aF4.6429999999999998
aa(lp1532
g10
(S'\x07\xd8\n\x15'
tRp1533
aF4.1639999999999997
aF4.1639999999999997
aF4.1639999999999997
aF4.1639999999999997
aa(lp1534
g10
(S'\x07\xd8\n\x16'
tRp1535
aF4.6580000000000004
aF4.6580000000000004
aF4.6580000000000004
aF4.6580000000000004
aa(lp1536
g10
(S'\x07\xd8\n\x17'
tRp1537
aF5.1420000000000003
aF5.1420000000000003
aF5.1420000000000003
aF5.1420000000000003
aa(lp1538
g10
(S'\x07\xd8\n\x18'
tRp1539
aF5.2039999999999997
aF5.2039999999999997
aF5.2039999999999997
aF5.2039999999999997
aa(lp1540
g10
(S'\x07\xd8\n\x1b'
tRp1541
aF5.258
aF5.2729999999999997
aF5.1349999999999998
aF5.1349999999999998
aa(lp1542
g10
(S'\x07\xd8\n\x1c'
tRp1543
aF5.1349999999999998
aF5.258
aF5
aF5.258
aa(lp1544
g10
(S'\x07\xd8\n\x1d'
tRp1545
aF5.2590000000000003
aF5.2590000000000003
aF4.9199999999999999
aF4.9409999999999998
aa(lp1546
g10
(S'\x07\xd8\n\x1e'
tRp1547
aF4.9409999999999998
aF5.2590000000000003
aF4.9279999999999999
aF5.2590000000000003
aa(lp1548
g10
(S'\x07\xd8\n\x1f'
tRp1549
aF5.2590000000000003
aF5.2590000000000003
aF4.9199999999999999
aF4.9199999999999999
aa(lp1550
g10
(S'\x07\xd8\x0b\x03'
tRp1551
aF4.8940000000000001
aF4.8940000000000001
aF4.8940000000000001
aF4.8940000000000001
aa(lp1552
g10
(S'\x07\xd8\x0b\x05'
tRp1553
aF4.8140000000000001
aF4.8140000000000001
aF4.8140000000000001
aF4.8140000000000001
aa(lp1554
g10
(S'\x07\xd8\x0b\x06'
tRp1555
aF4.5330000000000004
aF4.5330000000000004
aF4.5330000000000004
aF4.5330000000000004
aa(lp1556
g10
(S'\x07\xd8\x0b\x07'
tRp1557
aF4.6120000000000001
aF4.6120000000000001
aF4.6120000000000001
aF4.6120000000000001
aa(lp1558
g10
(S'\x07\xd8\x0b\n'
tRp1559
aF4.5919999999999996
aF4.6379999999999999
aF4.5430000000000001
aF4.5430000000000001
aa(lp1560
g10
(S'\x07\xd8\x0b\x0b'
tRp1561
aF4.5430000000000001
aF4.6040000000000001
aF4.4980000000000002
aF4.6040000000000001
aa(lp1562
g10
(S'\x07\xd8\x0b\x0c'
tRp1563
aF4.6029999999999998
aF4.6029999999999998
aF4.5330000000000004
aF4.5330000000000004
aa(lp1564
g10
(S'\x07\xd8\x0b\r'
tRp1565
aF4.5330000000000004
aF4.5899999999999999
aF4.5330000000000004
aF4.5899999999999999
aa(lp1566
g10
(S'\x07\xd8\x0b\x0e'
tRp1567
aF4.5899999999999999
aF4.5899999999999999
aF4.5659999999999998
aF4.5659999999999998
aa(lp1568
g10
(S'\x07\xd8\x0b\x11'
tRp1569
aF4.4859999999999998
aF4.4859999999999998
aF4.4859999999999998
aF4.4859999999999998
aa(lp1570
g10
(S'\x07\xd8\x0b\x12'
tRp1571
aF4.593
aF4.593
aF4.593
aF4.593
aa(lp1572
g10
(S'\x07\xd8\x0b\x13'
tRp1573
aF4.4000000000000004
aF4.4000000000000004
aF4.4000000000000004
aF4.4000000000000004
aa(lp1574
g10
(S'\x07\xd8\x0b\x14'
tRp1575
aF4.5309999999999997
aF4.5309999999999997
aF4.5309999999999997
aF4.5309999999999997
aa(lp1576
g10
(S'\x07\xd8\x0b\x15'
tRp1577
aF4.3970000000000002
aF4.3970000000000002
aF4.3970000000000002
aF4.3970000000000002
aa(lp1578
g10
(S'\x07\xd8\x0b\x18'
tRp1579
aF4.3959999999999999
aF4.3959999999999999
aF4.2919999999999998
aF4.2919999999999998
aa(lp1580
g10
(S'\x07\xd8\x0b\x19'
tRp1581
aF4.335
aF4.399
aF4.2939999999999996
aF4.2939999999999996
aa(lp1582
g10
(S'\x07\xd8\x0b\x1a'
tRp1583
aF4.3170000000000002
aF4.4119999999999999
aF4.2690000000000001
aF4.2690000000000001
aa(lp1584
g10
(S'\x07\xd8\x0b\x1b'
tRp1585
aF4.2939999999999996
aF4.2939999999999996
aF4.2939999999999996
aF4.2939999999999996
aa(lp1586
g10
(S'\x07\xd8\x0b\x1c'
tRp1587
aF4.306
aF4.306
aF4.306
aF4.306
aa(lp1588
g10
(S'\x07\xd8\x0c\x01'
tRp1589
aF4.306
aF4.306
aF4.306
aF4.306
aa(lp1590
g10
(S'\x07\xd8\x0c\x02'
tRp1591
aF4.2949999999999999
aF4.2949999999999999
aF4.2949999999999999
aF4.2949999999999999
aa(lp1592
g10
(S'\x07\xd8\x0c\x03'
tRp1593
aF4.2939999999999996
aF4.4660000000000002
aF4.1699999999999999
aF4.4660000000000002
aa(lp1594
g10
(S'\x07\xd8\x0c\x04'
tRp1595
aF4.4660000000000002
aF4.4660000000000002
aF4.2599999999999998
aF4.2599999999999998
aa(lp1596
g10
(S'\x07\xd8\x0c\x05'
tRp1597
aF4.2590000000000003
aF4.2590000000000003
aF4.2590000000000003
aF4.2590000000000003
aa(lp1598
g10
(S'\x07\xd8\x0c\t'
tRp1599
aF4.2720000000000002
aF4.2720000000000002
aF4.2720000000000002
aF4.2720000000000002
aa(lp1600
g10
(S'\x07\xd8\x0c\n'
tRp1601
aF4.2720000000000002
aF4.2720000000000002
aF4.2539999999999996
aF4.2539999999999996
aa(lp1602
g10
(S'\x07\xd8\x0c\x0b'
tRp1603
aF4.2539999999999996
aF4.2539999999999996
aF4.1829999999999998
aF4.1829999999999998
aa(lp1604
g10
(S'\x07\xd8\x0c\x0c'
tRp1605
aF4.1829999999999998
aF4.2130000000000001
aF4.1829999999999998
aF4.2130000000000001
aa(lp1606
g10
(S'\x07\xd8\x0c\x0f'
tRp1607
aF4.2130000000000001
aF4.2839999999999998
aF4.2130000000000001
aF4.2839999999999998
aa(lp1608
g10
(S'\x07\xd8\x0c\x10'
tRp1609
aF4.2839999999999998
aF4.2839999999999998
aF4.2839999999999998
aF4.2839999999999998
aa(lp1610
g10
(S'\x07\xd8\x0c\x11'
tRp1611
aF4.1870000000000003
aF4.1870000000000003
aF4.1870000000000003
aF4.1870000000000003
aa(lp1612
g10
(S'\x07\xd8\x0c\x12'
tRp1613
aF4.1870000000000003
aF4.1870000000000003
aF4.1470000000000002
aF4.1699999999999999
aa(lp1614
g10
(S'\x07\xd8\x0c\x13'
tRp1615
aF4.1699999999999999
aF4.1699999999999999
aF4.1660000000000004
aF4.1660000000000004
aa(lp1616
g10
(S'\x07\xd8\x0c\x16'
tRp1617
aF4.1660000000000004
aF4.1660000000000004
aF4.1630000000000003
aF4.1630000000000003
aa(lp1618
g10
(S'\x07\xd8\x0c\x17'
tRp1619
aF4.1630000000000003
aF4.1630000000000003
aF4.157
aF4.157
aa(lp1620
g10
(S'\x07\xd8\x0c\x18'
tRp1621
aF4.157
aF4.157
aF4.157
aF4.157
aa(lp1622
g10
(S'\x07\xd8\x0c\x19'
tRp1623
aF4.157
aF4.157
aF4.157
aF4.157
aa(lp1624
g10
(S'\x07\xd8\x0c\x1a'
tRp1625
aF4.157
aF4.157
aF4.157
aF4.157
aa(lp1626
g10
(S'\x07\xd8\x0c\x1d'
tRp1627
aF4.157
aF4.1669999999999998
aF4.157
aF4.1669999999999998
aa(lp1628
g10
(S'\x07\xd8\x0c\x1e'
tRp1629
aF4.1669999999999998
aF4.1669999999999998
aF4.1559999999999997
aF4.1559999999999997
aa(lp1630
g10
(S'\x07\xd8\x0c\x1f'
tRp1631
aF4.1559999999999997
aF4.1660000000000004
aF4.1559999999999997
aF4.1660000000000004
aa(lp1632
g10
(S'\x07\xd9\x01\x01'
tRp1633
aF4.1660000000000004
aF4.1660000000000004
aF4.1660000000000004
aF4.1660000000000004
aa(lp1634
g10
(S'\x07\xd9\x01\x02'
tRp1635
aF4.1660000000000004
aF4.1660000000000004
aF4.1619999999999999
aF4.1619999999999999
aa(lp1636
g10
(S'\x07\xd9\x01\x05'
tRp1637
aF4.1619999999999999
aF4.1619999999999999
aF4.1539999999999999
aF4.1539999999999999
aa(lp1638
g10
(S'\x07\xd9\x01\x06'
tRp1639
aF4.1539999999999999
aF4.2430000000000003
aF4.1539999999999999
aF4.1539999999999999
aa(lp1640
g10
(S'\x07\xd9\x01\x07'
tRp1641
aF4.1529999999999996
aF4.1740000000000004
aF4.1529999999999996
aF4.1600000000000001
aa(lp1642
g10
(S'\x07\xd9\x01\x08'
tRp1643
aF4.1600000000000001
aF4.1660000000000004
aF4.1600000000000001
aF4.1660000000000004
aa(lp1644
g10
(S'\x07\xd9\x01\t'
tRp1645
aF4.1660000000000004
aF4.1660000000000004
aF4.1189999999999998
aF4.1189999999999998
aa(lp1646
g10
(S'\x07\xd9\x01\x0c'
tRp1647
aF4.1189999999999998
aF4.1189999999999998
aF4.1189999999999998
aF4.1189999999999998
aa(lp1648
g10
(S'\x07\xd9\x01\r'
tRp1649
aF4.1189999999999998
aF4.1189999999999998
aF4.0640000000000001
aF4.0640000000000001
aa(lp1650
g10
(S'\x07\xd9\x01\x0e'
tRp1651
aF4.0640000000000001
aF4.109
aF4.0640000000000001
aF4.109
aa(lp1652
g10
(S'\x07\xd9\x01\x0f'
tRp1653
aF4.109
aF4.109
aF3.782
aF3.9369999999999998
aa(lp1654
g10
(S'\x07\xd9\x01\x10'
tRp1655
aF3.9359999999999999
aF3.9740000000000002
aF3.9359999999999999
aF3.9740000000000002
aa(lp1656
g10
(S'\x07\xd9\x01\x13'
tRp1657
aF3.9729999999999999
aF3.9729999999999999
aF3.9569999999999999
aF3.9569999999999999
aa(lp1658
g10
(S'\x07\xd9\x01\x14'
tRp1659
aF3.9569999999999999
aF3.9820000000000002
aF3.9569999999999999
aF3.9820000000000002
aa(lp1660
g10
(S'\x07\xd9\x01\x15'
tRp1661
aF3.9809999999999999
aF3.9809999999999999
aF3.9590000000000001
aF3.9590000000000001
aa(lp1662
g10
(S'\x07\xd9\x01\x16'
tRp1663
aF3.9590000000000001
aF4.1040000000000001
aF3.9590000000000001
aF4.1040000000000001
aa(lp1664
g10
(S'\x07\xd9\x01\x17'
tRp1665
aF4.0839999999999996
aF4.1299999999999999
aF4.0839999999999996
aF4.1130000000000004
aa(lp1666
g10
(S'\x07\xd9\x01\x1a'
tRp1667
aF4.1130000000000004
aF4.1289999999999996
aF4.0910000000000002
aF4.1130000000000004
aa(lp1668
g10
(S'\x07\xd9\x01\x1b'
tRp1669
aF4.1130000000000004
aF4.4160000000000004
aF4.1130000000000004
aF4.4160000000000004
aa(lp1670
g10
(S'\x07\xd9\x01\x1c'
tRp1671
aF4.415
aF4.431
aF4.415
aF4.431
aa(lp1672
g10
(S'\x07\xd9\x01\x1d'
tRp1673
aF4.431
aF4.431
aF4.4219999999999997
aF4.4279999999999999
aa(lp1674
g10
(S'\x07\xd9\x01\x1e'
tRp1675
aF4.4279999999999999
aF4.4279999999999999
aF4.4279999999999999
aF4.4279999999999999
aa(lp1676
g10
(S'\x07\xd9\x02\x02'
tRp1677
aF4.4279999999999999
aF4.4279999999999999
aF4.4039999999999999
aF4.4039999999999999
aa(lp1678
g10
(S'\x07\xd9\x02\x03'
tRp1679
aF4.4039999999999999
aF4.4039999999999999
aF4.3869999999999996
aF4.3869999999999996
aa(lp1680
g10
(S'\x07\xd9\x02\x04'
tRp1681
aF4.3869999999999996
aF4.5380000000000003
aF4.3869999999999996
aF4.5380000000000003
aa(lp1682
g10
(S'\x07\xd9\x02\x05'
tRp1683
aF4.5380000000000003
aF4.5380000000000003
aF4.4710000000000001
aF4.4710000000000001
aa(lp1684
g10
(S'\x07\xd9\x02\x06'
tRp1685
aF4.4710000000000001
aF4.556
aF4.4199999999999999
aF4.556
aa(lp1686
g10
(S'\x07\xd9\x02\t'
tRp1687
aF4.556
aF4.556
aF4.5289999999999999
aF4.5289999999999999
aa(lp1688
g10
(S'\x07\xd9\x02\n'
tRp1689
aF4.5279999999999996
aF4.5279999999999996
aF4.5259999999999998
aF4.5259999999999998
aa(lp1690
g10
(S'\x07\xd9\x02\x0b'
tRp1691
aF4.5259999999999998
aF4.5270000000000001
aF4.5259999999999998
aF4.5270000000000001
aa(lp1692
g10
(S'\x07\xd9\x02\x0c'
tRp1693
aF4.5270000000000001
aF4.5629999999999997
aF4.5270000000000001
aF4.5629999999999997
aa(lp1694
g10
(S'\x07\xd9\x02\r'
tRp1695
aF4.5629999999999997
aF4.5629999999999997
aF4.5549999999999997
aF4.5549999999999997
aa(lp1696
g10
(S'\x07\xd9\x02\x10'
tRp1697
aF4.5549999999999997
aF4.5599999999999996
aF4.5549999999999997
aF4.5599999999999996
aa(lp1698
g10
(S'\x07\xd9\x02\x11'
tRp1699
aF4.5599999999999996
aF4.6020000000000003
aF4.5599999999999996
aF4.6020000000000003
aa(lp1700
g10
(S'\x07\xd9\x02\x12'
tRp1701
aF4.6020000000000003
aF4.7830000000000004
aF4.6020000000000003
aF4.7830000000000004
aa(lp1702
g10
(S'\x07\xd9\x02\x13'
tRp1703
aF4.7830000000000004
aF4.8819999999999997
aF4.7830000000000004
aF4.8819999999999997
aa(lp1704
g10
(S'\x07\xd9\x02\x14'
tRp1705
aF4.8819999999999997
aF4.9640000000000004
aF4.8819999999999997
aF4.9640000000000004
aa(lp1706
g10
(S'\x07\xd9\x02\x17'
tRp1707
aF4.9640000000000004
aF4.9640000000000004
aF4.8730000000000002
aF4.8730000000000002
aa(lp1708
g10
(S'\x07\xd9\x02\x18'
tRp1709
aF4.8730000000000002
aF4.8869999999999996
aF4.8730000000000002
aF4.8760000000000003
aa(lp1710
g10
(S'\x07\xd9\x02\x19'
tRp1711
aF4.8769999999999998
aF4.8869999999999996
aF4.8769999999999998
aF4.8799999999999999
aa(lp1712
g10
(S'\x07\xd9\x02\x1a'
tRp1713
aF4.8799999999999999
aF4.8890000000000002
aF4.8799999999999999
aF4.8890000000000002
aa(lp1714
g10
(S'\x07\xd9\x02\x1b'
tRp1715
aF4.8890000000000002
aF4.9580000000000002
aF4.8890000000000002
aF4.9580000000000002
aa(lp1716
g10
(S'\x07\xd9\x03\x02'
tRp1717
aF4.9580000000000002
aF4.9580000000000002
aF4.9290000000000003
aF4.9290000000000003
aa(lp1718
g10
(S'\x07\xd9\x03\x03'
tRp1719
aF4.9290000000000003
aF4.984
aF4.9290000000000003
aF4.9550000000000001
aa(lp1720
g10
(S'\x07\xd9\x03\x04'
tRp1721
aF4.9550000000000001
aF4.9550000000000001
aF4.9489999999999998
aF4.9489999999999998
aa(lp1722
g10
(S'\x07\xd9\x03\x05'
tRp1723
aF4.9489999999999998
aF4.9660000000000002
aF4.9489999999999998
aF4.9660000000000002
aa(lp1724
g10
(S'\x07\xd9\x03\x06'
tRp1725
aF4.9660000000000002
aF4.9660000000000002
aF4.9530000000000003
aF4.9530000000000003
aa(lp1726
g10
(S'\x07\xd9\x03\t'
tRp1727
aF4.9530000000000003
aF5.0510000000000002
aF4.9530000000000003
aF5.0510000000000002
aa(lp1728
g10
(S'\x07\xd9\x03\n'
tRp1729
aF5.0510000000000002
aF5.0620000000000003
aF5.0209999999999999
aF5.0620000000000003
aa(lp1730
g10
(S'\x07\xd9\x03\x0b'
tRp1731
aF5.0369999999999999
aF5.0380000000000003
aF5.0369999999999999
aF5.0380000000000003
aa(lp1732
g10
(S'\x07\xd9\x03\x0c'
tRp1733
aF5.0380000000000003
aF5.0380000000000003
aF4.9619999999999997
aF4.9619999999999997
aa(lp1734
g10
(S'\x07\xd9\x03\r'
tRp1735
aF4.9619999999999997
aF4.9870000000000001
aF4.9619999999999997
aF4.9870000000000001
aa(lp1736
g10
(S'\x07\xd9\x03\x10'
tRp1737
aF4.9870000000000001
aF5.1870000000000003
aF4.9870000000000001
aF5.1870000000000003
aa(lp1738
g10
(S'\x07\xd9\x03\x11'
tRp1739
aF5.1870000000000003
aF5.2800000000000002
aF5.1870000000000003
aF5.2800000000000002
aa(lp1740
g10
(S'\x07\xd9\x03\x12'
tRp1741
aF5.2210000000000001
aF5.4210000000000003
aF5.1799999999999997
aF5.4210000000000003
aa(lp1742
g10
(S'\x07\xd9\x03\x13'
tRp1743
aF5.4219999999999997
aF5.4219999999999997
aF5.4020000000000001
aF5.4020000000000001
aa(lp1744
g10
(S'\x07\xd9\x03\x14'
tRp1745
aF5.4020000000000001
aF5.4020000000000001
aF5.3419999999999996
aF5.3419999999999996
aa(lp1746
g10
(S'\x07\xd9\x03\x17'
tRp1747
aF5.3419999999999996
aF5.3650000000000002
aF5.3319999999999999
aF5.3319999999999999
aa(lp1748
g10
(S'\x07\xd9\x03\x18'
tRp1749
aF5.3319999999999999
aF5.4199999999999999
aF5.3319999999999999
aF5.4199999999999999
aa(lp1750
g10
(S'\x07\xd9\x03\x19'
tRp1751
aF5.4210000000000003
aF5.4210000000000003
aF5.3179999999999996
aF5.3179999999999996
aa(lp1752
g10
(S'\x07\xd9\x03\x1a'
tRp1753
aF5.3179999999999996
aF5.3789999999999996
aF5.3179999999999996
aF5.3280000000000003
aa(lp1754
g10
(S'\x07\xd9\x03\x1b'
tRp1755
aF5.3289999999999997
aF5.3659999999999997
aF5.1529999999999996
aF5.1529999999999996
aa(lp1756
g10
(S'\x07\xd9\x03\x1e'
tRp1757
aF5.1529999999999996
aF5.2510000000000003
aF5.1529999999999996
aF5.1529999999999996
aa(lp1758
g10
(S'\x07\xd9\x03\x1f'
tRp1759
aF5.1539999999999999
aF5.306
aF5.1539999999999999
aF5.306
aa(lp1760
g10
(S'\x07\xd9\x04\x01'
tRp1761
aF5.306
aF5.3310000000000004
aF5.2949999999999999
aF5.3099999999999996
aa(lp1762
g10
(S'\x07\xd9\x04\x02'
tRp1763
aF5.3099999999999996
aF5.3419999999999996
aF5.3099999999999996
aF5.3419999999999996
aa(lp1764
g10
(S'\x07\xd9\x04\x03'
tRp1765
aF5.3419999999999996
aF5.3650000000000002
aF5.3419999999999996
aF5.3650000000000002
aa(lp1766
g10
(S'\x07\xd9\x04\x06'
tRp1767
aF5.3650000000000002
aF5.3650000000000002
aF5.3079999999999998
aF5.3079999999999998
aa(lp1768
g10
(S'\x07\xd9\x04\x07'
tRp1769
aF5.3079999999999998
aF5.3079999999999998
aF5.1680000000000001
aF5.1680000000000001
aa(lp1770
g10
(S'\x07\xd9\x04\x08'
tRp1771
aF5.1689999999999996
aF5.2279999999999998
aF5.1550000000000002
aF5.1609999999999996
aa(lp1772
g10
(S'\x07\xd9\x04\t'
tRp1773
aF5.1820000000000004
aF5.3330000000000002
aF5.1550000000000002
aF5.3330000000000002
aa(lp1774
g10
(S'\x07\xd9\x04\n'
tRp1775
aF5.3330000000000002
aF5.3330000000000002
aF5.1459999999999999
aF5.1459999999999999
aa(lp1776
g10
(S'\x07\xd9\x04\r'
tRp1777
aF5.173
aF5.173
aF5.173
aF5.173
aa(lp1778
g10
(S'\x07\xd9\x04\x0e'
tRp1779
aF5.1740000000000004
aF5.1740000000000004
aF5.1159999999999997
aF5.1159999999999997
aa(lp1780
g10
(S'\x07\xd9\x04\x0f'
tRp1781
aF5.1740000000000004
aF5.1740000000000004
aF5.0949999999999998
aF5.0949999999999998
aa(lp1782
g10
(S'\x07\xd9\x04\x10'
tRp1783
aF5.1219999999999999
aF5.2510000000000003
aF5.0990000000000002
aF5.2510000000000003
aa(lp1784
g10
(S'\x07\xd9\x04\x11'
tRp1785
aF5.2510000000000003
aF5.2510000000000003
aF5.0999999999999996
aF5.0999999999999996
aa(lp1786
g10
(S'\x07\xd9\x04\x14'
tRp1787
aF5.0999999999999996
aF5.1120000000000001
aF5.0999999999999996
aF5.1120000000000001
aa(lp1788
g10
(S'\x07\xd9\x04\x15'
tRp1789
aF5.1120000000000001
aF5.1120000000000001
aF5.0800000000000001
aF5.0800000000000001
aa(lp1790
g10
(S'\x07\xd9\x04\x16'
tRp1791
aF5.0800000000000001
aF5.0800000000000001
aF5.0650000000000004
aF5.0670000000000002
aa(lp1792
g10
(S'\x07\xd9\x04\x17'
tRp1793
aF5.0670000000000002
aF5.0919999999999996
aF5.0650000000000004
aF5.0919999999999996
aa(lp1794
g10
(S'\x07\xd9\x04\x18'
tRp1795
aF5.0919999999999996
aF5.0919999999999996
aF5.0720000000000001
aF5.0919999999999996
aa(lp1796
g10
(S'\x07\xd9\x04\x1b'
tRp1797
aF5.0919999999999996
aF5.1360000000000001
aF5.0730000000000004
aF5.1280000000000001
aa(lp1798
g10
(S'\x07\xd9\x04\x1c'
tRp1799
aF5.1289999999999996
aF5.1790000000000003
aF5.1289999999999996
aF5.1310000000000002
aa(lp1800
g10
(S'\x07\xd9\x04\x1d'
tRp1801
aF5.1310000000000002
aF5.1790000000000003
aF5.1310000000000002
aF5.1420000000000003
aa(lp1802
g10
(S'\x07\xd9\x04\x1e'
tRp1803
aF5.1429999999999998
aF5.2080000000000002
aF5.1429999999999998
aF5.149
aa(lp1804
g10
(S'\x07\xd9\x05\x01'
tRp1805
aF5.149
aF5.1619999999999999
aF5.149
aF5.1619999999999999
aa(lp1806
g10
(S'\x07\xd9\x05\x04'
tRp1807
aF5.1619999999999999
aF5.1619999999999999
aF5.157
aF5.157
aa(lp1808
g10
(S'\x07\xd9\x05\x05'
tRp1809
aF5.157
aF5.194
aF5.1130000000000004
aF5.1130000000000004
aa(lp1810
g10
(S'\x07\xd9\x05\x06'
tRp1811
aF5.1139999999999999
aF5.1589999999999998
aF5.0620000000000003
aF5.0620000000000003
aa(lp1812
g10
(S'\x07\xd9\x05\x07'
tRp1813
aF5.0620000000000003
aF5.117
aF5.0259999999999998
aF5.0499999999999998
aa(lp1814
g10
(S'\x07\xd9\x05\x08'
tRp1815
aF5.0499999999999998
aF5.0579999999999998
aF5.0259999999999998
aF5.0579999999999998
aa(lp1816
g10
(S'\x07\xd9\x05\x0b'
tRp1817
aF5.0590000000000002
aF5.117
aF5.0490000000000004
aF5.0490000000000004
aa(lp1818
g10
(S'\x07\xd9\x05\x0c'
tRp1819
aF5.0490000000000004
aF5.0519999999999996
aF5.0179999999999998
aF5.0519999999999996
aa(lp1820
g10
(S'\x07\xd9\x05\r'
tRp1821
aF5.0519999999999996
aF5.0519999999999996
aF5.0190000000000001
aF5.0190000000000001
aa(lp1822
g10
(S'\x07\xd9\x05\x0e'
tRp1823
aF5.0190000000000001
aF5.0469999999999997
aF5.0049999999999999
aF5.016
aa(lp1824
g10
(S'\x07\xd9\x05\x0f'
tRp1825
aF5.016
aF5.016
aF4.992
aF5.0039999999999996
aa(lp1826
g10
(S'\x07\xd9\x05\x12'
tRp1827
aF5.0049999999999999
aF5.0049999999999999
aF4.984
aF4.9980000000000002
aa(lp1828
g10
(S'\x07\xd9\x05\x13'
tRp1829
aF4.9980000000000002
aF4.9980000000000002
aF4.9699999999999998
aF4.9809999999999999
aa(lp1830
g10
(S'\x07\xd9\x05\x14'
tRp1831
aF4.9809999999999999
aF5.0019999999999998
aF4.9699999999999998
aF5.0019999999999998
aa(lp1832
g10
(S'\x07\xd9\x05\x15'
tRp1833
aF5.0019999999999998
aF5.048
aF5
aF5
aa(lp1834
g10
(S'\x07\xd9\x05\x16'
tRp1835
aF5
aF5.048
aF5
aF5.0090000000000003
aa(lp1836
g10
(S'\x07\xd9\x05\x19'
tRp1837
aF5.0090000000000003
aF5.048
aF5.0069999999999997
aF5.0069999999999997
aa(lp1838
g10
(S'\x07\xd9\x05\x1a'
tRp1839
aF5.0069999999999997
aF5.0069999999999997
aF5.0010000000000003
aF5.0010000000000003
aa(lp1840
g10
(S'\x07\xd9\x05\x1b'
tRp1841
aF5.0019999999999998
aF5.0030000000000001
aF5.0019999999999998
aF5.0030000000000001
aa(lp1842
g10
(S'\x07\xd9\x05\x1c'
tRp1843
aF5.0030000000000001
aF5.0350000000000001
aF5.0030000000000001
aF5.0270000000000001
aa(lp1844
g10
(S'\x07\xd9\x05\x1d'
tRp1845
aF5.0270000000000001
aF5.1200000000000001
aF5.0270000000000001
aF5.0410000000000004
aa(lp1846
g10
(S'\x07\xd9\x06\x01'
tRp1847
aF5.0410000000000004
aF5.1230000000000002
aF5.0410000000000004
aF5.1230000000000002
aa(lp1848
g10
(S'\x07\xd9\x06\x02'
tRp1849
aF5.1230000000000002
aF5.1230000000000002
aF5.1020000000000003
aF5.1020000000000003
aa(lp1850
g10
(S'\x07\xd9\x06\x03'
tRp1851
aF5.1020000000000003
aF5.1630000000000003
aF5.0940000000000003
aF5.0940000000000003
aa(lp1852
g10
(S'\x07\xd9\x06\x04'
tRp1853
aF5.1029999999999998
aF5.149
aF5.0910000000000002
aF5.0910000000000002
aa(lp1854
g10
(S'\x07\xd9\x06\x05'
tRp1855
aF5.1139999999999999
aF5.3220000000000001
aF5.0819999999999999
aF5.0819999999999999
aa(lp1856
g10
(S'\x07\xd9\x06\x08'
tRp1857
aF5.0819999999999999
aF5.1470000000000002
aF5.0819999999999999
aF5.1470000000000002
aa(lp1858
g10
(S'\x07\xd9\x06\t'
tRp1859
aF5.1470000000000002
aF5.2859999999999996
aF5.1100000000000003
aF5.1100000000000003
aa(lp1860
g10
(S'\x07\xd9\x06\n'
tRp1861
aF5.1100000000000003
aF5.1100000000000003
aF5.1100000000000003
aF5.1100000000000003
aa(lp1862
g10
(S'\x07\xd9\x06\x0b'
tRp1863
aF5.1100000000000003
aF5.194
aF5.1100000000000003
aF5.194
aa(lp1864
g10
(S'\x07\xd9\x06\x0c'
tRp1865
aF5.194
aF5.2869999999999999
aF5.1820000000000004
aF5.1820000000000004
aa(lp1866
g10
(S'\x07\xd9\x06\x0f'
tRp1867
aF5.1820000000000004
aF5.1820000000000004
aF5.181
aF5.181
aa(lp1868
g10
(S'\x07\xd9\x06\x10'
tRp1869
aF5.1820000000000004
aF5.282
aF5.109
aF5.109
aa(lp1870
g10
(S'\x07\xd9\x06\x11'
tRp1871
aF5.1100000000000003
aF5.1159999999999997
aF5.1100000000000003
aF5.1159999999999997
aa(lp1872
g10
(S'\x07\xd9\x06\x12'
tRp1873
aF5.117
aF5.2460000000000004
aF5.117
aF5.1639999999999997
aa(lp1874
g10
(S'\x07\xd9\x06\x13'
tRp1875
aF5.1639999999999997
aF5.2469999999999999
aF5.1639999999999997
aF5.1710000000000003
aa(lp1876
g10
(S'\x07\xd9\x06\x16'
tRp1877
aF5.1710000000000003
aF5.2469999999999999
aF5.1449999999999996
aF5.1449999999999996
aa(lp1878
g10
(S'\x07\xd9\x06\x17'
tRp1879
aF5.1449999999999996
aF5.202
aF5.1449999999999996
aF5.1740000000000004
aa(lp1880
g10
(S'\x07\xd9\x06\x18'
tRp1881
aF5.1749999999999998
aF5.2300000000000004
aF5.1749999999999998
aF5.2300000000000004
aa(lp1882
g10
(S'\x07\xd9\x06\x19'
tRp1883
aF5.2300000000000004
aF5.2530000000000001
aF5.1710000000000003
aF5.1710000000000003
aa(lp1884
g10
(S'\x07\xd9\x06\x1a'
tRp1885
aF5.1719999999999997
aF5.2320000000000002
aF5.1719999999999997
aF5.181
aa(lp1886
g10
(S'\x07\xd9\x06\x1d'
tRp1887
aF5.181
aF5.218
aF5.1479999999999997
aF5.1479999999999997
aa(lp1888
g10
(S'\x07\xd9\x06\x1e'
tRp1889
aF5.1479999999999997
aF5.1820000000000004
aF5.1139999999999999
aF5.1139999999999999
aa(lp1890
g10
(S'\x07\xd9\x07\x01'
tRp1891
aF5.1139999999999999
aF5.2290000000000001
aF5.1139999999999999
aF5.2290000000000001
aa(lp1892
g10
(S'\x07\xd9\x07\x02'
tRp1893
aF5.2290000000000001
aF5.2290000000000001
aF5.1970000000000001
aF5.2119999999999997
aa(lp1894
g10
(S'\x07\xd9\x07\x03'
tRp1895
aF5.2119999999999997
aF5.2389999999999999
aF5.1689999999999996
aF5.2389999999999999
aa(lp1896
g10
(S'\x07\xd9\x07\x06'
tRp1897
aF5.2389999999999999
aF5.2389999999999999
aF5.157
aF5.157
aa(lp1898
g10
(S'\x07\xd9\x07\x07'
tRp1899
aF5.157
aF5.1829999999999998
aF5.157
aF5.1820000000000004
aa(lp1900
g10
(S'\x07\xd9\x07\x08'
tRp1901
aF5.1820000000000004
aF5.2190000000000003
aF5.1689999999999996
aF5.2190000000000003
aa(lp1902
g10
(S'\x07\xd9\x07\t'
tRp1903
aF5.2190000000000003
aF5.2190000000000003
aF5.1589999999999998
aF5.1589999999999998
aa(lp1904
g10
(S'\x07\xd9\x07\n'
tRp1905
aF5.1589999999999998
aF5.1920000000000002
aF5.1589999999999998
aF5.1920000000000002
aa(lp1906
g10
(S'\x07\xd9\x07\r'
tRp1907
aF5.1920000000000002
aF5.1950000000000003
aF5.1699999999999999
aF5.1950000000000003
aa(lp1908
g10
(S'\x07\xd9\x07\x0e'
tRp1909
aF5.1699999999999999
aF5.1710000000000003
aF5.1699999999999999
aF5.1710000000000003
aa(lp1910
g10
(S'\x07\xd9\x07\x0f'
tRp1911
aF5.1740000000000004
aF5.1740000000000004
aF5.1740000000000004
aF5.1740000000000004
aa(lp1912
g10
(S'\x07\xd9\x07\x10'
tRp1913
aF5.1740000000000004
aF5.1879999999999997
aF5.1539999999999999
aF5.1539999999999999
aa(lp1914
g10
(S'\x07\xd9\x07\x11'
tRp1915
aF5.1539999999999999
aF5.1769999999999996
aF5.1539999999999999
aF5.1769999999999996
aa(lp1916
g10
(S'\x07\xd9\x07\x14'
tRp1917
aF5.1769999999999996
aF5.1900000000000004
aF5.1769999999999996
aF5.1900000000000004
aa(lp1918
g10
(S'\x07\xd9\x07\x15'
tRp1919
aF5.1900000000000004
aF5.1900000000000004
aF5.173
aF5.1760000000000002
aa(lp1920
g10
(S'\x07\xd9\x07\x16'
tRp1921
aF5.1760000000000002
aF5.1879999999999997
aF5.0979999999999999
aF5.0979999999999999
aa(lp1922
g10
(S'\x07\xd9\x07\x17'
tRp1923
aF5.0979999999999999
aF5.1020000000000003
aF5.0979999999999999
aF5.1020000000000003
aa(lp1924
g10
(S'\x07\xd9\x07\x18'
tRp1925
aF5.1020000000000003
aF5.1020000000000003
aF5.0439999999999996
aF5.0439999999999996
aa(lp1926
g10
(S'\x07\xd9\x07\x1b'
tRp1927
aF5.0300000000000002
aF5.0739999999999998
aF5.0220000000000002
aF5.0220000000000002
aa(lp1928
g10
(S'\x07\xd9\x07\x1c'
tRp1929
aF5.0220000000000002
aF5.0220000000000002
aF4.9939999999999998
aF5
aa(lp1930
g10
(S'\x07\xd9\x07\x1d'
tRp1931
aF5
aF5.0170000000000003
aF4.9870000000000001
aF5.0170000000000003
aa(lp1932
g10
(S'\x07\xd9\x07\x1e'
tRp1933
aF4.9870000000000001
aF5.0110000000000001
aF4.9870000000000001
aF5.0110000000000001
aa(lp1934
g10
(S'\x07\xd9\x07\x1f'
tRp1935
aF5.0110000000000001
aF5.0110000000000001
aF4.9870000000000001
aF5.0030000000000001
aa(lp1936
g10
(S'\x07\xd9\x08\x03'
tRp1937
aF5.0039999999999996
aF5.0300000000000002
aF4.9870000000000001
aF4.9900000000000002
aa(lp1938
g10
(S'\x07\xd9\x08\x04'
tRp1939
aF4.9900000000000002
aF4.9900000000000002
aF4.9580000000000002
aF4.9770000000000003
aa(lp1940
g10
(S'\x07\xd9\x08\x05'
tRp1941
aF4.9770000000000003
aF5.0309999999999997
aF4.9370000000000003
aF4.9370000000000003
aa(lp1942
g10
(S'\x07\xd9\x08\x06'
tRp1943
aF4.9370000000000003
aF4.9370000000000003
aF4.8109999999999999
aF4.8339999999999996
aa(lp1944
g10
(S'\x07\xd9\x08\x07'
tRp1945
aF4.8339999999999996
aF4.9699999999999998
aF4.8109999999999999
aF4.9699999999999998
aa(lp1946
g10
(S'\x07\xd9\x08\n'
tRp1947
aF4.9699999999999998
aF4.9699999999999998
aF4.8550000000000004
aF4.8550000000000004
aa(lp1948
g10
(S'\x07\xd9\x08\x0b'
tRp1949
aF4.8550000000000004
aF4.8559999999999999
aF4.8319999999999999
aF4.8559999999999999
aa(lp1950
g10
(S'\x07\xd9\x08\x0c'
tRp1951
aF4.8559999999999999
aF4.8559999999999999
aF4.8319999999999999
aF4.8559999999999999
aa(lp1952
g10
(S'\x07\xd9\x08\r'
tRp1953
aF4.8559999999999999
aF4.8700000000000001
aF4.7830000000000004
aF4.8700000000000001
aa(lp1954
g10
(S'\x07\xd9\x08\x0e'
tRp1955
aF4.8700000000000001
aF4.8700000000000001
aF4.8680000000000003
aF4.8680000000000003
aa(lp1956
g10
(S'\x07\xd9\x08\x11'
tRp1957
aF4.8680000000000003
aF4.8680000000000003
aF4.8029999999999999
aF4.8029999999999999
aa(lp1958
g10
(S'\x07\xd9\x08\x12'
tRp1959
aF4.8029999999999999
aF4.8029999999999999
aF4.7469999999999999
aF4.798
aa(lp1960
g10
(S'\x07\xd9\x08\x13'
tRp1961
aF4.798
aF4.798
aF4.7050000000000001
aF4.7199999999999998
aa(lp1962
g10
(S'\x07\xd9\x08\x14'
tRp1963
aF4.7199999999999998
aF4.7199999999999998
aF4.6980000000000004
aF4.7030000000000003
aa(lp1964
g10
(S'\x07\xd9\x08\x15'
tRp1965
aF4.7030000000000003
aF4.7190000000000003
aF4.7030000000000003
aF4.7190000000000003
aa(lp1966
g10
(S'\x07\xd9\x08\x18'
tRp1967
aF4.7190000000000003
aF4.7190000000000003
aF4.7050000000000001
aF4.7160000000000002
aa(lp1968
g10
(S'\x07\xd9\x08\x19'
tRp1969
aF4.7160000000000002
aF4.7160000000000002
aF4.6769999999999996
aF4.7140000000000004
aa(lp1970
g10
(S'\x07\xd9\x08\x1a'
tRp1971
aF4.7130000000000001
aF4.7130000000000001
aF4.6980000000000004
aF4.71
aa(lp1972
g10
(S'\x07\xd9\x08\x1b'
tRp1973
aF4.71
aF4.7329999999999997
aF4.6980000000000004
aF4.7329999999999997
aa(lp1974
g10
(S'\x07\xd9\x08\x1c'
tRp1975
aF4.7210000000000001
aF5.0549999999999997
aF4.7210000000000001
aF5.0549999999999997
aa(lp1976
g10
(S'\x07\xd9\x08\x1f'
tRp1977
aF5.0549999999999997
aF5.0579999999999998
aF5.0549999999999997
aF5.0579999999999998
aa(lp1978
g10
(S'\x07\xd9\t\x01'
tRp1979
aF5.0579999999999998
aF5.0890000000000004
aF5.0579999999999998
aF5.0890000000000004
aa(lp1980
g10
(S'\x07\xd9\t\x02'
tRp1981
aF5.0890000000000004
aF5.0890000000000004
aF5.0819999999999999
aF5.0819999999999999
aa(lp1982
g10
(S'\x07\xd9\t\x03'
tRp1983
aF5.0819999999999999
aF5.0819999999999999
aF5.0519999999999996
aF5.0519999999999996
aa(lp1984
g10
(S'\x07\xd9\t\x04'
tRp1985
aF5.0519999999999996
aF5.0659999999999998
aF5.0519999999999996
aF5.0659999999999998
aa(lp1986
g10
(S'\x07\xd9\t\x07'
tRp1987
aF5.0659999999999998
aF5.0659999999999998
aF5.0519999999999996
aF5.0519999999999996
aa(lp1988
g10
(S'\x07\xd9\t\x08'
tRp1989
aF5.0519999999999996
aF5.0650000000000004
aF5.0519999999999996
aF5.0650000000000004
aa(lp1990
g10
(S'\x07\xd9\t\t'
tRp1991
aF5.0650000000000004
aF5.0650000000000004
aF5.0499999999999998
aF5.0499999999999998
aa(lp1992
g10
(S'\x07\xd9\t\n'
tRp1993
aF5.0499999999999998
aF5.0670000000000002
aF5.0499999999999998
aF5.0670000000000002
aa(lp1994
g10
(S'\x07\xd9\t\x0b'
tRp1995
aF5.0670000000000002
aF5.0670000000000002
aF5.0650000000000004
aF5.0650000000000004
aa(lp1996
g10
(S'\x07\xd9\t\x0e'
tRp1997
aF5.0650000000000004
aF5.0679999999999996
aF5.0650000000000004
aF5.0679999999999996
aa(lp1998
g10
(S'\x07\xd9\t\x0f'
tRp1999
aF5.0679999999999996
aF5.0730000000000004
aF5.0679999999999996
aF5.0730000000000004
aa(lp2000
g10
(S'\x07\xd9\t\x10'
tRp2001
aF5.0730000000000004
aF5.0759999999999996
aF5.0730000000000004
aF5.0759999999999996
aa(lp2002
g10
(S'\x07\xd9\t\x11'
tRp2003
aF5.0759999999999996
aF5.0830000000000002
aF5.0759999999999996
aF5.0830000000000002
aa(lp2004
g10
(S'\x07\xd9\t\x12'
tRp2005
aF5.0830000000000002
aF5.0830000000000002
aF5.0739999999999998
aF5.0739999999999998
aa(lp2006
g10
(S'\x07\xd9\t\x15'
tRp2007
aF5.0739999999999998
aF5.0739999999999998
aF5.0730000000000004
aF5.0730000000000004
aa(lp2008
g10
(S'\x07\xd9\t\x16'
tRp2009
aF5.0730000000000004
aF5.0730000000000004
aF5.0700000000000003
aF5.0700000000000003
aa(lp2010
g10
(S'\x07\xd9\t\x17'
tRp2011
aF5.0700000000000003
aF5.0700000000000003
aF5.0670000000000002
aF5.0670000000000002
aa(lp2012
g10
(S'\x07\xd9\t\x18'
tRp2013
aF5.0670000000000002
aF5.0670000000000002
aF5.0309999999999997
aF5.0309999999999997
aa(lp2014
g10
(S'\x07\xd9\t\x19'
tRp2015
aF5.0309999999999997
aF5.0309999999999997
aF4.9800000000000004
aF4.9800000000000004
aa(lp2016
g10
(S'\x07\xd9\t\x1c'
tRp2017
aF4.9800000000000004
aF5.0030000000000001
aF4.9800000000000004
aF5.0030000000000001
aa(lp2018
g10
(S'\x07\xd9\t\x1d'
tRp2019
aF5.0030000000000001
aF5.0030000000000001
aF4.9889999999999999
aF4.9889999999999999
aa(lp2020
g10
(S'\x07\xd9\t\x1e'
tRp2021
aF4.9889999999999999
aF4.9889999999999999
aF4.9299999999999997
aF4.9299999999999997
aa(lp2022
g10
(S'\x07\xd9\n\x01'
tRp2023
aF4.9299999999999997
aF4.9390000000000001
aF4.9299999999999997
aF4.9390000000000001
aa(lp2024
g10
(S'\x07\xd9\n\x02'
tRp2025
aF4.9390000000000001
aF4.9390000000000001
aF4.9169999999999998
aF4.9169999999999998
aa(lp2026
g10
(S'\x07\xd9\n\x05'
tRp2027
aF4.9169999999999998
aF4.9169999999999998
aF4.8079999999999998
aF4.8079999999999998
aa(lp2028
g10
(S'\x07\xd9\n\x06'
tRp2029
aF4.8079999999999998
aF4.8310000000000004
aF4.8079999999999998
aF4.8310000000000004
aa(lp2030
g10
(S'\x07\xd9\n\x07'
tRp2031
aF4.6420000000000003
aF4.6420000000000003
aF4.6420000000000003
aF4.6420000000000003
aa(lp2032
g10
(S'\x07\xd9\n\x08'
tRp2033
aF4.6420000000000003
aF4.6500000000000004
aF4.6420000000000003
aF4.6500000000000004
aa(lp2034
g10
(S'\x07\xd9\n\t'
tRp2035
aF4.6500000000000004
aF4.6500000000000004
aF4.5030000000000001
aF4.5030000000000001
aa(lp2036
g10
(S'\x07\xd9\n\x0c'
tRp2037
aF4.5030000000000001
aF4.5650000000000004
aF4.5030000000000001
aF4.5650000000000004
aa(lp2038
g10
(S'\x07\xd9\n\r'
tRp2039
aF4.5650000000000004
aF4.5650000000000004
aF4.4930000000000003
aF4.4930000000000003
aa(lp2040
g10
(S'\x07\xd9\n\x0e'
tRp2041
aF4.492
aF4.492
aF4.375
aF4.375
aa(lp2042
g10
(S'\x07\xd9\n\x0f'
tRp2043
aF4.375
aF4.375
aF4.3700000000000001
aF4.3700000000000001
aa(lp2044
g10
(S'\x07\xd9\n\x10'
tRp2045
aF4.3700000000000001
aF4.3700000000000001
aF4.3700000000000001
aF4.3700000000000001
aa(lp2046
g10
(S'\x07\xd9\n\x13'
tRp2047
aF4.3700000000000001
aF4.3700000000000001
aF4.3259999999999996
aF4.3259999999999996
aa(lp2048
g10
(S'\x07\xd9\n\x14'
tRp2049
aF4.3259999999999996
aF4.3259999999999996
aF4.2130000000000001
aF4.2130000000000001
aa(lp2050
g10
(S'\x07\xd9\n\x15'
tRp2051
aF4.2119999999999997
aF4.2119999999999997
aF4.0999999999999996
aF4.0999999999999996
aa(lp2052
g10
(S'\x07\xd9\n\x16'
tRp2053
aF4.0999999999999996
aF4.1139999999999999
aF4.0999999999999996
aF4.1139999999999999
aa(lp2054
g10
(S'\x07\xd9\n\x17'
tRp2055
aF4.1139999999999999
aF4.1440000000000001
aF4.1139999999999999
aF4.1440000000000001
aa(lp2056
g10
(S'\x07\xd9\n\x1a'
tRp2057
aF4.1440000000000001
aF4.1779999999999999
aF4.1440000000000001
aF4.1779999999999999
aa(lp2058
g10
(S'\x07\xd9\n\x1b'
tRp2059
aF4.1779999999999999
aF4.1779999999999999
aF4.1710000000000003
aF4.1710000000000003
aa(lp2060
g10
(S'\x07\xd9\n\x1c'
tRp2061
aF4.1710000000000003
aF4.173
aF4.1710000000000003
aF4.173
aa(lp2062
g10
(S'\x07\xd9\n\x1d'
tRp2063
aF4.173
aF4.2699999999999996
aF4.157
aF4.2699999999999996
aa(lp2064
g10
(S'\x07\xd9\n\x1e'
tRp2065
aF4.2690000000000001
aF4.2690000000000001
aF4.2670000000000003
aF4.2670000000000003
aa(lp2066
g10
(S'\x07\xd9\x0b\x02'
tRp2067
aF4.266
aF4.266
aF4.266
aF4.266
aa(lp2068
g10
(S'\x07\xd9\x0b\x03'
tRp2069
aF4.266
aF4.266
aF4.2400000000000002
aF4.2400000000000002
aa(lp2070
g10
(S'\x07\xd9\x0b\x04'
tRp2071
aF4.2389999999999999
aF4.2439999999999998
aF4.2389999999999999
aF4.2439999999999998
aa(lp2072
g10
(S'\x07\xd9\x0b\x05'
tRp2073
aF4.2439999999999998
aF4.2549999999999999
aF4.2439999999999998
aF4.2549999999999999
aa(lp2074
g10
(S'\x07\xd9\x0b\x06'
tRp2075
aF4.2549999999999999
aF4.2649999999999997
aF4.2549999999999999
aF4.2649999999999997
aa(lp2076
g10
(S'\x07\xd9\x0b\t'
tRp2077
aF4.2649999999999997
aF4.2649999999999997
aF4.2560000000000002
aF4.2560000000000002
aa(lp2078
g10
(S'\x07\xd9\x0b\n'
tRp2079
aF4.2560000000000002
aF4.2560000000000002
aF4.2350000000000003
aF4.2350000000000003
aa(lp2080
g10
(S'\x07\xd9\x0b\x0b'
tRp2081
aF4.234
aF4.234
aF4.2039999999999997
aF4.2039999999999997
aa(lp2082
g10
(S'\x07\xd9\x0b\x0c'
tRp2083
aF4.2039999999999997
aF4.2039999999999997
aF4.2009999999999996
aF4.2009999999999996
aa(lp2084
g10
(S'\x07\xd9\x0b\r'
tRp2085
aF4.2009999999999996
aF4.202
aF4.2009999999999996
aF4.202
aa(lp2086
g10
(S'\x07\xd9\x0b\x10'
tRp2087
aF4.202
aF4.202
aF4.1970000000000001
aF4.1970000000000001
aa(lp2088
g10
(S'\x07\xd9\x0b\x11'
tRp2089
aF4.1970000000000001
aF4.1970000000000001
aF4.1959999999999997
aF4.1959999999999997
aa(lp2090
g10
(S'\x07\xd9\x0b\x12'
tRp2091
aF4.1950000000000003
aF4.2060000000000004
aF4.1950000000000003
aF4.2060000000000004
aa(lp2092
g10
(S'\x07\xd9\x0b\x13'
tRp2093
aF4.2060000000000004
aF4.2060000000000004
aF4.1929999999999996
aF4.1929999999999996
aa(lp2094
g10
(S'\x07\xd9\x0b\x14'
tRp2095
aF4.1929999999999996
aF4.1929999999999996
aF4.1900000000000004
aF4.1900000000000004
aa(lp2096
g10
(S'\x07\xd9\x0b\x17'
tRp2097
aF4.1900000000000004
aF4.1900000000000004
aF4.1849999999999996
aF4.1849999999999996
aa(lp2098
g10
(S'\x07\xd9\x0b\x18'
tRp2099
aF4.1849999999999996
aF4.1929999999999996
aF4.1849999999999996
aF4.1929999999999996
aa(lp2100
g10
(S'\x07\xd9\x0b\x19'
tRp2101
aF4.1920000000000002
aF4.1920000000000002
aF4.1849999999999996
aF4.1849999999999996
aa(lp2102
g10
(S'\x07\xd9\x0b\x1a'
tRp2103
aF4.1849999999999996
aF4.1849999999999996
aF4.1829999999999998
aF4.1829999999999998
aa(lp2104
g10
(S'\x07\xd9\x0b\x1b'
tRp2105
aF4.173
aF4.173
aF4.1070000000000002
aF4.1070000000000002
aa(lp2106
g10
(S'\x07\xd9\x0b\x1e'
tRp2107
aF4.1070000000000002
aF4.1070000000000002
aF4.1020000000000003
aF4.1020000000000003
aa(lp2108
g10
(S'\x07\xd9\x0c\x01'
tRp2109
aF4.1020000000000003
aF4.1020000000000003
aF4.0839999999999996
aF4.0839999999999996
aa(lp2110
g10
(S'\x07\xd9\x0c\x02'
tRp2111
aF4.0830000000000002
aF4.0830000000000002
aF4.0270000000000001
aF4.0270000000000001
aa(lp2112
g10
(S'\x07\xd9\x0c\x03'
tRp2113
aF4.0270000000000001
aF4.0270000000000001
aF4.0049999999999999
aF4.0270000000000001
aa(lp2114
g10
(S'\x07\xd9\x0c\x04'
tRp2115
aF4.0270000000000001
aF4.0270000000000001
aF4.0270000000000001
aF4.0270000000000001
aa(lp2116
g10
(S'\x07\xd9\x0c\x07'
tRp2117
aF4.0270000000000001
aF4.0270000000000001
aF4.0250000000000004
aF4.0250000000000004
aa(lp2118
g10
(S'\x07\xd9\x0c\x08'
tRp2119
aF4.0250000000000004
aF4.0250000000000004
aF4.016
aF4.016
aa(lp2120
g10
(S'\x07\xd9\x0c\t'
tRp2121
aF4.016
aF4.016
aF4.0140000000000002
aF4.0140000000000002
aa(lp2122
g10
(S'\x07\xd9\x0c\n'
tRp2123
aF4.0140000000000002
aF4.0140000000000002
aF4.0119999999999996
aF4.0119999999999996
aa(lp2124
g10
(S'\x07\xd9\x0c\x0b'
tRp2125
aF4.0119999999999996
aF4.0119999999999996
aF3.9940000000000002
aF3.9940000000000002
aa(lp2126
g10
(S'\x07\xd9\x0c\x0e'
tRp2127
aF3.9929999999999999
aF4.0069999999999997
aF3.9929999999999999
aF4.0069999999999997
aa(lp2128
g10
(S'\x07\xd9\x0c\x0f'
tRp2129
aF4.0069999999999997
aF4.0069999999999997
aF4.0069999999999997
aF4.0069999999999997
aa(lp2130
g10
(S'\x07\xd9\x0c\x10'
tRp2131
aF4.0069999999999997
aF4.0069999999999997
aF3.9740000000000002
aF3.9740000000000002
aa(lp2132
g10
(S'\x07\xd9\x0c\x11'
tRp2133
aF3.9729999999999999
aF3.9729999999999999
aF3.9729999999999999
aF3.9729999999999999
aa(lp2134
g10
(S'\x07\xd9\x0c\x12'
tRp2135
aF3.9729999999999999
aF3.9729999999999999
aF3.9609999999999999
aF3.9609999999999999
aa(lp2136
g10
(S'\x07\xd9\x0c\x15'
tRp2137
aF3.96
aF3.96
aF3.9470000000000001
aF3.9470000000000001
aa(lp2138
g10
(S'\x07\xd9\x0c\x16'
tRp2139
aF3.9470000000000001
aF3.9729999999999999
aF3.9470000000000001
aF3.9729999999999999
aa(lp2140
g10
(S'\x07\xd9\x0c\x17'
tRp2141
aF3.972
aF3.972
aF3.9449999999999998
aF3.9449999999999998
aa(lp2142
g10
(S'\x07\xd9\x0c\x18'
tRp2143
aF3.9449999999999998
aF3.9449999999999998
aF3.9449999999999998
aF3.9449999999999998
aa(lp2144
g10
(S'\x07\xd9\x0c\x19'
tRp2145
aF3.9449999999999998
aF3.9449999999999998
aF3.9449999999999998
aF3.9449999999999998
aa(lp2146
g10
(S'\x07\xd9\x0c\x1c'
tRp2147
aF3.9449999999999998
aF3.9929999999999999
aF3.9449999999999998
aF3.9929999999999999
aa(lp2148
g10
(S'\x07\xd9\x0c\x1d'
tRp2149
aF3.992
aF4.0049999999999999
aF3.992
aF4.0049999999999999
aa(lp2150
g10
(S'\x07\xd9\x0c\x1e'
tRp2151
aF4.0049999999999999
aF4.016
aF4.0049999999999999
aF4.016
aa(lp2152
g10
(S'\x07\xd9\x0c\x1f'
tRp2153
aF4.016
aF4.016
aF3.907
aF3.907
aa(lp2154
g10
(S'\x07\xda\x01\x01'
tRp2155
aF3.907
aF3.907
aF3.907
aF3.907
aa(lp2156
g10
(S'\x07\xda\x01\x04'
tRp2157
aF3.915
aF4.0039999999999996
aF3.915
aF4.0039999999999996
aa(lp2158
g10
(S'\x07\xda\x01\x05'
tRp2159
aF4.0039999999999996
aF4.0609999999999999
aF4.0039999999999996
aF4.0609999999999999
aa(lp2160
g10
(S'\x07\xda\x01\x06'
tRp2161
aF4.1319999999999997
aF4.1319999999999997
aF4.1319999999999997
aF4.1319999999999997
aa(lp2162
g10
(S'\x07\xda\x01\x07'
tRp2163
aF4.1319999999999997
aF4.234
aF4.1319999999999997
aF4.234
aa(lp2164
g10
(S'\x07\xda\x01\x08'
tRp2165
aF4.2329999999999997
aF4.2960000000000003
aF4.2329999999999997
aF4.2960000000000003
aa(lp2166
g10
(S'\x07\xda\x01\x0b'
tRp2167
aF4.2800000000000002
aF4.3029999999999999
aF4.2629999999999999
aF4.3029999999999999
aa(lp2168
g10
(S'\x07\xda\x01\x0c'
tRp2169
aF4.3029999999999999
aF4.3029999999999999
aF4.2629999999999999
aF4.2990000000000004
aa(lp2170
g10
(S'\x07\xda\x01\r'
tRp2171
aF4.2720000000000002
aF4.3550000000000004
aF4.2430000000000003
aF4.3550000000000004
aa(lp2172
g10
(S'\x07\xda\x01\x0e'
tRp2173
aF4.3550000000000004
aF4.3869999999999996
aF4.3550000000000004
aF4.3869999999999996
aa(lp2174
g10
(S'\x07\xda\x01\x0f'
tRp2175
aF4.3869999999999996
aF4.4039999999999999
aF4.3869999999999996
aF4.4039999999999999
aa(lp2176
g10
(S'\x07\xda\x01\x12'
tRp2177
aF4.4039999999999999
aF4.4039999999999999
aF4.3639999999999999
aF4.3639999999999999
aa(lp2178
g10
(S'\x07\xda\x01\x13'
tRp2179
aF4.3639999999999999
aF4.3739999999999997
aF4.3639999999999999
aF4.3739999999999997
aa(lp2180
g10
(S'\x07\xda\x01\x14'
tRp2181
aF4.3730000000000002
aF4.3730000000000002
aF4.3719999999999999
aF4.3719999999999999
aa(lp2182
g10
(S'\x07\xda\x01\x15'
tRp2183
aF4.3719999999999999
aF4.4249999999999998
aF4.3719999999999999
aF4.4249999999999998
aa(lp2184
g10
(S'\x07\xda\x01\x16'
tRp2185
aF4.4249999999999998
aF4.4539999999999997
aF4.4249999999999998
aF4.4539999999999997
aa(lp2186
g10
(S'\x07\xda\x01\x19'
tRp2187
aF4.4539999999999997
aF4.4539999999999997
aF4.4349999999999996
aF4.4349999999999996
aa(lp2188
g10
(S'\x07\xda\x01\x1a'
tRp2189
aF4.4130000000000003
aF4.4130000000000003
aF4.4130000000000003
aF4.4130000000000003
aa(lp2190
g10
(S'\x07\xda\x01\x1b'
tRp2191
aF4.4130000000000003
aF4.4130000000000003
aF4.4100000000000001
aF4.4100000000000001
aa(lp2192
g10
(S'\x07\xda\x01\x1c'
tRp2193
aF4.4100000000000001
aF4.4180000000000001
aF4.4100000000000001
aF4.4180000000000001
aa(lp2194
g10
(S'\x07\xda\x01\x1d'
tRp2195
aF4.4180000000000001
aF4.4249999999999998
aF4.4180000000000001
aF4.4249999999999998
aa(lp2196
g10
(S'\x07\xda\x02\x01'
tRp2197
aF4.4249999999999998
aF4.4489999999999998
aF4.4249999999999998
aF4.4489999999999998
aa(lp2198
g10
(S'\x07\xda\x02\x02'
tRp2199
aF4.4489999999999998
aF4.4489999999999998
aF4.4299999999999997
aF4.4299999999999997
aa(lp2200
g10
(S'\x07\xda\x02\x03'
tRp2201
aF4.4299999999999997
aF4.4619999999999997
aF4.4299999999999997
aF4.4619999999999997
aa(lp2202
g10
(S'\x07\xda\x02\x04'
tRp2203
aF4.4619999999999997
aF4.4619999999999997
aF4.4539999999999997
aF4.4539999999999997
aa(lp2204
g10
(S'\x07\xda\x02\x05'
tRp2205
aF4.4530000000000003
aF4.4530000000000003
aF4.4400000000000004
aF4.4400000000000004
aa(lp2206
g10
(S'\x07\xda\x02\x08'
tRp2207
aF4.4400000000000004
aF4.4749999999999996
aF4.4400000000000004
aF4.4749999999999996
aa(lp2208
g10
(S'\x07\xda\x02\t'
tRp2209
aF4.4749999999999996
aF4.4749999999999996
aF4.444
aF4.444
aa(lp2210
g10
(S'\x07\xda\x02\n'
tRp2211
aF4.444
aF4.4500000000000002
aF4.444
aF4.4500000000000002
aa(lp2212
g10
(S'\x07\xda\x02\x0b'
tRp2213
aF4.4500000000000002
aF4.4500000000000002
aF4.4429999999999996
aF4.4429999999999996
aa(lp2214
g10
(S'\x07\xda\x02\x0c'
tRp2215
aF4.4429999999999996
aF4.452
aF4.4429999999999996
aF4.452
aa(lp2216
g10
(S'\x07\xda\x02\x0f'
tRp2217
aF4.452
aF4.452
aF4.3879999999999999
aF4.3879999999999999
aa(lp2218
g10
(S'\x07\xda\x02\x10'
tRp2219
aF4.3879999999999999
aF4.3879999999999999
aF4.3769999999999998
aF4.3769999999999998
aa(lp2220
g10
(S'\x07\xda\x02\x11'
tRp2221
aF4.3769999999999998
aF4.3769999999999998
aF4.3639999999999999
aF4.3639999999999999
aa(lp2222
g10
(S'\x07\xda\x02\x12'
tRp2223
aF4.3639999999999999
aF4.3639999999999999
aF4.3209999999999997
aF4.3209999999999997
aa(lp2224
g10
(S'\x07\xda\x02\x13'
tRp2225
aF4.3209999999999997
aF4.3209999999999997
aF4.2939999999999996
aF4.2939999999999996
aa(lp2226
g10
(S'\x07\xda\x02\x16'
tRp2227
aF4.2939999999999996
aF4.2939999999999996
aF4.25
aF4.25
aa(lp2228
g10
(S'\x07\xda\x02\x17'
tRp2229
aF4.2489999999999997
aF4.266
aF4.2140000000000004
aF4.2140000000000004
aa(lp2230
g10
(S'\x07\xda\x02\x18'
tRp2231
aF4.2130000000000001
aF4.2649999999999997
aF4.1740000000000004
aF4.1740000000000004
aa(lp2232
g10
(S'\x07\xda\x02\x19'
tRp2233
aF4.1740000000000004
aF4.1740000000000004
aF4.1470000000000002
aF4.1470000000000002
aa(lp2234
g10
(S'\x07\xda\x02\x1a'
tRp2235
aF4.1470000000000002
aF4.2000000000000002
aF4.1449999999999996
aF4.1449999999999996
aa(lp2236
g10
(S'\x07\xda\x03\x01'
tRp2237
aF4.1449999999999996
aF4.2000000000000002
aF4.1139999999999999
aF4.1139999999999999
aa(lp2238
g10
(S'\x07\xda\x03\x02'
tRp2239
aF4.1139999999999999
aF4.1139999999999999
aF4.0949999999999998
aF4.0949999999999998
aa(lp2240
g10
(S'\x07\xda\x03\x03'
tRp2241
aF4.0949999999999998
aF4.0949999999999998
aF4.0570000000000004
aF4.0570000000000004
aa(lp2242
g10
(S'\x07\xda\x03\x04'
tRp2243
aF4.0570000000000004
aF4.0609999999999999
aF4.0570000000000004
aF4.0609999999999999
aa(lp2244
g10
(S'\x07\xda\x03\x05'
tRp2245
aF4.0609999999999999
aF4.0609999999999999
aF4.0579999999999998
aF4.0579999999999998
aa(lp2246
g10
(S'\x07\xda\x03\x08'
tRp2247
aF4.0579999999999998
aF4.0579999999999998
aF4.056
aF4.056
aa(lp2248
g10
(S'\x07\xda\x03\t'
tRp2249
aF4.0579999999999998
aF4.0579999999999998
aF4.0490000000000004
aF4.0490000000000004
aa(lp2250
g10
(S'\x07\xda\x03\n'
tRp2251
aF4.048
aF4.0650000000000004
aF4.048
aF4.0650000000000004
aa(lp2252
g10
(S'\x07\xda\x03\x0b'
tRp2253
aF4.0650000000000004
aF4.0960000000000001
aF4.0650000000000004
aF4.0960000000000001
aa(lp2254
g10
(S'\x07\xda\x03\x0c'
tRp2255
aF4.0960000000000001
aF4.1200000000000001
aF4.0960000000000001
aF4.1200000000000001
aa(lp2256
g10
(S'\x07\xda\x03\x0f'
tRp2257
aF4.1200000000000001
aF4.1200000000000001
aF4.117
aF4.117
aa(lp2258
g10
(S'\x07\xda\x03\x10'
tRp2259
aF4.117
aF4.1230000000000002
aF4.117
aF4.1230000000000002
aa(lp2260
g10
(S'\x07\xda\x03\x11'
tRp2261
aF4.1219999999999999
aF4.1219999999999999
aF4.1180000000000003
aF4.1180000000000003
aa(lp2262
g10
(S'\x07\xda\x03\x12'
tRp2263
aF4.1180000000000003
aF4.1180000000000003
aF4.1150000000000002
aF4.1150000000000002
aa(lp2264
g10
(S'\x07\xda\x03\x13'
tRp2265
aF4.1150000000000002
aF4.117
aF4.1150000000000002
aF4.117
aa(lp2266
g10
(S'\x07\xda\x03\x16'
tRp2267
aF4.117
aF4.117
aF4.1020000000000003
aF4.1020000000000003
aa(lp2268
g10
(S'\x07\xda\x03\x17'
tRp2269
aF4.1020000000000003
aF4.1020000000000003
aF4.077
aF4.077
aa(lp2270
g10
(S'\x07\xda\x03\x18'
tRp2271
aF4.0759999999999996
aF4.0759999999999996
aF4.056
aF4.056
aa(lp2272
g10
(S'\x07\xda\x03\x19'
tRp2273
aF4.0549999999999997
aF4.0549999999999997
aF4.0129999999999999
aF4.0129999999999999
aa(lp2274
g10
(S'\x07\xda\x03\x1a'
tRp2275
aF4.0129999999999999
aF4.0170000000000003
aF4.0129999999999999
aF4.0170000000000003
aa(lp2276
g10
(S'\x07\xda\x03\x1d'
tRp2277
aF4.0170000000000003
aF4.0279999999999996
aF3.9980000000000002
aF3.9980000000000002
aa(lp2278
g10
(S'\x07\xda\x03\x1e'
tRp2279
aF4.0069999999999997
aF4.0069999999999997
aF3.9860000000000002
aF3.9860000000000002
aa(lp2280
g10
(S'\x07\xda\x03\x1f'
tRp2281
aF3.984
aF4.0010000000000003
aF3.9710000000000001
aF3.9710000000000001
aa(lp2282
g10
(S'\x07\xda\x04\x01'
tRp2283
aF3.9590000000000001
aF3.9590000000000001
aF3.9239999999999999
aF3.9239999999999999
aa(lp2284
g10
(S'\x07\xda\x04\x02'
tRp2285
aF3.923
aF3.956
aF3.923
aF3.956
aa(lp2286
g10
(S'\x07\xda\x04\x05'
tRp2287
aF3.956
aF3.956
aF3.956
aF3.956
aa(lp2288
g10
(S'\x07\xda\x04\x06'
tRp2289
aF3.956
aF3.976
aF3.927
aF3.927
aa(lp2290
g10
(S'\x07\xda\x04\x07'
tRp2291
aF3.9260000000000002
aF3.9260000000000002
aF3.9020000000000001
aF3.9020000000000001
aa(lp2292
g10
(S'\x07\xda\x04\x08'
tRp2293
aF3.9020000000000001
aF3.9020000000000001
aF3.875
aF3.875
aa(lp2294
g10
(S'\x07\xda\x04\t'
tRp2295
aF3.875
aF3.875
aF3.8620000000000001
aF3.8620000000000001
aa(lp2296
g10
(S'\x07\xda\x04\x0c'
tRp2297
aF3.8620000000000001
aF3.8620000000000001
aF3.8300000000000001
aF3.8300000000000001
aa(lp2298
g10
(S'\x07\xda\x04\r'
tRp2299
aF3.8300000000000001
aF3.8300000000000001
aF3.7040000000000002
aF3.7040000000000002
aa(lp2300
g10
(S'\x07\xda\x04\x0e'
tRp2301
aF3.7029999999999998
aF3.7509999999999999
aF3.637
aF3.637
aa(lp2302
g10
(S'\x07\xda\x04\x0f'
tRp2303
aF3.637
aF3.6789999999999998
aF3.5819999999999999
aF3.5819999999999999
aa(lp2304
g10
(S'\x07\xda\x04\x10'
tRp2305
aF3.6200000000000001
aF3.6200000000000001
aF3.5619999999999998
aF3.5619999999999998
aa(lp2306
g10
(S'\x07\xda\x04\x13'
tRp2307
aF3.5619999999999998
aF3.5760000000000001
aF3.5619999999999998
aF3.5760000000000001
aa(lp2308
g10
(S'\x07\xda\x04\x14'
tRp2309
aF3.5760000000000001
aF3.6190000000000002
aF3.5760000000000001
aF3.6190000000000002
aa(lp2310
g10
(S'\x07\xda\x04\x15'
tRp2311
aF3.6179999999999999
aF3.6179999999999999
aF3.6120000000000001
aF3.6120000000000001
aa(lp2312
g10
(S'\x07\xda\x04\x16'
tRp2313
aF3.6120000000000001
aF3.6379999999999999
aF3.6120000000000001
aF3.6379999999999999
aa(lp2314
g10
(S'\x07\xda\x04\x17'
tRp2315
aF3.6379999999999999
aF3.6400000000000001
aF3.6379999999999999
aF3.6400000000000001
aa(lp2316
g10
(S'\x07\xda\x04\x1a'
tRp2317
aF3.6400000000000001
aF3.6400000000000001
aF3.6219999999999999
aF3.6219999999999999
aa(lp2318
g10
(S'\x07\xda\x04\x1b'
tRp2319
aF3.621
aF3.6850000000000001
aF3.621
aF3.6850000000000001
aa(lp2320
g10
(S'\x07\xda\x04\x1c'
tRp2321
aF3.6840000000000002
aF3.7669999999999999
aF3.6600000000000001
aF3.7669999999999999
aa(lp2322
g10
(S'\x07\xda\x04\x1d'
tRp2323
aF3.766
aF3.766
aF3.762
aF3.762
aa(lp2324
g10
(S'\x07\xda\x04\x1e'
tRp2325
aF3.762
aF3.762
aF3.71
aF3.71
aa(lp2326
g10
(S'\x07\xda\x05\x03'
tRp2327
aF3.71
aF3.738
aF3.71
aF3.738
aa(lp2328
g10
(S'\x07\xda\x05\x04'
tRp2329
aF3.7370000000000001
aF3.7370000000000001
aF3.73
aF3.73
aa(lp2330
g10
(S'\x07\xda\x05\x05'
tRp2331
aF3.7290000000000001
aF3.847
aF3.7290000000000001
aF3.847
aa(lp2332
g10
(S'\x07\xda\x05\x06'
tRp2333
aF3.847
aF3.847
aF3.8119999999999998
aF3.8439999999999999
aa(lp2334
g10
(S'\x07\xda\x05\x07'
tRp2335
aF3.8439999999999999
aF3.8439999999999999
aF3.8380000000000001
aF3.8380000000000001
aa(lp2336
g10
(S'\x07\xda\x05\n'
tRp2337
aF3.8380000000000001
aF3.8380000000000001
aF3.8180000000000001
aF3.8180000000000001
aa(lp2338
g10
(S'\x07\xda\x05\x0b'
tRp2339
aF3.8180000000000001
aF3.8180000000000001
aF3.8079999999999998
aF3.8079999999999998
aa(lp2340
g10
(S'\x07\xda\x05\x0c'
tRp2341
aF3.8069999999999999
aF3.8069999999999999
aF3.7759999999999998
aF3.8029999999999999
aa(lp2342
g10
(S'\x07\xda\x05\r'
tRp2343
aF3.8029999999999999
aF3.8029999999999999
aF3.7839999999999998
aF3.7839999999999998
aa(lp2344
g10
(S'\x07\xda\x05\x0e'
tRp2345
aF3.7839999999999998
aF3.7839999999999998
aF3.7549999999999999
aF3.7549999999999999
aa(lp2346
g10
(S'\x07\xda\x05\x11'
tRp2347
aF3.754
aF3.8079999999999998
aF3.754
aF3.8079999999999998
aa(lp2348
g10
(S'\x07\xda\x05\x12'
tRp2349
aF3.7639999999999998
aF3.8039999999999998
aF3.7639999999999998
aF3.8039999999999998
aa(lp2350
g10
(S'\x07\xda\x05\x13'
tRp2351
aF3.7570000000000001
aF3.7970000000000002
aF3.7240000000000002
aF3.7970000000000002
aa(lp2352
g10
(S'\x07\xda\x05\x14'
tRp2353
aF3.7959999999999998
aF3.798
aF3.7959999999999998
aF3.798
aa(lp2354
g10
(S'\x07\xda\x05\x15'
tRp2355
aF3.798
aF3.8300000000000001
aF3.798
aF3.8300000000000001
aa(lp2356
g10
(S'\x07\xda\x05\x18'
tRp2357
aF3.8300000000000001
aF3.9319999999999999
aF3.8300000000000001
aF3.9319999999999999
aa(lp2358
g10
(S'\x07\xda\x05\x19'
tRp2359
aF3.931
aF3.992
aF3.931
aF3.992
aa(lp2360
g10
(S'\x07\xda\x05\x1a'
tRp2361
aF4.0030000000000001
aF4.0300000000000002
aF4.0030000000000001
aF4.0300000000000002
aa(lp2362
g10
(S'\x07\xda\x05\x1b'
tRp2363
aF4.0289999999999999
aF4.0289999999999999
aF4.0019999999999998
aF4.0019999999999998
aa(lp2364
g10
(S'\x07\xda\x05\x1c'
tRp2365
aF4.0010000000000003
aF4.0010000000000003
aF3.9889999999999999
aF3.9889999999999999
aa(lp2366
g10
(S'\x07\xda\x05\x1f'
tRp2367
aF3.9889999999999999
aF3.9929999999999999
aF3.9889999999999999
aF3.9929999999999999
aa(lp2368
g10
(S'\x07\xda\x06\x01'
tRp2369
aF3.992
aF4.0149999999999997
aF3.992
aF4.0149999999999997
aa(lp2370
g10
(S'\x07\xda\x06\x02'
tRp2371
aF4.234
aF4.2789999999999999
aF4.234
aF4.2789999999999999
aa(lp2372
g10
(S'\x07\xda\x06\x03'
tRp2373
aF4.2789999999999999
aF4.2809999999999997
aF4.2789999999999999
aF4.2809999999999997
aa(lp2374
g10
(S'\x07\xda\x06\x04'
tRp2375
aF4.2809999999999997
aF4.3460000000000001
aF4.2809999999999997
aF4.3460000000000001
aa(lp2376
g10
(S'\x07\xda\x06\x07'
tRp2377
aF4.3460000000000001
aF4.3460000000000001
aF4.3449999999999998
aF4.3449999999999998
aa(lp2378
g10
(S'\x07\xda\x06\x08'
tRp2379
aF4.3449999999999998
aF4.3449999999999998
aF4.327
aF4.327
aa(lp2380
g10
(S'\x07\xda\x06\t'
tRp2381
aF4.3280000000000003
aF4.3280000000000003
aF4.3109999999999999
aF4.3109999999999999
aa(lp2382
g10
(S'\x07\xda\x06\n'
tRp2383
aF4.3120000000000003
aF4.3120000000000003
aF4.2990000000000004
aF4.2990000000000004
aa(lp2384
g10
(S'\x07\xda\x06\x0b'
tRp2385
aF4.2990000000000004
aF4.2990000000000004
aF4.2949999999999999
aF4.2949999999999999
aa(lp2386
g10
(S'\x07\xda\x06\x0e'
tRp2387
aF4.2960000000000003
aF4.2960000000000003
aF4.2800000000000002
aF4.2800000000000002
aa(lp2388
g10
(S'\x07\xda\x06\x0f'
tRp2389
aF4.2800000000000002
aF4.2800000000000002
aF4.2789999999999999
aF4.2789999999999999
aa(lp2390
g10
(S'\x07\xda\x06\x10'
tRp2391
aF4.2800000000000002
aF4.298
aF4.2800000000000002
aF4.298
aa(lp2392
g10
(S'\x07\xda\x06\x11'
tRp2393
aF4.298
aF4.298
aF4.2779999999999996
aF4.2779999999999996
aa(lp2394
g10
(S'\x07\xda\x06\x12'
tRp2395
aF4.2779999999999996
aF4.2839999999999998
aF4.2779999999999996
aF4.2839999999999998
aa(lp2396
g10
(S'\x07\xda\x06\x15'
tRp2397
aF4.2850000000000001
aF4.2850000000000001
aF4.2839999999999998
aF4.2839999999999998
aa(lp2398
g10
(S'\x07\xda\x06\x16'
tRp2399
aF4.2839999999999998
aF4.2839999999999998
aF4.266
aF4.266
aa(lp2400
g10
(S'\x07\xda\x06\x17'
tRp2401
aF4.266
aF4.2670000000000003
aF4.266
aF4.2670000000000003
aa(lp2402
g10
(S'\x07\xda\x06\x18'
tRp2403
aF4.2670000000000003
aF4.2670000000000003
aF4.2030000000000003
aF4.2030000000000003
aa(lp2404
g10
(S'\x07\xda\x06\x19'
tRp2405
aF4.2030000000000003
aF4.2030000000000003
aF4.2030000000000003
aF4.2030000000000003
aa(lp2406
g10
(S'\x07\xda\x06\x1c'
tRp2407
aF4.2030000000000003
aF4.2030000000000003
aF4.1210000000000004
aF4.1210000000000004
aa(lp2408
g10
(S'\x07\xda\x06\x1d'
tRp2409
aF4.1210000000000004
aF4.1760000000000002
aF4.1210000000000004
aF4.1760000000000002
aa(lp2410
g10
(S'\x07\xda\x06\x1e'
tRp2411
aF4.1769999999999996
aF4.1769999999999996
aF4.1059999999999999
aF4.1059999999999999
aa(lp2412
g10
(S'\x07\xda\x07\x01'
tRp2413
aF4.1059999999999999
aF4.125
aF4.1059999999999999
aF4.125
aa(lp2414
g10
(S'\x07\xda\x07\x02'
tRp2415
aF4.125
aF4.125
aF4.0700000000000003
aF4.0700000000000003
aa(lp2416
g10
(S'\x07\xda\x07\x05'
tRp2417
aF4.0700000000000003
aF4.0739999999999998
aF4.0700000000000003
aF4.0739999999999998
aa(lp2418
g10
(S'\x07\xda\x07\x06'
tRp2419
aF4.0739999999999998
aF4.1230000000000002
aF4.0739999999999998
aF4.1230000000000002
aa(lp2420
g10
(S'\x07\xda\x07\x07'
tRp2421
aF4.1239999999999997
aF4.1239999999999997
aF4.0970000000000004
aF4.0970000000000004
aa(lp2422
g10
(S'\x07\xda\x07\x08'
tRp2423
aF4.0970000000000004
aF4.1050000000000004
aF4.0970000000000004
aF4.1050000000000004
aa(lp2424
g10
(S'\x07\xda\x07\t'
tRp2425
aF4.1050000000000004
aF4.1050000000000004
aF4.0979999999999999
aF4.0979999999999999
aa(lp2426
g10
(S'\x07\xda\x07\x0c'
tRp2427
aF4.0979999999999999
aF4.133
aF4.0979999999999999
aF4.133
aa(lp2428
g10
(S'\x07\xda\x07\r'
tRp2429
aF4.133
aF4.133
aF4.1319999999999997
aF4.1319999999999997
aa(lp2430
g10
(S'\x07\xda\x07\x0e'
tRp2431
aF4.1319999999999997
aF4.1319999999999997
aF4.0309999999999997
aF4.0309999999999997
aa(lp2432
g10
(S'\x07\xda\x07\x0f'
tRp2433
aF4.0309999999999997
aF4.0309999999999997
aF4.0190000000000001
aF4.0190000000000001
aa(lp2434
g10
(S'\x07\xda\x07\x10'
tRp2435
aF4.0190000000000001
aF4.0190000000000001
aF4.0129999999999999
aF4.0129999999999999
aa(lp2436
g10
(S'\x07\xda\x07\x13'
tRp2437
aF4.0129999999999999
aF4.0129999999999999
aF3.996
aF3.996
aa(lp2438
g10
(S'\x07\xda\x07\x14'
tRp2439
aF3.996
aF3.996
aF3.9820000000000002
aF3.9820000000000002
aa(lp2440
g10
(S'\x07\xda\x07\x15'
tRp2441
aF3.9820000000000002
aF3.9820000000000002
aF3.9769999999999999
aF3.9769999999999999
aa(lp2442
g10
(S'\x07\xda\x07\x16'
tRp2443
aF3.9769999999999999
aF3.9769999999999999
aF3.891
aF3.891
aa(lp2444
g10
(S'\x07\xda\x07\x17'
tRp2445
aF3.891
aF3.891
aF3.8420000000000001
aF3.8420000000000001
aa(lp2446
g10
(S'\x07\xda\x07\x1a'
tRp2447
aF3.8420000000000001
aF3.8420000000000001
aF3.8330000000000002
aF3.8330000000000002
aa(lp2448
g10
(S'\x07\xda\x07\x1b'
tRp2449
aF3.8330000000000002
aF3.839
aF3.8330000000000002
aF3.839
aa(lp2450
g10
(S'\x07\xda\x07\x1c'
tRp2451
aF3.839
aF3.839
aF3.8239999999999998
aF3.8239999999999998
aa(lp2452
g10
(S'\x07\xda\x07\x1d'
tRp2453
aF3.8239999999999998
aF3.8239999999999998
aF3.8199999999999998
aF3.8199999999999998
aa(lp2454
g10
(S'\x07\xda\x07\x1e'
tRp2455
aF3.8119999999999998
aF3.8119999999999998
aF3.8119999999999998
aF3.8119999999999998
aa(lp2456
g10
(S'\x07\xda\x08\x02'
tRp2457
aF3.8119999999999998
aF3.8119999999999998
aF3.798
aF3.798
aa(lp2458
g10
(S'\x07\xda\x08\x03'
tRp2459
aF3.798
aF3.798
aF3.7930000000000001
aF3.7930000000000001
aa(lp2460
g10
(S'\x07\xda\x08\x04'
tRp2461
aF3.794
aF3.794
aF3.7650000000000001
aF3.7650000000000001
aa(lp2462
g10
(S'\x07\xda\x08\x05'
tRp2463
aF3.7650000000000001
aF3.766
aF3.7650000000000001
aF3.766
aa(lp2464
g10
(S'\x07\xda\x08\x06'
tRp2465
aF3.766
aF3.766
aF3.754
aF3.754
aa(lp2466
g10
(S'\x07\xda\x08\t'
tRp2467
aF3.754
aF3.754
aF3.7480000000000002
aF3.7480000000000002
aa(lp2468
g10
(S'\x07\xda\x08\n'
tRp2469
aF3.7490000000000001
aF3.7490000000000001
aF3.7200000000000002
aF3.7200000000000002
aa(lp2470
g10
(S'\x07\xda\x08\x0b'
tRp2471
aF3.7200000000000002
aF3.7200000000000002
aF3.6640000000000001
aF3.6640000000000001
aa(lp2472
g10
(S'\x07\xda\x08\x0c'
tRp2473
aF3.6640000000000001
aF3.6640000000000001
aF3.5710000000000002
aF3.5710000000000002
aa(lp2474
g10
(S'\x07\xda\x08\r'
tRp2475
aF3.5710000000000002
aF3.5979999999999999
aF3.5710000000000002
aF3.5979999999999999
aa(lp2476
g10
(S'\x07\xda\x08\x10'
tRp2477
aF3.5979999999999999
aF3.5979999999999999
aF3.5979999999999999
aF3.5979999999999999
aa(lp2478
g10
(S'\x07\xda\x08\x11'
tRp2479
aF3.5979999999999999
aF3.5979999999999999
aF3.589
aF3.589
aa(lp2480
g10
(S'\x07\xda\x08\x12'
tRp2481
aF3.589
aF3.589
aF3.5299999999999998
aF3.5299999999999998
aa(lp2482
g10
(S'\x07\xda\x08\x13'
tRp2483
aF3.5299999999999998
aF3.5649999999999999
aF3.5299999999999998
aF3.5649999999999999
aa(lp2484
g10
(S'\x07\xda\x08\x14'
tRp2485
aF3.5649999999999999
aF3.5649999999999999
aF3.4849999999999999
aF3.4849999999999999
aa(lp2486
g10
(S'\x07\xda\x08\x17'
tRp2487
aF3.4849999999999999
aF3.496
aF3.4849999999999999
aF3.496
aa(lp2488
g10
(S'\x07\xda\x08\x18'
tRp2489
aF3.496
aF3.496
aF3.4169999999999998
aF3.4169999999999998
aa(lp2490
g10
(S'\x07\xda\x08\x19'
tRp2491
aF3.4169999999999998
aF3.4169999999999998
aF3.3319999999999999
aF3.3319999999999999
aa(lp2492
g10
(S'\x07\xda\x08\x1a'
tRp2493
aF3.3319999999999999
aF3.339
aF3.3319999999999999
aF3.339
aa(lp2494
g10
(S'\x07\xda\x08\x1b'
tRp2495
aF3.339
aF3.339
aF3.3130000000000002
aF3.3130000000000002
aa(lp2496
g10
(S'\x07\xda\x08\x1e'
tRp2497
aF3.3130000000000002
aF3.323
aF3.3130000000000002
aF3.323
aa(lp2498
g10
(S'\x07\xda\x08\x1f'
tRp2499
aF3.3220000000000001
aF3.3220000000000001
aF3.319
aF3.319
aa(lp2500
g10
(S'\x07\xda\t\x01'
tRp2501
aF3.3180000000000001
aF3.3180000000000001
aF3.3010000000000002
aF3.3010000000000002
aa(lp2502
g10
(S'\x07\xda\t\x02'
tRp2503
aF3.3010000000000002
aF3.3010000000000002
aF3.2549999999999999
aF3.2549999999999999
aa(lp2504
g10
(S'\x07\xda\t\x03'
tRp2505
aF3.2549999999999999
aF3.3319999999999999
aF3.2549999999999999
aF3.3319999999999999
aa(lp2506
g10
(S'\x07\xda\t\x06'
tRp2507
aF3.3319999999999999
aF3.335
aF3.3319999999999999
aF3.335
aa(lp2508
g10
(S'\x07\xda\t\x07'
tRp2509
aF3.3340000000000001
aF3.3340000000000001
aF3.3199999999999998
aF3.3199999999999998
aa(lp2510
g10
(S'\x07\xda\t\x08'
tRp2511
aF3.319
aF3.319
aF3.2839999999999998
aF3.2839999999999998
aa(lp2512
g10
(S'\x07\xda\t\t'
tRp2513
aF3.2829999999999999
aF3.2829999999999999
aF3.2429999999999999
aF3.2429999999999999
aa(lp2514
g10
(S'\x07\xda\t\n'
tRp2515
aF3.2429999999999999
aF3.2709999999999999
aF3.2429999999999999
aF3.2709999999999999
aa(lp2516
g10
(S'\x07\xda\t\r'
tRp2517
aF3.2709999999999999
aF3.3490000000000002
aF3.2709999999999999
aF3.3490000000000002
aa(lp2518
g10
(S'\x07\xda\t\x0e'
tRp2519
aF3.3479999999999999
aF3.3500000000000001
aF3.3479999999999999
aF3.3500000000000001
aa(lp2520
g10
(S'\x07\xda\t\x0f'
tRp2521
aF3.3500000000000001
aF3.3610000000000002
aF3.3500000000000001
aF3.3610000000000002
aa(lp2522
g10
(S'\x07\xda\t\x10'
tRp2523
aF3.3610000000000002
aF3.3849999999999998
aF3.3610000000000002
aF3.3849999999999998
aa(lp2524
g10
(S'\x07\xda\t\x11'
tRp2525
aF3.3839999999999999
aF3.3860000000000001
aF3.3839999999999999
aF3.3860000000000001
aa(lp2526
g10
(S'\x07\xda\t\x14'
tRp2527
aF3.3860000000000001
aF3.4140000000000001
aF3.3860000000000001
aF3.4140000000000001
aa(lp2528
g10
(S'\x07\xda\t\x15'
tRp2529
aF3.4140000000000001
aF3.4140000000000001
aF3.4049999999999998
aF3.4049999999999998
aa(lp2530
g10
(S'\x07\xda\t\x16'
tRp2531
aF3.4049999999999998
aF3.4169999999999998
aF3.4049999999999998
aF3.4169999999999998
aa(lp2532
g10
(S'\x07\xda\t\x17'
tRp2533
aF3.4169999999999998
aF3.4169999999999998
aF3.4039999999999999
aF3.4039999999999999
aa(lp2534
g10
(S'\x07\xda\t\x18'
tRp2535
aF3.4039999999999999
aF3.4169999999999998
aF3.4039999999999999
aF3.4169999999999998
aa(lp2536
g10
(S'\x07\xda\t\x1b'
tRp2537
aF3.4169999999999998
aF3.4169999999999998
aF3.4159999999999999
aF3.4159999999999999
aa(lp2538
g10
(S'\x07\xda\t\x1c'
tRp2539
aF3.4159999999999999
aF3.4159999999999999
aF3.4159999999999999
aF3.4159999999999999
aa(lp2540
g10
(S'\x07\xda\t\x1d'
tRp2541
aF3.4159999999999999
aF3.4159999999999999
aF3.3940000000000001
aF3.3940000000000001
aa(lp2542
g10
(S'\x07\xda\t\x1e'
tRp2543
aF3.3940000000000001
aF3.3940000000000001
aF3.3660000000000001
aF3.3660000000000001
aa(lp2544
g10
(S'\x07\xda\n\x01'
tRp2545
aF3.3650000000000002
aF3.379
aF3.3650000000000002
aF3.379
aa(lp2546
g10
(S'\x07\xda\n\x04'
tRp2547
aF3.379
aF3.3809999999999998
aF3.379
aF3.3809999999999998
aa(lp2548
g10
(S'\x07\xda\n\x05'
tRp2549
aF3.3809999999999998
aF3.3809999999999998
aF3.379
aF3.379
aa(lp2550
g10
(S'\x07\xda\n\x06'
tRp2551
aF3.379
aF3.379
aF3.3740000000000001
aF3.3740000000000001
aa(lp2552
g10
(S'\x07\xda\n\x07'
tRp2553
aF3.3730000000000002
aF3.3799999999999999
aF3.3730000000000002
aF3.3799999999999999
aa(lp2554
g10
(S'\x07\xda\n\x08'
tRp2555
aF3.3799999999999999
aF3.3799999999999999
aF3.3730000000000002
aF3.3730000000000002
aa(lp2556
g10
(S'\x07\xda\n\x0b'
tRp2557
aF3.3730000000000002
aF3.3769999999999998
aF3.3730000000000002
aF3.3769999999999998
aa(lp2558
g10
(S'\x07\xda\n\x0c'
tRp2559
aF3.3769999999999998
aF3.3769999999999998
aF3.3740000000000001
aF3.3740000000000001
aa(lp2560
g10
(S'\x07\xda\n\r'
tRp2561
aF3.3740000000000001
aF3.3799999999999999
aF3.3740000000000001
aF3.3799999999999999
aa(lp2562
g10
(S'\x07\xda\n\x0e'
tRp2563
aF3.3799999999999999
aF3.3799999999999999
aF3.367
aF3.367
aa(lp2564
g10
(S'\x07\xda\n\x0f'
tRp2565
aF3.367
aF3.387
aF3.367
aF3.387
aa(lp2566
g10
(S'\x07\xda\n\x12'
tRp2567
aF3.387
aF3.3919999999999999
aF3.387
aF3.3919999999999999
aa(lp2568
g10
(S'\x07\xda\n\x13'
tRp2569
aF3.3919999999999999
aF3.4329999999999998
aF3.3919999999999999
aF3.4329999999999998
aa(lp2570
g10
(S'\x07\xda\n\x14'
tRp2571
aF3.4329999999999998
aF3.4900000000000002
aF3.4329999999999998
aF3.4900000000000002
aa(lp2572
g10
(S'\x07\xda\n\x15'
tRp2573
aF3.4900000000000002
aF3.5
aF3.4900000000000002
aF3.5
aa(lp2574
g10
(S'\x07\xda\n\x16'
tRp2575
aF3.5
aF3.504
aF3.5
aF3.504
aa(lp2576
g10
(S'\x07\xda\n\x19'
tRp2577
aF3.504
aF3.5169999999999999
aF3.504
aF3.5169999999999999
aa(lp2578
g10
(S'\x07\xda\n\x1a'
tRp2579
aF3.5169999999999999
aF3.5649999999999999
aF3.5169999999999999
aF3.5649999999999999
aa(lp2580
g10
(S'\x07\xda\n\x1b'
tRp2581
aF3.5649999999999999
aF3.6480000000000001
aF3.5649999999999999
aF3.6480000000000001
aa(lp2582
g10
(S'\x07\xda\n\x1d'
tRp2583
aF3.6480000000000001
aF3.6629999999999998
aF3.6480000000000001
aF3.6629999999999998
aa(lp2584
g10
(S'\x07\xda\x0b\x01'
tRp2585
aF3.6629999999999998
aF3.6629999999999998
aF3.637
aF3.637
aa(lp2586
g10
(S'\x07\xda\x0b\x02'
tRp2587
aF3.637
aF3.637
aF3.6190000000000002
aF3.6190000000000002
aa(lp2588
g10
(S'\x07\xda\x0b\x03'
tRp2589
aF3.6190000000000002
aF3.6190000000000002
aF3.5830000000000002
aF3.5830000000000002
aa(lp2590
g10
(S'\x07\xda\x0b\x04'
tRp2591
aF3.5830000000000002
aF3.5920000000000001
aF3.5830000000000002
aF3.5920000000000001
aa(lp2592
g10
(S'\x07\xda\x0b\x05'
tRp2593
aF3.5920000000000001
aF3.5920000000000001
aF3.5609999999999999
aF3.5609999999999999
aa(lp2594
g10
(S'\x07\xda\x0b\x08'
tRp2595
aF3.5609999999999999
aF3.5609999999999999
aF3.5369999999999999
aF3.5369999999999999
aa(lp2596
g10
(S'\x07\xda\x0b\t'
tRp2597
aF3.5369999999999999
aF3.5369999999999999
aF3.5219999999999998
aF3.5219999999999998
aa(lp2598
g10
(S'\x07\xda\x0b\n'
tRp2599
aF3.5219999999999998
aF3.5510000000000002
aF3.5219999999999998
aF3.5510000000000002
aa(lp2600
g10
(S'\x07\xda\x0b\x0b'
tRp2601
aF3.5499999999999998
aF3.5499999999999998
aF3.5299999999999998
aF3.5299999999999998
aa(lp2602
g10
(S'\x07\xda\x0b\x0c'
tRp2603
aF3.5299999999999998
aF3.536
aF3.5299999999999998
aF3.536
aa(lp2604
g10
(S'\x07\xda\x0b\x0f'
tRp2605
aF3.536
aF3.5619999999999998
aF3.536
aF3.5619999999999998
aa(lp2606
g10
(S'\x07\xda\x0b\x10'
tRp2607
aF3.5619999999999998
aF3.5659999999999998
aF3.5619999999999998
aF3.5659999999999998
aa(lp2608
g10
(S'\x07\xda\x0b\x11'
tRp2609
aF3.5659999999999998
aF3.5659999999999998
aF3.5659999999999998
aF3.5659999999999998
aa(lp2610
g10
(S'\x07\xda\x0b\x12'
tRp2611
aF3.5659999999999998
aF3.6059999999999999
aF3.5659999999999998
aF3.6059999999999999
aa(lp2612
g10
(S'\x07\xda\x0b\x13'
tRp2613
aF3.6059999999999999
aF3.6110000000000002
aF3.6059999999999999
aF3.6110000000000002
aa(lp2614
g10
(S'\x07\xda\x0b\x16'
tRp2615
aF3.6110000000000002
aF3.6339999999999999
aF3.6110000000000002
aF3.6339999999999999
aa(lp2616
g10
(S'\x07\xda\x0b\x17'
tRp2617
aF3.6339999999999999
aF3.6339999999999999
aF3.6190000000000002
aF3.6190000000000002
aa(lp2618
g10
(S'\x07\xda\x0b\x18'
tRp2619
aF3.6179999999999999
aF3.6669999999999998
aF3.6179999999999999
aF3.6669999999999998
aa(lp2620
g10
(S'\x07\xda\x0b\x19'
tRp2621
aF3.6669999999999998
aF3.6909999999999998
aF3.6669999999999998
aF3.6909999999999998
aa(lp2622
g10
(S'\x07\xda\x0b\x1a'
tRp2623
aF3.6909999999999998
aF3.714
aF3.6909999999999998
aF3.714
aa(lp2624
g10
(S'\x07\xda\x0b\x1d'
tRp2625
aF3.714
aF3.7509999999999999
aF3.714
aF3.7509999999999999
aa(lp2626
g10
(S'\x07\xda\x0b\x1e'
tRp2627
aF3.7509999999999999
aF3.7709999999999999
aF3.7509999999999999
aF3.7709999999999999
aa(lp2628
g10
(S'\x07\xda\x0c\x01'
tRp2629
aF3.7709999999999999
aF3.851
aF3.7709999999999999
aF3.851
aa(lp2630
g10
(S'\x07\xda\x0c\x02'
tRp2631
aF3.851
aF3.8700000000000001
aF3.851
aF3.8700000000000001
aa(lp2632
g10
(S'\x07\xda\x0c\x03'
tRp2633
aF3.8700000000000001
aF3.9060000000000001
aF3.8700000000000001
aF3.9060000000000001
aa(lp2634
g10
(S'\x07\xda\x0c\x06'
tRp2635
aF3.9060000000000001
aF3.9060000000000001
aF3.8769999999999998
aF3.8769999999999998
aa(lp2636
g10
(S'\x07\xda\x0c\x07'
tRp2637
aF3.8769999999999998
aF3.8969999999999998
aF3.8769999999999998
aF3.8969999999999998
aa(lp2638
g10
(S'\x07\xda\x0c\x08'
tRp2639
aF3.8969999999999998
aF3.9220000000000002
aF3.8969999999999998
aF3.9220000000000002
aa(lp2640
g10
(S'\x07\xda\x0c\t'
tRp2641
aF3.9220000000000002
aF3.9220000000000002
aF3.9020000000000001
aF3.9020000000000001
aa(lp2642
g10
(S'\x07\xda\x0c\n'
tRp2643
aF3.9020000000000001
aF3.9020000000000001
aF3.8700000000000001
aF3.8700000000000001
aa(lp2644
g10
(S'\x07\xda\x0c\r'
tRp2645
aF3.8700000000000001
aF3.8959999999999999
aF3.8700000000000001
aF3.8959999999999999
aa(lp2646
g10
(S'\x07\xda\x0c\x0e'
tRp2647
aF3.8959999999999999
aF3.8959999999999999
aF3.879
aF3.879
aa(lp2648
g10
(S'\x07\xda\x0c\x0f'
tRp2649
aF3.879
aF3.8969999999999998
aF3.879
aF3.8969999999999998
aa(lp2650
g10
(S'\x07\xda\x0c\x10'
tRp2651
aF3.8969999999999998
aF3.9039999999999999
aF3.8969999999999998
aF3.9039999999999999
aa(lp2652
g10
(S'\x07\xda\x0c\x11'
tRp2653
aF3.9039999999999999
aF3.9039999999999999
aF3.8969999999999998
aF3.8969999999999998
aa(lp2654
g10
(S'\x07\xda\x0c\x14'
tRp2655
aF3.8969999999999998
aF3.8969999999999998
aF3.891
aF3.891
aa(lp2656
g10
(S'\x07\xda\x0c\x15'
tRp2657
aF3.891
aF3.8929999999999998
aF3.891
aF3.8929999999999998
aa(lp2658
g10
(S'\x07\xda\x0c\x16'
tRp2659
aF3.8929999999999998
aF3.8940000000000001
aF3.8929999999999998
aF3.8940000000000001
aa(lp2660
g10
(S'\x07\xda\x0c\x17'
tRp2661
aF3.8940000000000001
aF3.8959999999999999
aF3.8940000000000001
aF3.8959999999999999
aa(lp2662
g10
(S'\x07\xda\x0c\x18'
tRp2663
aF3.8959999999999999
aF3.8959999999999999
aF3.8959999999999999
aF3.8959999999999999
aa(lp2664
g10
(S'\x07\xda\x0c\x1b'
tRp2665
aF3.8959999999999999
aF3.899
aF3.8959999999999999
aF3.899
aa(lp2666
g10
(S'\x07\xda\x0c\x1c'
tRp2667
aF3.899
aF3.9060000000000001
aF3.899
aF3.9060000000000001
aa(lp2668
g10
(S'\x07\xda\x0c\x1d'
tRp2669
aF3.9060000000000001
aF3.9180000000000001
aF3.9060000000000001
aF3.9180000000000001
aa(lp2670
g10
(S'\x07\xda\x0c\x1e'
tRp2671
aF3.9180000000000001
aF3.9180000000000001
aF3.9089999999999998
aF3.9089999999999998
aa(lp2672
g10
(S'\x07\xda\x0c\x1f'
tRp2673
aF3.9089999999999998
aF3.9089999999999998
aF3.9049999999999998
aF3.9049999999999998
aa(lp2674
g10
(S'\x07\xdb\x01\x03'
tRp2675
aF3.9049999999999998
aF3.9060000000000001
aF3.9049999999999998
aF3.9060000000000001
aa(lp2676
g10
(S'\x07\xdb\x01\x04'
tRp2677
aF3.9060000000000001
aF3.9060000000000001
aF3.8860000000000001
aF3.8860000000000001
aa(lp2678
g10
(S'\x07\xdb\x01\x05'
tRp2679
aF3.8860000000000001
aF3.8860000000000001
aF3.8730000000000002
aF3.8730000000000002
aa(lp2680
g10
(S'\x07\xdb\x01\x06'
tRp2681
aF3.8730000000000002
aF3.9020000000000001
aF3.8730000000000002
aF3.9020000000000001
aa(lp2682
g10
(S'\x07\xdb\x01\x07'
tRp2683
aF3.9020000000000001
aF3.9020000000000001
aF3.8889999999999998
aF3.8889999999999998
aa(lp2684
g10
(S'\x07\xdb\x01\n'
tRp2685
aF3.9569999999999999
aF3.9569999999999999
aF3.8900000000000001
aF3.8929999999999998
aa(lp2686
g10
(S'\x07\xdb\x01\x0b'
tRp2687
aF3.9380000000000002
aF3.9500000000000002
aF3.883
aF3.8900000000000001
aa(lp2688
g10
(S'\x07\xdb\x01\x0c'
tRp2689
aF3.9380000000000002
aF3.9500000000000002
aF3.843
aF3.9500000000000002
aa(lp2690
g10
(S'\x07\xdb\x01\r'
tRp2691
aF3.9380000000000002
aF4.0270000000000001
aF3.8740000000000001
aF3.8929999999999998
aa(lp2692
g10
(S'\x07\xdb\x01\x0e'
tRp2693
aF3.9849999999999999
aF3.9849999999999999
aF3.899
aF3.9089999999999998
aa(lp2694
g10
(S'\x07\xdb\x01\x11'
tRp2695
aF3.8780000000000001
aF3.9300000000000002
aF3.8780000000000001
aF3.9020000000000001
aa(lp2696
g10
(S'\x07\xdb\x01\x12'
tRp2697
aF4.0030000000000001
aF4.0179999999999998
aF3.9510000000000001
aF4.0129999999999999
aa(lp2698
g10
(S'\x07\xdb\x01\x13'
tRp2699
aF4.0339999999999998
aF4.0339999999999998
aF4.0030000000000001
aF4.0090000000000003
aa(lp2700
g10
(S'\x07\xdb\x01\x14'
tRp2701
aF3.9889999999999999
aF4.04
aF3.98
aF4.04
aa(lp2702
g10
(S'\x07\xdb\x01\x15'
tRp2703
aF4.0229999999999997
aF4.0599999999999996
aF4.0090000000000003
aF4.0599999999999996
aa(lp2704
g10
(S'\x07\xdb\x01\x18'
tRp2705
aF4.0469999999999997
aF4.0599999999999996
aF4.0179999999999998
aF4.0599999999999996
aa(lp2706
g10
(S'\x07\xdb\x01\x19'
tRp2707
aF4.0469999999999997
aF4.0599999999999996
aF4.0300000000000002
aF4.0540000000000003
aa(lp2708
g10
(S'\x07\xdb\x01\x1a'
tRp2709
aF4.0540000000000003
aF4.0620000000000003
aF4.0259999999999998
aF4.0259999999999998
aa(lp2710
g10
(S'\x07\xdb\x01\x1b'
tRp2711
aF4.0350000000000001
aF4.0540000000000003
aF4.0300000000000002
aF4.048
aa(lp2712
g10
(S'\x07\xdb\x01\x1c'
tRp2713
aF4.0410000000000004
aF4.0519999999999996
aF4.0410000000000004
aF4.0519999999999996
aa(lp2714
g10
(S'\x07\xdb\x01\x1f'
tRp2715
aF4.0350000000000001
aF4.048
aF3.996
aF4.0220000000000002
aa(lp2716
g10
(S'\x07\xdb\x02\x01'
tRp2717
aF4.0090000000000003
aF4.0449999999999999
aF3.9900000000000002
aF4.0309999999999997
aa(lp2718
g10
(S'\x07\xdb\x02\x02'
tRp2719
aF4.048
aF4.048
aF3.9769999999999999
aF3.98
aa(lp2720
g10
(S'\x07\xdb\x02\x03'
tRp2721
aF4.0350000000000001
aF4.0380000000000003
aF3.9929999999999999
aF4.0380000000000003
aa(lp2722
g10
(S'\x07\xdb\x02\x04'
tRp2723
aF4.0549999999999997
aF4.0549999999999997
aF4.0119999999999996
aF4.0380000000000003
aa(lp2724
g10
(S'\x07\xdb\x02\x07'
tRp2725
aF4.0220000000000002
aF4.0540000000000003
aF4.008
aF4.0380000000000003
aa(lp2726
g10
(S'\x07\xdb\x02\x08'
tRp2727
aF4.0220000000000002
aF4.0389999999999997
aF4.0030000000000001
aF4.0289999999999999
aa(lp2728
g10
(S'\x07\xdb\x02\t'
tRp2729
aF4.0289999999999999
aF4.0629999999999997
aF4.0289999999999999
aF4.0620000000000003
aa(lp2730
g10
(S'\x07\xdb\x02\n'
tRp2731
aF4.0359999999999996
aF4.1310000000000002
aF4.0359999999999996
aF4.1310000000000002
aa(lp2732
g10
(S'\x07\xdb\x02\x0b'
tRp2733
aF4.0880000000000001
aF4.1319999999999997
aF4.0880000000000001
aF4.0880000000000001
aa(lp2734
g10
(S'\x07\xdb\x02\x0e'
tRp2735
aF4.0880000000000001
aF4.1150000000000002
aF4.056
aF4.1070000000000002
aa(lp2736
g10
(S'\x07\xdb\x02\x0f'
tRp2737
aF4.0880000000000001
aF4.1070000000000002
aF4.0880000000000001
aF4.101
aa(lp2738
g10
(S'\x07\xdb\x02\x10'
tRp2739
aF4.1600000000000001
aF4.173
aF4.0819999999999999
aF4.173
aa(lp2740
g10
(S'\x07\xdb\x02\x11'
tRp2741
aF4.1079999999999997
aF4.1420000000000003
aF4.0819999999999999
aF4.1079999999999997
aa(lp2742
g10
(S'\x07\xdb\x02\x12'
tRp2743
aF4.1040000000000001
aF4.173
aF4.0750000000000002
aF4.1139999999999999
aa(lp2744
g10
(S'\x07\xdb\x02\x15'
tRp2745
aF4.1079999999999997
aF4.1369999999999996
aF4.0579999999999998
aF4.1040000000000001
aa(lp2746
g10
(S'\x07\xdb\x02\x16'
tRp2747
aF4.069
aF4.0960000000000001
aF4.0529999999999999
aF4.0880000000000001
aa(lp2748
g10
(S'\x07\xdb\x02\x17'
tRp2749
aF4.0430000000000001
aF4.1079999999999997
aF4.0430000000000001
aF4.0839999999999996
aa(lp2750
g10
(S'\x07\xdb\x02\x18'
tRp2751
aF4.056
aF4.0899999999999999
aF4.0140000000000002
aF4.0369999999999999
aa(lp2752
g10
(S'\x07\xdb\x02\x19'
tRp2753
aF4.0369999999999999
aF4.0750000000000002
aF4.0279999999999996
aF4.0289999999999999
aa(lp2754
g10
(S'\x07\xdb\x02\x1c'
tRp2755
aF4.0369999999999999
aF4.0739999999999998
aF4.016
aF4.0369999999999999
aa(lp2756
g10
(S'\x07\xdb\x03\x01'
tRp2757
aF4.0259999999999998
aF4.0599999999999996
aF4.0170000000000003
aF4.0369999999999999
aa(lp2758
g10
(S'\x07\xdb\x03\x02'
tRp2759
aF4.0369999999999999
aF4.0540000000000003
aF4.0129999999999999
aF4.0469999999999997
aa(lp2760
g10
(S'\x07\xdb\x03\x03'
tRp2761
aF4.0369999999999999
aF4.1100000000000003
aF4.0369999999999999
aF4.0860000000000003
aa(lp2762
g10
(S'\x07\xdb\x03\x04'
tRp2763
aF4.0960000000000001
aF4.1260000000000003
aF4.0460000000000003
aF4.0990000000000002
aa(lp2764
g10
(S'\x07\xdb\x03\x07'
tRp2765
aF4.0990000000000002
aF4.1369999999999996
aF4.0899999999999999
aF4.109
aa(lp2766
g10
(S'\x07\xdb\x03\x08'
tRp2767
aF4.1689999999999996
aF4.1710000000000003
aF4.0999999999999996
aF4.1360000000000001
aa(lp2768
g10
(S'\x07\xdb\x03\t'
tRp2769
aF4.1180000000000003
aF4.1600000000000001
aF4.0919999999999996
aF4.1159999999999997
aa(lp2770
g10
(S'\x07\xdb\x03\n'
tRp2771
aF4.1520000000000001
aF4.1520000000000001
aF4.0430000000000001
aF4.0430000000000001
aa(lp2772
g10
(S'\x07\xdb\x03\x0b'
tRp2773
aF4.1230000000000002
aF4.1280000000000001
aF4.0119999999999996
aF4.0179999999999998
aa(lp2774
g10
(S'\x07\xdb\x03\x0e'
tRp2775
aF4.0529999999999999
aF4.0529999999999999
aF3.9710000000000001
aF3.992
aa(lp2776
g10
(S'\x07\xdb\x03\x0f'
tRp2777
aF3.988
aF4.1310000000000002
aF3.923
aF4.0609999999999999
aa(lp2778
g10
(S'\x07\xdb\x03\x10'
tRp2779
aF4.0650000000000004
aF4.0709999999999997
aF4.0609999999999999
aF4.0700000000000003
aa(lp2780
g10
(S'\x07\xdb\x03\x11'
tRp2781
aF4.0359999999999996
aF4.0670000000000002
aF4.0279999999999996
aF4.0469999999999997
aa(lp2782
g10
(S'\x07\xdb\x03\x12'
tRp2783
aF4.0469999999999997
aF4.0490000000000004
aF4.0430000000000001
aF4.0430000000000001
aa(lp2784
g10
(S'\x07\xdb\x03\x15'
tRp2785
aF4.0629999999999997
aF4.069
aF4.0540000000000003
aF4.0609999999999999
aa(lp2786
g10
(S'\x07\xdb\x03\x16'
tRp2787
aF4.0599999999999996
aF4.0789999999999997
aF4.0599999999999996
aF4.0780000000000003
aa(lp2788
g10
(S'\x07\xdb\x03\x17'
tRp2789
aF4.0780000000000003
aF4.0860000000000003
aF4.0730000000000004
aF4.0739999999999998
aa(lp2790
g10
(S'\x07\xdb\x03\x18'
tRp2791
aF4.0750000000000002
aF4.0750000000000002
aF4.0650000000000004
aF4.0709999999999997
aa(lp2792
g10
(S'\x07\xdb\x03\x19'
tRp2793
aF4.0720000000000001
aF4.0819999999999999
aF4.0709999999999997
aF4.077
aa(lp2794
g10
(S'\x07\xdb\x03\x1c'
tRp2795
aF4.1050000000000004
aF4.1050000000000004
aF4.0670000000000002
aF4.0979999999999999
aa(lp2796
g10
(S'\x07\xdb\x03\x1d'
tRp2797
aF4.0970000000000004
aF4.1189999999999998
aF4.0970000000000004
aF4.1189999999999998
aa(lp2798
g10
(S'\x07\xdb\x03\x1e'
tRp2799
aF4.1180000000000003
aF4.1360000000000001
aF4.1139999999999999
aF4.133
aa(lp2800
g10
(S'\x07\xdb\x03\x1f'
tRp2801
aF4.1310000000000002
aF4.1479999999999997
aF4.1269999999999998
aF4.1479999999999997
aa(lp2802
g10
(S'\x07\xdb\x04\x01'
tRp2803
aF4.1479999999999997
aF4.1689999999999996
aF4.1479999999999997
aF4.165
aa(lp2804
g10
(S'\x07\xdb\x04\x04'
tRp2805
aF4.1689999999999996
aF4.1920000000000002
aF4.1589999999999998
aF4.1920000000000002
aa(lp2806
g10
(S'\x07\xdb\x04\x05'
tRp2807
aF4.1920000000000002
aF4.202
aF4.1900000000000004
aF4.1989999999999998
aa(lp2808
g10
(S'\x07\xdb\x04\x06'
tRp2809
aF4.1980000000000004
aF4.2030000000000003
aF4.1829999999999998
aF4.1829999999999998
aa(lp2810
g10
(S'\x07\xdb\x04\x07'
tRp2811
aF4.1879999999999997
aF4.1879999999999997
aF4.1790000000000003
aF4.1790000000000003
aa(lp2812
g10
(S'\x07\xdb\x04\x08'
tRp2813
aF4.1790000000000003
aF4.2069999999999999
aF4.1779999999999999
aF4.194
aa(lp2814
g10
(S'\x07\xdb\x04\x0b'
tRp2815
aF4.2130000000000001
aF4.218
aF4.194
aF4.2089999999999996
aa(lp2816
g10
(S'\x07\xdb\x04\x0c'
tRp2817
aF4.2069999999999999
aF4.2069999999999999
aF4.1749999999999998
aF4.1799999999999997
aa(lp2818
g10
(S'\x07\xdb\x04\r'
tRp2819
aF4.1820000000000004
aF4.1820000000000004
aF4.1479999999999997
aF4.1479999999999997
aa(lp2820
g10
(S'\x07\xdb\x04\x0e'
tRp2821
aF4.1500000000000004
aF4.1500000000000004
aF4.1100000000000003
aF4.1100000000000003
aa(lp2822
g10
(S'\x07\xdb\x04\x0f'
tRp2823
aF4.1139999999999999
aF4.1260000000000003
aF4.1109999999999998
aF4.1260000000000003
aa(lp2824
g10
(S'\x07\xdb\x04\x12'
tRp2825
aF4.125
aF4.1299999999999999
aF4.0789999999999997
aF4.0819999999999999
aa(lp2826
g10
(S'\x07\xdb\x04\x13'
tRp2827
aF4.0830000000000002
aF4.0910000000000002
aF4.0759999999999996
aF4.0869999999999997
aa(lp2828
g10
(S'\x07\xdb\x04\x14'
tRp2829
aF4.0880000000000001
aF4.0979999999999999
aF4.0819999999999999
aF4.0910000000000002
aa(lp2830
g10
(S'\x07\xdb\x04\x15'
tRp2831
aF4.0899999999999999
aF4.0910000000000002
aF4.0839999999999996
aF4.0860000000000003
aa(lp2832
g10
(S'\x07\xdb\x04\x16'
tRp2833
aF4.0960000000000001
aF4.0999999999999996
aF4.093
aF4.0949999999999998
aa(lp2834
g10
(S'\x07\xdb\x04\x1a'
tRp2835
aF4.0949999999999998
aF4.0960000000000001
aF4.0590000000000002
aF4.0590000000000002
aa(lp2836
g10
(S'\x07\xdb\x04\x1b'
tRp2837
aF4.077
aF4.077
aF4.0350000000000001
aF4.0529999999999999
aa(lp2838
g10
(S'\x07\xdb\x04\x1c'
tRp2839
aF4.0529999999999999
aF4.0590000000000002
aF4.0490000000000004
aF4.0490000000000004
aa(lp2840
g10
(S'\x07\xdb\x04\x1d'
tRp2841
aF4.0540000000000003
aF4.0579999999999998
aF4.0519999999999996
aF4.0579999999999998
aa(lp2842
g10
(S'\x07\xdb\x05\x02'
tRp2843
aF4.0590000000000002
aF4.0599999999999996
aF4.0549999999999997
aF4.0599999999999996
aa(lp2844
g10
(S'\x07\xdb\x05\x03'
tRp2845
aF4.0570000000000004
aF4.0609999999999999
aF4.0529999999999999
aF4.0549999999999997
aa(lp2846
g10
(S'\x07\xdb\x05\x04'
tRp2847
aF4.0599999999999996
aF4.0709999999999997
aF4.0519999999999996
aF4.0700000000000003
aa(lp2848
g10
(S'\x07\xdb\x05\x05'
tRp2849
aF4.0700000000000003
aF4.0789999999999997
aF4.0439999999999996
aF4.0449999999999999
aa(lp2850
g10
(S'\x07\xdb\x05\x06'
tRp2851
aF4.0449999999999999
aF4.0449999999999999
aF4.0049999999999999
aF4.008
aa(lp2852
g10
(S'\x07\xdb\x05\t'
tRp2853
aF4.0300000000000002
aF4.0300000000000002
aF3.944
aF3.956
aa(lp2854
g10
(S'\x07\xdb\x05\n'
tRp2855
aF3.9590000000000001
aF3.9620000000000002
aF3.9489999999999998
aF3.9550000000000001
aa(lp2856
g10
(S'\x07\xdb\x05\x0b'
tRp2857
aF3.9569999999999999
aF3.9580000000000002
aF3.8969999999999998
aF3.9039999999999999
aa(lp2858
g10
(S'\x07\xdb\x05\x0c'
tRp2859
aF3.9049999999999998
aF3.907
aF3.8759999999999999
aF3.8839999999999999
aa(lp2860
g10
(S'\x07\xdb\x05\r'
tRp2861
aF3.8839999999999999
aF3.903
aF3.8820000000000001
aF3.8889999999999998
aa(lp2862
g10
(S'\x07\xdb\x05\x10'
tRp2863
aF3.8940000000000001
aF3.9089999999999998
aF3.8860000000000001
aF3.887
aa(lp2864
g10
(S'\x07\xdb\x05\x11'
tRp2865
aF3.8919999999999999
aF3.9100000000000001
aF3.883
aF3.9020000000000001
aa(lp2866
g10
(S'\x07\xdb\x05\x12'
tRp2867
aF3.9020000000000001
aF3.9020000000000001
aF3.8860000000000001
aF3.8900000000000001
aa(lp2868
g10
(S'\x07\xdb\x05\x13'
tRp2869
aF3.8900000000000001
aF3.911
aF3.8900000000000001
aF3.9039999999999999
aa(lp2870
g10
(S'\x07\xdb\x05\x14'
tRp2871
aF3.9039999999999999
aF3.911
aF3.903
aF3.903
aa(lp2872
g10
(S'\x07\xdb\x05\x17'
tRp2873
aF3.8959999999999999
aF3.9009999999999998
aF3.8540000000000001
aF3.8580000000000001
aa(lp2874
g10
(S'\x07\xdb\x05\x18'
tRp2875
aF3.8650000000000002
aF3.8679999999999999
aF3.863
aF3.867
aa(lp2876
g10
(S'\x07\xdb\x05\x19'
tRp2877
aF3.867
aF3.8679999999999999
aF3.8570000000000002
aF3.867
aa(lp2878
g10
(S'\x07\xdb\x05\x1a'
tRp2879
aF3.867
aF3.875
aF3.8450000000000002
aF3.847
aa(lp2880
g10
(S'\x07\xdb\x05\x1b'
tRp2881
aF3.839
aF3.8450000000000002
aF3.8359999999999999
aF3.8420000000000001
aa(lp2882
g10
(S'\x07\xdb\x05\x1e'
tRp2883
aF3.8359999999999999
aF3.847
aF3.8359999999999999
aF3.843
aa(lp2884
g10
(S'\x07\xdb\x05\x1f'
tRp2885
aF3.843
aF3.8700000000000001
aF3.843
aF3.8660000000000001
aa(lp2886
g10
(S'\x07\xdb\x06\x01'
tRp2887
aF3.8650000000000002
aF3.8650000000000002
aF3.79
aF3.7930000000000001
aa(lp2888
g10
(S'\x07\xdb\x06\x02'
tRp2889
aF3.794
aF3.794
aF3.7629999999999999
aF3.7770000000000001
aa(lp2890
g10
(S'\x07\xdb\x06\x03'
tRp2891
aF3.7770000000000001
aF3.79
aF3.7669999999999999
aF3.7719999999999998
aa(lp2892
g10
(S'\x07\xdb\x06\x06'
tRp2893
aF3.77
aF3.7869999999999999
aF3.77
aF3.7770000000000001
aa(lp2894
g10
(S'\x07\xdb\x06\x07'
tRp2895
aF3.7810000000000001
aF3.7999999999999998
aF3.7789999999999999
aF3.7959999999999998
aa(lp2896
g10
(S'\x07\xdb\x06\x08'
tRp2897
aF3.798
aF3.8010000000000002
aF3.7629999999999999
aF3.7669999999999999
aa(lp2898
g10
(S'\x07\xdb\x06\t'
tRp2899
aF3.766
aF3.7879999999999998
aF3.766
aF3.7709999999999999
aa(lp2900
g10
(S'\x07\xdb\x06\n'
tRp2901
aF3.7709999999999999
aF3.7719999999999998
aF3.7559999999999998
aF3.7650000000000001
aa(lp2902
g10
(S'\x07\xdb\x06\r'
tRp2903
aF3.7730000000000001
aF3.7730000000000001
aF3.738
aF3.75
aa(lp2904
g10
(S'\x07\xdb\x06\x0e'
tRp2905
aF3.7559999999999998
aF3.7789999999999999
aF3.7490000000000001
aF3.778
aa(lp2906
g10
(S'\x07\xdb\x06\x0f'
tRp2907
aF3.778
aF3.8069999999999999
aF3.766
aF3.798
aa(lp2908
g10
(S'\x07\xdb\x06\x10'
tRp2909
aF3.7959999999999998
aF3.8210000000000002
aF3.7810000000000001
aF3.8199999999999998
aa(lp2910
g10
(S'\x07\xdb\x06\x11'
tRp2911
aF3.8180000000000001
aF3.8340000000000001
aF3.8159999999999998
aF3.8319999999999999
aa(lp2912
g10
(S'\x07\xdb\x06\x14'
tRp2913
aF3.8250000000000002
aF3.9009999999999998
aF3.823
aF3.883
aa(lp2914
g10
(S'\x07\xdb\x06\x15'
tRp2915
aF3.903
aF3.9340000000000002
aF3.9009999999999998
aF3.9119999999999999
aa(lp2916
g10
(S'\x07\xdb\x06\x16'
tRp2917
aF3.9119999999999999
aF3.9209999999999998
aF3.8879999999999999
aF3.8900000000000001
aa(lp2918
g10
(S'\x07\xdb\x06\x17'
tRp2919
aF3.8900000000000001
aF3.8919999999999999
aF3.8700000000000001
aF3.8730000000000002
aa(lp2920
g10
(S'\x07\xdb\x06\x18'
tRp2921
aF3.8730000000000002
aF3.887
aF3.8719999999999999
aF3.8820000000000001
aa(lp2922
g10
(S'\x07\xdb\x06\x1b'
tRp2923
aF3.8799999999999999
aF3.8879999999999999
aF3.8690000000000002
aF3.8700000000000001
aa(lp2924
g10
(S'\x07\xdb\x06\x1c'
tRp2925
aF3.871
aF3.8980000000000001
aF3.871
aF3.8900000000000001
aa(lp2926
g10
(S'\x07\xdb\x06\x1d'
tRp2927
aF3.8889999999999998
aF3.9220000000000002
aF3.8860000000000001
aF3.919
aa(lp2928
g10
(S'\x07\xdb\x06\x1e'
tRp2929
aF3.9180000000000001
aF3.9409999999999998
aF3.9180000000000001
aF3.9409999999999998
aa(lp2930
g10
(S'\x07\xdb\x07\x01'
tRp2931
aF3.9510000000000001
aF3.9569999999999999
aF3.9329999999999998
aF3.9329999999999998
aa(lp2932
g10
(S'\x07\xdb\x07\x04'
tRp2933
aF3.9430000000000001
aF3.9540000000000002
aF3.931
aF3.931
aa(lp2934
g10
(S'\x07\xdb\x07\x05'
tRp2935
aF3.9300000000000002
aF3.931
aF3.9100000000000001
aF3.9100000000000001
aa(lp2936
g10
(S'\x07\xdb\x07\x06'
tRp2937
aF3.9079999999999999
aF3.9089999999999998
aF3.9049999999999998
aF3.907
aa(lp2938
g10
(S'\x07\xdb\x07\x07'
tRp2939
aF3.9129999999999998
aF3.9199999999999999
aF3.8940000000000001
aF3.9049999999999998
aa(lp2940
g10
(S'\x07\xdb\x07\x08'
tRp2941
aF3.9100000000000001
aF3.911
aF3.8599999999999999
aF3.8799999999999999
aa(lp2942
g10
(S'\x07\xdb\x07\x0b'
tRp2943
aF3.8690000000000002
aF3.895
aF3.8580000000000001
aF3.891
aa(lp2944
g10
(S'\x07\xdb\x07\x0c'
tRp2945
aF3.9089999999999998
aF3.9849999999999999
aF3.8839999999999999
aF3.8959999999999999
aa(lp2946
g10
(S'\x07\xdb\x07\r'
tRp2947
aF3.8969999999999998
aF3.9239999999999999
aF3.8809999999999998
aF3.919
aa(lp2948
g10
(S'\x07\xdb\x07\x0e'
tRp2949
aF3.919
aF3.9300000000000002
aF3.8730000000000002
aF3.9169999999999998
aa(lp2950
g10
(S'\x07\xdb\x07\x0f'
tRp2951
aF3.9119999999999999
aF3.9159999999999999
aF3.8679999999999999
aF3.911
aa(lp2952
g10
(S'\x07\xdb\x07\x12'
tRp2953
aF3.9289999999999998
aF3.9289999999999998
aF3.8519999999999999
aF3.923
aa(lp2954
g10
(S'\x07\xdb\x07\x13'
tRp2955
aF3.923
aF3.9780000000000002
aF3.8849999999999998
aF3.9140000000000001
aa(lp2956
g10
(S'\x07\xdb\x07\x14'
tRp2957
aF3.9159999999999999
aF3.944
aF3.8740000000000001
aF3.8980000000000001
aa(lp2958
g10
(S'\x07\xdb\x07\x15'
tRp2959
aF3.8980000000000001
aF3.9359999999999999
aF3.8780000000000001
aF3.9020000000000001
aa(lp2960
g10
(S'\x07\xdb\x07\x16'
tRp2961
aF3.9020000000000001
aF3.9220000000000002
aF3.891
aF3.9020000000000001
aa(lp2962
g10
(S'\x07\xdb\x07\x19'
tRp2963
aF3.9220000000000002
aF3.9220000000000002
aF3.875
aF3.9060000000000001
aa(lp2964
g10
(S'\x07\xdb\x07\x1a'
tRp2965
aF3.9220000000000002
aF3.9220000000000002
aF3.867
aF3.9100000000000001
aa(lp2966
g10
(S'\x07\xdb\x07\x1b'
tRp2967
aF3.8799999999999999
aF3.9249999999999998
aF3.8799999999999999
aF3.9249999999999998
aa(lp2968
g10
(S'\x07\xdb\x07\x1c'
tRp2969
aF3.9220000000000002
aF3.9220000000000002
aF3.8260000000000001
aF3.8260000000000001
aa(lp2970
g10
(S'\x07\xdb\x07\x1d'
tRp2971
aF3.8730000000000002
aF3.9049999999999998
aF3.8260000000000001
aF3.8919999999999999
aa(lp2972
g10
(S'\x07\xdb\x08\x01'
tRp2973
aF3.8570000000000002
aF3.8889999999999998
aF3.7559999999999998
aF3.7690000000000001
aa(lp2974
g10
(S'\x07\xdb\x08\x02'
tRp2975
aF3.7690000000000001
aF3.8610000000000002
aF3.73
aF3.7639999999999998
aa(lp2976
g10
(S'\x07\xdb\x08\x03'
tRp2977
aF3.7639999999999998
aF3.7810000000000001
aF3.673
aF3.7160000000000002
aa(lp2978
g10
(S'\x07\xdb\x08\x04'
tRp2979
aF3.7160000000000002
aF3.746
aF3.5590000000000002
aF3.593
aa(lp2980
g10
(S'\x07\xdb\x08\x05'
tRp2981
aF3.52
aF3.577
aF3.5030000000000001
aF3.5609999999999999
aa(lp2982
g10
(S'\x07\xdb\x08\x08'
tRp2983
aF3.5609999999999999
aF3.6469999999999998
aF3.5169999999999999
aF3.5609999999999999
aa(lp2984
g10
(S'\x07\xdb\x08\t'
tRp2985
aF3.5609999999999999
aF3.5750000000000002
aF3.5430000000000001
aF3.5699999999999998
aa(lp2986
g10
(S'\x07\xdb\x08\n'
tRp2987
aF3.5699999999999998
aF3.5699999999999998
aF3.5129999999999999
aF3.5390000000000001
aa(lp2988
g10
(S'\x07\xdb\x08\x0b'
tRp2989
aF3.5390000000000001
aF3.5390000000000001
aF3.4750000000000001
aF3.524
aa(lp2990
g10
(S'\x07\xdb\x08\x0c'
tRp2991
aF3.524
aF3.556
aF3.4980000000000002
aF3.4980000000000002
aa(lp2992
g10
(S'\x07\xdb\x08\x0f'
tRp2993
aF3.504
aF3.593
aF3.504
aF3.5470000000000002
aa(lp2994
g10
(S'\x07\xdb\x08\x10'
tRp2995
aF3.5470000000000002
aF3.569
aF3.476
aF3.5190000000000001
aa(lp2996
g10
(S'\x07\xdb\x08\x11'
tRp2997
aF3.5449999999999999
aF3.5699999999999998
aF3.5030000000000001
aF3.5299999999999998
aa(lp2998
g10
(S'\x07\xdb\x08\x12'
tRp2999
aF3.5569999999999999
aF3.5569999999999999
aF3.4420000000000002
aF3.5070000000000001
aa(lp3000
g10
(S'\x07\xdb\x08\x13'
tRp3001
aF3.5150000000000001
aF3.5409999999999999
aF3.339
aF3.5409999999999999
aa(lp3002
g10
(S'\x07\xdb\x08\x16'
tRp3003
aF3.5329999999999999
aF3.5739999999999998
aF3.3660000000000001
aF3.407
aa(lp3004
g10
(S'\x07\xdb\x08\x17'
tRp3005
aF3.4279999999999999
aF3.4420000000000002
aF3.3639999999999999
aF3.4390000000000001
aa(lp3006
g10
(S'\x07\xdb\x08\x18'
tRp3007
aF3.427
aF3.4329999999999998
aF3.306
aF3.306
aa(lp3008
g10
(S'\x07\xdb\x08\x19'
tRp3009
aF3.347
aF3.3820000000000001
aF3.165
aF3.2280000000000002
aa(lp3010
g10
(S'\x07\xdb\x08\x1a'
tRp3011
aF3.1859999999999999
aF3.194
aF3.1099999999999999
aF3.1589999999999998
aa(lp3012
g10
(S'\x07\xdb\x08\x1d'
tRp3013
aF3.1739999999999999
aF3.2149999999999999
aF3.173
aF3.2149999999999999
aa(lp3014
g10
(S'\x07\xdb\x08\x1e'
tRp3015
aF3.125
aF3.2149999999999999
aF3.125
aF3.2029999999999998
aa(lp3016
g10
(S'\x07\xdb\x08\x1f'
tRp3017
aF3.2029999999999998
aF3.2029999999999998
aF3.129
aF3.153
aa(lp3018
g10
(S'\x07\xdb\t\x01'
tRp3019
aF3.1520000000000001
aF3.1629999999999998
aF3.0779999999999998
aF3.1629999999999998
aa(lp3020
g10
(S'\x07\xdb\t\x02'
tRp3021
aF3.1629999999999998
aF3.1629999999999998
aF3.0289999999999999
aF3.0499999999999998
aa(lp3022
g10
(S'\x07\xdb\t\x05'
tRp3023
aF3.0489999999999999
aF3.0489999999999999
aF2.9289999999999998
aF3.0059999999999998
aa(lp3024
g10
(S'\x07\xdb\t\x06'
tRp3025
aF2.9399999999999999
aF3.0030000000000001
aF2.9119999999999999
aF2.9209999999999998
aa(lp3026
g10
(S'\x07\xdb\t\x07'
tRp3027
aF2.9369999999999998
aF3.0499999999999998
aF2.919
aF3.0499999999999998
aa(lp3028
g10
(S'\x07\xdb\t\x08'
tRp3029
aF3.0289999999999999
aF3.0659999999999998
aF3.0110000000000001
aF3.0600000000000001
aa(lp3030
g10
(S'\x07\xdb\t\t'
tRp3031
aF3.0390000000000001
aF3.0699999999999998
aF2.9609999999999999
aF2.9830000000000001
aa(lp3032
g10
(S'\x07\xdb\t\x0c'
tRp3033
aF2.984
aF3.0270000000000001
aF2.9119999999999999
aF3.0219999999999998
aa(lp3034
g10
(S'\x07\xdb\t\r'
tRp3035
aF3.0230000000000001
aF3.0510000000000002
aF2.9809999999999999
aF3.048
aa(lp3036
g10
(S'\x07\xdb\t\x0e'
tRp3037
aF3.0499999999999998
aF3.0750000000000002
aF3.0019999999999998
aF3.0750000000000002
aa(lp3038
g10
(S'\x07\xdb\t\x0f'
tRp3039
aF3.0760000000000001
aF3.1899999999999999
aF3.0550000000000002
aF3.1640000000000001
aa(lp3040
g10
(S'\x07\xdb\t\x10'
tRp3041
aF3.1920000000000002
aF3.1920000000000002
aF3.157
aF3.1779999999999999
aa(lp3042
g10
(S'\x07\xdb\t\x13'
tRp3043
aF3.1760000000000002
aF3.1779999999999999
aF3.0470000000000002
aF3.0710000000000002
aa(lp3044
g10
(S'\x07\xdb\t\x14'
tRp3045
aF3.0739999999999998
aF3.1299999999999999
aF3.0600000000000001
aF3.0979999999999999
aa(lp3046
g10
(S'\x07\xdb\t\x15'
tRp3047
aF3.0990000000000002
aF3.161
aF3.0779999999999998
aF3.1309999999999998
aa(lp3048
g10
(S'\x07\xdb\t\x16'
tRp3049
aF3.1019999999999999
aF3.141
aF3.073
aF3.1030000000000002
aa(lp3050
g10
(S'\x07\xdb\t\x17'
tRp3051
aF3.0790000000000002
aF3.161
aF3.0790000000000002
aF3.1070000000000002
aa(lp3052
g10
(S'\x07\xdb\t\x1a'
tRp3053
aF3.137
aF3.1960000000000002
aF3.1299999999999999
aF3.1960000000000002
aa(lp3054
g10
(S'\x07\xdb\t\x1b'
tRp3055
aF3.1960000000000002
aF3.238
aF3.169
aF3.1850000000000001
aa(lp3056
g10
(S'\x07\xdb\t\x1c'
tRp3057
aF3.2189999999999999
aF3.2200000000000002
aF3.206
aF3.2149999999999999
aa(lp3058
g10
(S'\x07\xdb\t\x1d'
tRp3059
aF3.2189999999999999
aF3.2509999999999999
aF3.1850000000000001
aF3.2229999999999999
aa(lp3060
g10
(S'\x07\xdb\t\x1e'
tRp3061
aF3.2440000000000002
aF3.2440000000000002
aF3.1499999999999999
aF3.1640000000000001
aa(lp3062
g10
(S'\x07\xdb\n\x03'
tRp3063
aF3.2440000000000002
aF3.2490000000000001
aF3.1800000000000002
aF3.238
aa(lp3064
g10
(S'\x07\xdb\n\x04'
tRp3065
aF3.238
aF3.258
aF3.2109999999999999
aF3.2109999999999999
aa(lp3066
g10
(S'\x07\xdb\n\x05'
tRp3067
aF3.1960000000000002
aF3.2429999999999999
aF3.1859999999999999
aF3.2229999999999999
aa(lp3068
g10
(S'\x07\xdb\n\x06'
tRp3069
aF3.2200000000000002
aF3.27
aF3.2189999999999999
aF3.2509999999999999
aa(lp3070
g10
(S'\x07\xdb\n\x07'
tRp3071
aF3.2690000000000001
aF3.29
aF3.2410000000000001
aF3.262
aa(lp3072
g10
(S'\x07\xdb\n\n'
tRp3073
aF3.266
aF3.278
aF3.2530000000000001
aF3.2589999999999999
aa(lp3074
g10
(S'\x07\xdb\n\x0b'
tRp3075
aF3.2469999999999999
aF3.2469999999999999
aF3.2170000000000001
aF3.2240000000000002
aa(lp3076
g10
(S'\x07\xdb\n\x0c'
tRp3077
aF3.218
aF3.2709999999999999
aF3.1949999999999998
aF3.2669999999999999
aa(lp3078
g10
(S'\x07\xdb\n\r'
tRp3079
aF3.266
aF3.2749999999999999
aF3.2480000000000002
aF3.2669999999999999
aa(lp3080
g10
(S'\x07\xdb\n\x0e'
tRp3081
aF3.2749999999999999
aF3.2810000000000001
aF3.23
aF3.2589999999999999
aa(lp3082
g10
(S'\x07\xdb\n\x11'
tRp3083
aF3.2639999999999998
aF3.2799999999999998
aF3.218
aF3.2589999999999999
aa(lp3084
g10
(S'\x07\xdb\n\x12'
tRp3085
aF3.2599999999999998
aF3.2749999999999999
aF3.2210000000000001
aF3.2290000000000001
aa(lp3086
g10
(S'\x07\xdb\n\x13'
tRp3087
aF3.2589999999999999
aF3.274
aF3.2309999999999999
aF3.2599999999999998
aa(lp3088
g10
(S'\x07\xdb\n\x14'
tRp3089
aF3.2589999999999999
aF3.2629999999999999
aF3.238
aF3.2570000000000001
aa(lp3090
g10
(S'\x07\xdb\n\x15'
tRp3091
aF3.2589999999999999
aF3.2719999999999998
aF3.2170000000000001
aF3.2480000000000002
aa(lp3092
g10
(S'\x07\xdb\n\x18'
tRp3093
aF3.2549999999999999
aF3.2549999999999999
aF3.2349999999999999
aF3.2490000000000001
aa(lp3094
g10
(S'\x07\xdb\n\x19'
tRp3095
aF3.246
aF3.2909999999999999
aF3.2280000000000002
aF3.254
aa(lp3096
g10
(S'\x07\xdb\n\x1a'
tRp3097
aF3.2530000000000001
aF3.262
aF3.2050000000000001
aF3.2109999999999999
aa(lp3098
g10
(S'\x07\xdb\n\x1b'
tRp3099
aF3.2130000000000001
aF3.2949999999999999
aF3.2130000000000001
aF3.2909999999999999
aa(lp3100
g10
(S'\x07\xdb\n\x1c'
tRp3101
aF3.3079999999999998
aF3.3079999999999998
aF3.2879999999999998
aF3.2909999999999999
aa(lp3102
g10
(S'\x07\xdb\n\x1f'
tRp3103
aF3.3079999999999998
aF3.3239999999999998
aF3.274
aF3.274
aa(lp3104
g10
(S'\x07\xdb\x0b\x01'
tRp3105
aF3.3069999999999999
aF3.3069999999999999
aF3.2490000000000001
aF3.2549999999999999
aa(lp3106
g10
(S'\x07\xdb\x0b\x02'
tRp3107
aF3.2679999999999998
aF3.3159999999999998
aF3.2490000000000001
aF3.3069999999999999
aa(lp3108
g10
(S'\x07\xdb\x0b\x03'
tRp3109
aF3.3220000000000001
aF3.3730000000000002
aF3.2730000000000001
aF3.3610000000000002
aa(lp3110
g10
(S'\x07\xdb\x0b\x04'
tRp3111
aF3.367
aF3.399
aF3.3300000000000001
aF3.3650000000000002
aa(lp3112
g10
(S'\x07\xdb\x0b\x07'
tRp3113
aF3.3239999999999998
aF3.3660000000000001
aF3.3239999999999998
aF3.359
aa(lp3114
g10
(S'\x07\xdb\x0b\x08'
tRp3115
aF3.3780000000000001
aF3.3780000000000001
aF3.3330000000000002
aF3.3380000000000001
aa(lp3116
g10
(S'\x07\xdb\x0b\t'
tRp3117
aF3.3559999999999999
aF3.4609999999999999
aF3.3220000000000001
aF3.3919999999999999
aa(lp3118
g10
(S'\x07\xdb\x0b\n'
tRp3119
aF3.4430000000000001
aF3.597
aF3.3999999999999999
aF3.5910000000000002
aa(lp3120
g10
(S'\x07\xdb\x0b\x0b'
tRp3121
aF3.6139999999999999
aF3.6389999999999998
aF3.5259999999999998
aF3.6349999999999998
aa(lp3122
g10
(S'\x07\xdb\x0b\x0e'
tRp3123
aF3.641
aF3.831
aF3.621
aF3.8029999999999999
aa(lp3124
g10
(S'\x07\xdb\x0b\x0f'
tRp3125
aF3.8170000000000002
aF3.8759999999999999
aF3.7829999999999999
aF3.8149999999999999
aa(lp3126
g10
(S'\x07\xdb\x0b\x10'
tRp3127
aF3.8490000000000002
aF3.9380000000000002
aF3.8380000000000001
aF3.8999999999999999
aa(lp3128
g10
(S'\x07\xdb\x0b\x11'
tRp3129
aF3.899
aF3.919
aF3.899
aF3.915
aa(lp3130
g10
(S'\x07\xdb\x0b\x12'
tRp3131
aF3.8359999999999999
aF3.9630000000000001
aF3.8359999999999999
aF3.9630000000000001
aa(lp3132
g10
(S'\x07\xdb\x0b\x15'
tRp3133
aF3.9550000000000001
aF4.0839999999999996
aF3.907
aF4.048
aa(lp3134
g10
(S'\x07\xdb\x0b\x16'
tRp3135
aF4.0499999999999998
aF4.0720000000000001
aF3.9990000000000001
aF4.0090000000000003
aa(lp3136
g10
(S'\x07\xdb\x0b\x17'
tRp3137
aF4.0049999999999999
aF4.3460000000000001
aF3.9940000000000002
aF4.3460000000000001
aa(lp3138
g10
(S'\x07\xdb\x0b\x18'
tRp3139
aF4.3310000000000004
aF4.3810000000000002
aF4.2510000000000003
aF4.2510000000000003
aa(lp3140
g10
(S'\x07\xdb\x0b\x19'
tRp3141
aF4.234
aF4.3259999999999996
aF4.2210000000000001
aF4.3259999999999996
aa(lp3142
g10
(S'\x07\xdb\x0b\x1c'
tRp3143
aF4.3120000000000003
aF4.4109999999999996
aF4.2480000000000002
aF4.3579999999999997
aa(lp3144
g10
(S'\x07\xdb\x0b\x1d'
tRp3145
aF4.3440000000000003
aF4.3540000000000001
aF4.2290000000000001
aF4.2439999999999998
aa(lp3146
g10
(S'\x07\xdb\x0b\x1e'
tRp3147
aF4.2720000000000002
aF4.3230000000000004
aF4.181
aF4.181
aa(lp3148
g10
(S'\x07\xdb\x0c\x01'
tRp3149
aF4.2320000000000002
aF4.2320000000000002
aF4.0839999999999996
aF4.0839999999999996
aa(lp3150
g10
(S'\x07\xdb\x0c\x02'
tRp3151
aF4.0609999999999999
aF4.0860000000000003
aF3.8100000000000001
aF3.871
aa(lp3152
g10
(S'\x07\xdb\x0c\x05'
tRp3153
aF3.8029999999999999
aF3.8500000000000001
aF3.75
aF3.7629999999999999
aa(lp3154
g10
(S'\x07\xdb\x0c\x06'
tRp3155
aF3.7639999999999998
aF3.96
aF3.7639999999999998
aF3.944
aa(lp3156
g10
(S'\x07\xdb\x0c\x07'
tRp3157
aF3.8690000000000002
aF3.9319999999999999
aF3.8039999999999998
aF3.8210000000000002
aa(lp3158
g10
(S'\x07\xdb\x0c\x08'
tRp3159
aF3.8319999999999999
aF3.8410000000000002
aF3.7829999999999999
aF3.8159999999999998
aa(lp3160
g10
(S'\x07\xdb\x0c\t'
tRp3161
aF3.8399999999999999
aF3.9020000000000001
aF3.8170000000000002
aF3.8199999999999998
aa(lp3162
g10
(S'\x07\xdb\x0c\x0c'
tRp3163
aF3.8860000000000001
aF3.8860000000000001
aF3.8220000000000001
aF3.8519999999999999
aa(lp3164
g10
(S'\x07\xdb\x0c\r'
tRp3165
aF3.835
aF3.8599999999999999
aF3.8220000000000001
aF3.8570000000000002
aa(lp3166
g10
(S'\x07\xdb\x0c\x0e'
tRp3167
aF3.819
aF3.8439999999999999
aF3.774
aF3.8140000000000001
aa(lp3168
g10
(S'\x07\xdb\x0c\x0f'
tRp3169
aF3.8439999999999999
aF3.851
aF3.786
aF3.786
aa(lp3170
g10
(S'\x07\xdb\x0c\x10'
tRp3171
aF3.794
aF3.8279999999999998
aF3.6880000000000002
aF3.7000000000000002
aa(lp3172
g10
(S'\x07\xdb\x0c\x13'
tRp3173
aF3.8149999999999999
aF3.8149999999999999
aF3.702
aF3.786
aa(lp3174
g10
(S'\x07\xdb\x0c\x14'
tRp3175
aF3.7010000000000001
aF3.79
aF3.6920000000000002
aF3.75
aa(lp3176
g10
(S'\x07\xdb\x0c\x15'
tRp3177
aF3.7509999999999999
aF3.786
aF3.6619999999999999
aF3.6840000000000002
aa(lp3178
g10
(S'\x07\xdb\x0c\x16'
tRp3179
aF3.6850000000000001
aF3.786
aF3.649
aF3.6709999999999998
aa(lp3180
g10
(S'\x07\xdb\x0c\x17'
tRp3181
aF3.6539999999999999
aF3.6739999999999999
aF3.5760000000000001
aF3.6739999999999999
aa(lp3182
g10
(S'\x07\xdb\x0c\x1b'
tRp3183
aF3.6099999999999999
aF3.641
aF3.6099999999999999
aF3.6099999999999999
aa(lp3184
g10
(S'\x07\xdb\x0c\x1c'
tRp3185
aF3.6099999999999999
aF3.6400000000000001
aF3.5779999999999998
aF3.605
aa(lp3186
g10
(S'\x07\xdb\x0c\x1d'
tRp3187
aF3.6099999999999999
aF3.6099999999999999
aF3.5649999999999999
aF3.5899999999999999
aa(lp3188
g10
(S'\x07\xdb\x0c\x1e'
tRp3189
aF3.5899999999999999
aF3.5939999999999999
aF3.556
aF3.5899999999999999
aa(lp3190
g10
(S'\x07\xdc\x01\x02'
tRp3191
aF3.6059999999999999
aF3.6299999999999999
aF3.5779999999999998
aF3.6110000000000002
aa(lp3192
g10
(S'\x07\xdc\x01\x03'
tRp3193
aF3.6120000000000001
aF3.665
aF3.5880000000000001
aF3.6000000000000001
aa(lp3194
g10
(S'\x07\xdc\x01\x04'
tRp3195
aF3.6019999999999999
aF3.605
aF3.556
aF3.5899999999999999
aa(lp3196
g10
(S'\x07\xdc\x01\x05'
tRp3197
aF3.581
aF3.726
aF3.5710000000000002
aF3.726
aa(lp3198
g10
(S'\x07\xdc\x01\x06'
tRp3199
aF3.7290000000000001
aF3.7400000000000002
aF3.637
aF3.6720000000000002
aa(lp3200
g10
(S'\x07\xdc\x01\t'
tRp3201
aF3.673
aF3.698
aF3.609
aF3.6709999999999998
aa(lp3202
g10
(S'\x07\xdc\x01\n'
tRp3203
aF3.6600000000000001
aF3.698
aF3.6419999999999999
aF3.6549999999999998
aa(lp3204
g10
(S'\x07\xdc\x01\x0b'
tRp3205
aF3.6309999999999998
aF3.6589999999999998
aF3.5499999999999998
aF3.5499999999999998
aa(lp3206
g10
(S'\x07\xdc\x01\x0c'
tRp3207
aF3.5529999999999999
aF3.6440000000000001
aF3.54
aF3.589
aa(lp3208
g10
(S'\x07\xdc\x01\r'
tRp3209
aF3.556
aF3.5760000000000001
aF3.4740000000000002
aF3.4830000000000001
aa(lp3210
g10
(S'\x07\xdc\x01\x10'
tRp3211
aF3.5030000000000001
aF3.5329999999999999
aF3.476
aF3.4830000000000001
aa(lp3212
g10
(S'\x07\xdc\x01\x11'
tRp3213
aF3.5
aF3.5499999999999998
aF3.472
aF3.4870000000000001
aa(lp3214
g10
(S'\x07\xdc\x01\x12'
tRp3215
aF3.476
aF3.5019999999999998
aF3.456
aF3.4670000000000001
aa(lp3216
g10
(S'\x07\xdc\x01\x13'
tRp3217
aF3.4569999999999999
aF3.5259999999999998
aF3.4550000000000001
aF3.484
aa(lp3218
g10
(S'\x07\xdc\x01\x14'
tRp3219
aF3.484
aF3.512
aF3.4540000000000002
aF3.512
aa(lp3220
g10
(S'\x07\xdc\x01\x17'
tRp3221
aF3.4889999999999999
aF3.512
aF3.4550000000000001
aF3.4769999999999999
aa(lp3222
g10
(S'\x07\xdc\x01\x18'
tRp3223
aF3.4790000000000001
aF3.4860000000000002
aF3.3799999999999999
aF3.391
aa(lp3224
g10
(S'\x07\xdc\x01\x19'
tRp3225
aF3.3929999999999998
aF3.4060000000000001
aF3.371
aF3.3780000000000001
aa(lp3226
g10
(S'\x07\xdc\x01\x1a'
tRp3227
aF3.3929999999999998
aF3.3929999999999998
aF3.194
aF3.2320000000000002
aa(lp3228
g10
(S'\x07\xdc\x01\x1b'
tRp3229
aF3.234
aF3.2650000000000001
aF3.214
aF3.2360000000000002
aa(lp3230
g10
(S'\x07\xdc\x01\x1e'
tRp3231
aF3.2400000000000002
aF3.2759999999999998
aF3.1869999999999998
aF3.2040000000000002
aa(lp3232
g10
(S'\x07\xdc\x01\x1f'
tRp3233
aF3.206
aF3.222
aF3.1760000000000002
aF3.194
aa(lp3234
g10
(S'\x07\xdc\x02\x01'
tRp3235
aF3.206
aF3.2309999999999999
aF3.1669999999999998
aF3.1899999999999999
aa(lp3236
g10
(S'\x07\xdc\x02\x02'
tRp3237
aF3.1819999999999999
aF3.2109999999999999
aF3.1419999999999999
aF3.2069999999999999
aa(lp3238
g10
(S'\x07\xdc\x02\x03'
tRp3239
aF3.2090000000000001
aF3.2999999999999998
aF3.1629999999999998
aF3.282
aa(lp3240
g10
(S'\x07\xdc\x02\x06'
tRp3241
aF3.3029999999999999
aF3.306
aF3.2709999999999999
aF3.2999999999999998
aa(lp3242
g10
(S'\x07\xdc\x02\x07'
tRp3243
aF3.286
aF3.3029999999999999
aF3.2330000000000001
aF3.2570000000000001
aa(lp3244
g10
(S'\x07\xdc\x02\x08'
tRp3245
aF3.2570000000000001
aF3.2570000000000001
aF3.21
aF3.222
aa(lp3246
g10
(S'\x07\xdc\x02\t'
tRp3247
aF3.2130000000000001
aF3.2509999999999999
aF3.1989999999999998
aF3.2440000000000002
aa(lp3248
g10
(S'\x07\xdc\x02\n'
tRp3249
aF3.246
aF3.2810000000000001
aF3.1909999999999998
aF3.27
aa(lp3250
g10
(S'\x07\xdc\x02\r'
tRp3251
aF3.2719999999999998
aF3.2919999999999998
aF3.2549999999999999
aF3.2749999999999999
aa(lp3252
g10
(S'\x07\xdc\x02\x0e'
tRp3253
aF3.2719999999999998
aF3.2919999999999998
aF3.25
aF3.2919999999999998
aa(lp3254
g10
(S'\x07\xdc\x02\x0f'
tRp3255
aF3.2719999999999998
aF3.2879999999999998
aF3.258
aF3.2679999999999998
aa(lp3256
g10
(S'\x07\xdc\x02\x10'
tRp3257
aF3.2999999999999998
aF3.4319999999999999
aF3.2999999999999998
aF3.4140000000000001
aa(lp3258
g10
(S'\x07\xdc\x02\x11'
tRp3259
aF3.3959999999999999
aF3.4279999999999999
aF3.3959999999999999
aF3.4079999999999999
aa(lp3260
g10
(S'\x07\xdc\x02\x14'
tRp3261
aF3.4220000000000002
aF3.423
aF3.391
aF3.4079999999999999
aa(lp3262
g10
(S'\x07\xdc\x02\x15'
tRp3263
aF3.411
aF3.4159999999999999
aF3.3839999999999999
aF3.403
aa(lp3264
g10
(S'\x07\xdc\x02\x16'
tRp3265
aF3.4049999999999998
aF3.431
aF3.3799999999999999
aF3.3809999999999998
aa(lp3266
g10
(S'\x07\xdc\x02\x17'
tRp3267
aF3.3820000000000001
aF3.3980000000000001
aF3.3410000000000002
aF3.3410000000000002
aa(lp3268
g10
(S'\x07\xdc\x02\x18'
tRp3269
aF3.3439999999999999
aF3.3439999999999999
aF3.298
aF3.331
aa(lp3270
g10
(S'\x07\xdc\x02\x1b'
tRp3271
aF3.3319999999999999
aF3.411
aF3.298
aF3.3220000000000001
aa(lp3272
g10
(S'\x07\xdc\x02\x1c'
tRp3273
aF3.3199999999999998
aF3.3479999999999999
aF3.3010000000000002
aF3.3010000000000002
aa(lp3274
g10
(S'\x07\xdc\x02\x1d'
tRp3275
aF3.3260000000000001
aF3.3540000000000001
aF3.2629999999999999
aF3.2629999999999999
aa(lp3276
g10
(S'\x07\xdc\x03\x01'
tRp3277
aF3.2850000000000001
aF3.3180000000000001
aF3.2440000000000002
aF3.3180000000000001
aa(lp3278
g10
(S'\x07\xdc\x03\x02'
tRp3279
aF3.2970000000000002
aF3.3170000000000002
aF3.262
aF3.3170000000000002
aa(lp3280
g10
(S'\x07\xdc\x03\x05'
tRp3281
aF3.3279999999999998
aF3.3300000000000001
aF3.2850000000000001
aF3.3010000000000002
aa(lp3282
g10
(S'\x07\xdc\x03\x06'
tRp3283
aF3.3130000000000002
aF3.3460000000000001
aF3.2909999999999999
aF3.3290000000000002
aa(lp3284
g10
(S'\x07\xdc\x03\x07'
tRp3285
aF3.3130000000000002
aF3.411
aF3.306
aF3.4089999999999998
aa(lp3286
g10
(S'\x07\xdc\x03\x08'
tRp3287
aF3.411
aF3.4119999999999999
aF3.3530000000000002
aF3.3999999999999999
aa(lp3288
g10
(S'\x07\xdc\x03\t'
tRp3289
aF3.3980000000000001
aF3.4969999999999999
aF3.3660000000000001
aF3.4849999999999999
aa(lp3290
g10
(S'\x07\xdc\x03\x0c'
tRp3291
aF3.427
aF3.5
aF3.3969999999999998
aF3.4260000000000002
aa(lp3292
g10
(S'\x07\xdc\x03\r'
tRp3293
aF3.4249999999999998
aF3.4609999999999999
aF3.3839999999999999
aF3.4609999999999999
aa(lp3294
g10
(S'\x07\xdc\x03\x0e'
tRp3295
aF3.452
aF3.5259999999999998
aF3.4470000000000001
aF3.5049999999999999
aa(lp3296
g10
(S'\x07\xdc\x03\x0f'
tRp3297
aF3.5070000000000001
aF3.5249999999999999
aF3.4460000000000002
aF3.4969999999999999
aa(lp3298
g10
(S'\x07\xdc\x03\x10'
tRp3299
aF3.4820000000000002
aF3.6899999999999999
aF3.4809999999999999
aF3.6549999999999998
aa(lp3300
g10
(S'\x07\xdc\x03\x13'
tRp3301
aF3.6749999999999998
aF3.6909999999999998
aF3.6349999999999998
aF3.6669999999999998
aa(lp3302
g10
(S'\x07\xdc\x03\x14'
tRp3303
aF3.681
aF3.6899999999999999
aF3.5950000000000002
aF3.6549999999999998
aa(lp3304
g10
(S'\x07\xdc\x03\x15'
tRp3305
aF3.6699999999999999
aF3.6699999999999999
aF3.5409999999999999
aF3.5539999999999998
aa(lp3306
g10
(S'\x07\xdc\x03\x16'
tRp3307
aF3.5499999999999998
aF3.6019999999999999
aF3.4790000000000001
aF3.492
aa(lp3308
g10
(S'\x07\xdc\x03\x17'
tRp3309
aF3.5030000000000001
aF3.5030000000000001
aF3.4449999999999998
aF3.4740000000000002
aa(lp3310
g10
(S'\x07\xdc\x03\x1a'
tRp3311
aF3.4740000000000002
aF3.508
aF3.4369999999999998
aF3.4929999999999999
aa(lp3312
g10
(S'\x07\xdc\x03\x1b'
tRp3313
aF3.5070000000000001
aF3.5070000000000001
aF3.476
aF3.496
aa(lp3314
g10
(S'\x07\xdc\x03\x1c'
tRp3315
aF3.4820000000000002
aF3.5099999999999998
aF3.472
aF3.4990000000000001
aa(lp3316
g10
(S'\x07\xdc\x03\x1d'
tRp3317
aF3.5129999999999999
aF3.5209999999999999
aF3.4590000000000001
aF3.508
aa(lp3318
g10
(S'\x07\xdc\x03\x1e'
tRp3319
aF3.5230000000000001
aF3.552
aF3.4969999999999999
aF3.5310000000000001
aa(lp3320
g10
(S'\x07\xdc\x04\x02'
tRp3321
aF3.5129999999999999
aF3.6160000000000001
aF3.5129999999999999
aF3.5859999999999999
aa(lp3322
g10
(S'\x07\xdc\x04\x03'
tRp3323
aF3.621
aF3.657
aF3.5840000000000001
aF3.629
aa(lp3324
g10
(S'\x07\xdc\x04\x04'
tRp3325
aF3.6030000000000002
aF3.6429999999999998
aF3.5510000000000002
aF3.581
aa(lp3326
g10
(S'\x07\xdc\x04\x05'
tRp3327
aF3.5910000000000002
aF3.617
aF3.5499999999999998
aF3.589
aa(lp3328
g10
(S'\x07\xdc\x04\n'
tRp3329
aF3.589
aF3.601
aF3.5449999999999999
aF3.5459999999999998
aa(lp3330
g10
(S'\x07\xdc\x04\x0b'
tRp3331
aF3.5760000000000001
aF3.5950000000000002
aF3.4900000000000002
aF3.5449999999999999
aa(lp3332
g10
(S'\x07\xdc\x04\x0c'
tRp3333
aF3.5310000000000001
aF3.5880000000000001
aF3.4910000000000001
aF3.5659999999999998
aa(lp3334
g10
(S'\x07\xdc\x04\r'
tRp3335
aF3.5609999999999999
aF3.5680000000000001
aF3.4700000000000002
aF3.5150000000000001
aa(lp3336
g10
(S'\x07\xdc\x04\x10'
tRp3337
aF3.496
aF3.5419999999999998
aF3.468
aF3.4940000000000002
aa(lp3338
g10
(S'\x07\xdc\x04\x11'
tRp3339
aF3.5179999999999998
aF3.5350000000000001
aF3.4620000000000002
aF3.4870000000000001
aa(lp3340
g10
(S'\x07\xdc\x04\x12'
tRp3341
aF3.4199999999999999
aF3.508
aF3.4169999999999998
aF3.476
aa(lp3342
g10
(S'\x07\xdc\x04\x13'
tRp3343
aF3.492
aF3.536
aF3.423
aF3.464
aa(lp3344
g10
(S'\x07\xdc\x04\x14'
tRp3345
aF3.4580000000000002
aF3.4969999999999999
aF3.4169999999999998
aF3.464
aa(lp3346
g10
(S'\x07\xdc\x04\x17'
tRp3347
aF3.4590000000000001
aF3.512
aF3.4209999999999998
aF3.4550000000000001
aa(lp3348
g10
(S'\x07\xdc\x04\x18'
tRp3349
aF3.4489999999999998
aF3.4590000000000001
aF3.4300000000000002
aF3.4529999999999998
aa(lp3350
g10
(S'\x07\xdc\x04\x19'
tRp3351
aF3.448
aF3.4750000000000001
aF3.419
aF3.4700000000000002
aa(lp3352
g10
(S'\x07\xdc\x04\x1a'
tRp3353
aF3.464
aF3.4990000000000001
aF3.4449999999999998
aF3.4449999999999998
aa(lp3354
g10
(S'\x07\xdc\x04\x1b'
tRp3355
aF3.4390000000000001
aF3.4700000000000002
aF3.4180000000000001
aF3.4460000000000002
aasS'dailyUpdate'
p3356
g10
(S'\x07\xb3\x01\x01'
tRp3357
sS'detail'
p3358
S'None'
p3359
sS'abbreviation'
p3360
S'10CZY.B'
p3361
sS'dataSource'
p3362
S'Stooq'
p3363
sS'previousValues'
p3364
(lp3365
sS'financialType'
p3366
S'bond'
p3367
sS'monthlyUpdate'
p3368
g10
(S'\x07\xb3\x01\x01'
tRp3369
sba.