(lp1
(lp2
(lp3
S'Dow'
p4
aS'12,369.38'
p5
aS'-73.11'
p6
aS'-0.59%'
p7
aa(lp8
S'Nasdaq'
p9
aS'2,778.79'
p10
aS'-34.90'
p11
aS'-1.24%'
p12
aa(lp13
S'S&P 500'
p14
aS'1,295.22'
p15
aS'-9.64'
p16
aS'-0.74%'
p17
aa(lp18
S'EUR/USD'
p19
aS'1.2797'
p20
aS'0.00'
p21
aS'+0.29%'
p22
aa(lp23
S'Gold'
p24
aS'1,591.90'
p25
aS'17.00'
p26
aS'+1.08%'
p27
aa(lp28
S'Oil'
p29
aS'91.480003'
p30
aS'-1.08'
p31
aS'-1.17%'
p32
aaa(lp33
(lp34
S'FB'
p35
aS'38.23'
p36
aS'0.23'
p37
aS'0.61%'
p38
aa(lp39
S'BAC'
p40
aS'7.02'
p41
aS'0.04'
p42
aS'0.57%'
p43
aa(lp44
S'SIRI'
p45
aS'1.89'
p46
aS'0.06'
p47
aS'3.01%'
p48
aa(lp49
S'VXX'
p50
aS'22.36'
p51
aS'1.36'
p52
aS'6.48%'
p53
aa(lp54
S'JPM'
p55
aS'33.49'
p56
aS'-0.44'
p57
aS'-1.30%'
p58
aaa(lp59
(lp60
S'SVVC'
p61
aS'19.27'
p62
aS'-7.53'
p63
aS'-28.10%'
p64
aa(lp65
S'SMT'
p66
aS'1.45'
p67
aS'-0.50'
p68
aS'-25.64%'
p69
aa(lp70
S'QPSA'
p71
aS'3.06'
p72
aS'-0.85'
p73
aS'-21.74%'
p74
aa(lp75
S'GU'
p76
aS'0.84'
p77
aS'-0.23'
p78
aS'-21.50%'
p79
aa(lp80
S'RENN'
p81
aS'4.93'
p82
aS'-1.31'
p83
aS'-20.99%'
p84
aaa(lp85
(lp86
S'ROSG'
p87
aS'5.50'
p88
aS'1.55'
p89
aS'39.24%'
p90
aa(lp91
S'BWS'
p92
aS'10.99'
p93
aS'2.23'
p94
aS'25.46%'
p95
aa(lp96
S'NEWL'
p97
aS'1.75'
p98
aS'0.25'
p99
aS'16.67%'
p100
aa(lp101
S'HMNY'
p102
aS'2.65'
p103
aS'0.35'
p104
aS'15.22%'
p105
aa(lp106
S'VELT'
p107
aS'6.76'
p108
aS'0.85'
p109
aS'14.38%'
p110
aaa(lp111
ccopy_reg
_reconstructor
p112
(cDataParserModule.dataParser
FinancialObject
p113
c__builtin__
object
p114
NtRp115
(dp116
S'valuesMonthly'
p117
(lp118
sS'lastUpdate'
p119
cdatetime
date
p120
(S'\x07\xdc\x05\x15'
tRp121
sS'currentValue'
p122
(lp123
sS'name'
p124
S''
sS'valuesWeekly'
p125
(lp126
sS'valuesDaily'
p127
(lp128
(lp129
g120
(S'\x07\xdc\x04\x17'
tRp130
aF13028.049999999999
aF13028.049999999999
aF12810.24
aF12927.17
aL3654860000L
aa(lp131
g120
(S'\x07\xdc\x04\x18'
tRp132
aF12927.77
aF13088.75
aF12902.34
aF13001.559999999999
aL3617100000L
aa(lp133
g120
(S'\x07\xdc\x04\x19'
tRp134
aF12997.540000000001
aF13169.92
aF12972.65
aF13090.719999999999
aL3998430000L
aa(lp135
g120
(S'\x07\xdc\x04\x1a'
tRp136
aF13090.040000000001
aF13243.83
aF13044.700000000001
aF13204.620000000001
aL4034700000L
aa(lp137
g120
(S'\x07\xdc\x04\x1b'
tRp138
aF13204.700000000001
aF13311.870000000001
aF13152.82
aF13228.309999999999
aL3645830000L
aa(lp139
g120
(S'\x07\xdc\x04\x1e'
tRp140
aF13228.389999999999
aF13271.9
aF13132.799999999999
aF13213.629999999999
aL3574010000L
aa(lp141
g120
(S'\x07\xdc\x05\x01'
tRp142
aF13214.16
aF13359.620000000001
aF13152.17
aF13279.32
aL3807950000L
aa(lp143
g120
(S'\x07\xdc\x05\x02'
tRp144
aF13277.959999999999
aF13305.959999999999
aF13164.059999999999
aF13268.57
aL3803860000L
aa(lp145
g120
(S'\x07\xdc\x05\x03'
tRp146
aF13267.360000000001
aF13314.59
aF13155.58
aF13206.59
aL4004910000L
aa(lp147
g120
(S'\x07\xdc\x05\x04'
tRp148
aF13204.620000000001
aF13204.620000000001
aF13005.200000000001
aF13038.27
aL3975140000L
aa(lp149
g120
(S'\x07\xdc\x05\x07'
tRp150
aF13036
aF13080.690000000001
aF12931.629999999999
aF13008.530000000001
aL3559390000L
aa(lp151
g120
(S'\x07\xdc\x05\x08'
tRp152
aF13000.73
aF13001.190000000001
aF12789.35
aF12932.09
aL4261670000L
aa(lp153
g120
(S'\x07\xdc\x05\t'
tRp154
aF12921.66
aF12947.49
aF12728.690000000001
aF12835.059999999999
aL4288540000L
aa(lp155
g120
(S'\x07\xdc\x05\n'
tRp156
aF12831.58
aF12972.92
aF12804.75
aF12855.040000000001
aL3727990000L
aa(lp157
g120
(S'\x07\xdc\x05\x0b'
tRp158
aF12851.790000000001
aF12933.07
aF12740.99
aF12820.6
aL3869070000L
aa(lp159
g120
(S'\x07\xdc\x05\x0e'
tRp160
aF12818.860000000001
aF12818.860000000001
aF12634.01
aF12695.35
aL3688120000L
aa(lp161
g120
(S'\x07\xdc\x05\x0f'
tRp162
aF12694.82
aF12795.74
aF12583.68
aF12632
aL4114040000L
aa(lp163
g120
(S'\x07\xdc\x05\x10'
tRp164
aF12617.389999999999
aF12764.709999999999
aF12559.57
aF12598.549999999999
aL4280420000L
aa(lp165
g120
(S'\x07\xdc\x05\x11'
tRp166
aF12598.469999999999
aF12670.219999999999
aF12415.85
aF12442.49
aL4664280000L
aa(lp167
g120
(S'\x07\xdc\x05\x12'
tRp168
aF12442.940000000001
aF12539.52
aF12309.629999999999
aF12369.379999999999
aL4512470000L
aasS'dailyUpdate'
p169
g120
(S'\x07\xdc\x05\x15'
tRp170
sS'weeklyUpdate'
p171
g120
(S'\x07\xb3\x01\x01'
tRp172
sS'detail'
p173
S''
sS'abbreviation'
p174
S'^DJI'
p175
sS'dataSource'
p176
S'Yahoo'
p177
sS'previousValues'
p178
(lp179
sS'financialType'
p180
S'index'
p181
sS'monthlyUpdate'
p182
g120
(S'\x07\xb3\x01\x01'
tRp183
sbag112
(g113
g114
NtRp184
(dp185
g117
(lp186
sg119
g120
(S'\x07\xdc\x05\x15'
tRp187
sg122
(lp188
sg124
S''
sg125
(lp189
sg127
(lp190
(lp191
g120
(S'\x07\xdc\x04\x17'
tRp192
aF2969
aF2973.3800000000001
aF2946.04
aF2970.4499999999998
aI1767360000
aa(lp193
g120
(S'\x07\xdc\x04\x18'
tRp194
aF2967.3699999999999
aF2979.0799999999999
aF2950.3800000000001
aF2961.5999999999999
aI1690840000
aa(lp195
g120
(S'\x07\xdc\x04\x19'
tRp196
aF3013.6500000000001
aF3031.4099999999999
aF3010.5700000000002
aF3029.6300000000001
aI1721330000
aa(lp197
g120
(S'\x07\xdc\x04\x1a'
tRp198
aF3029.6199999999999
aF3056.77
aF3027.79
aF3050.6100000000001
aI1763510000
aa(lp199
g120
(S'\x07\xdc\x04\x1b'
tRp200
aF3060.3400000000001
aF3076.4400000000001
aF3043.3000000000002
aF3069.1999999999998
aI1777750000
aa(lp201
g120
(S'\x07\xdc\x04\x1e'
tRp202
aF3060.0599999999999
aF3063.6599999999999
aF3043.25
aF3046.3600000000001
aI1633170000
aa(lp203
g120
(S'\x07\xdc\x05\x01'
tRp204
aF3044.79
aF3085.4000000000001
aF3041.6199999999999
aF3050.4400000000001
aI1854230000
aa(lp205
g120
(S'\x07\xdc\x05\x02'
tRp206
aF3035.0700000000002
aF3061.4699999999998
aF3028.9400000000001
aF3059.8499999999999
aI1825190000
aa(lp207
g120
(S'\x07\xdc\x05\x03'
tRp208
aF3061.1300000000001
aF3061.3800000000001
aF3016.1999999999998
aF3024.3000000000002
aI1869130000
aa(lp209
g120
(S'\x07\xdc\x05\x04'
tRp210
aF3001.1500000000001
aF3001.48
aF2956.3400000000001
aF2956.3400000000001
aI1944010000
aa(lp211
g120
(S'\x07\xdc\x05\x07'
tRp212
aF2940.4099999999999
aF2970.1999999999998
aF2939.21
aF2957.7600000000002
aI1740430000
aa(lp213
g120
(S'\x07\xdc\x05\x08'
tRp214
aF2939.3600000000001
aF2952.6500000000001
aF2900.0599999999999
aF2946.27
aL2175840000L
aa(lp215
g120
(S'\x07\xdc\x05\t'
tRp216
aF2912.4099999999999
aF2948.77
aF2900.1799999999998
aF2934.71
aI2047090000
aa(lp217
g120
(S'\x07\xdc\x05\n'
tRp218
aF2950.21
aF2950.21
aF2923.1399999999999
aF2933.6399999999999
aI2004150000
aa(lp219
g120
(S'\x07\xdc\x05\x0b'
tRp220
aF2919.3499999999999
aF2960.3800000000001
aF2918.7399999999998
aF2933.8200000000002
aI1735380000
aa(lp221
g120
(S'\x07\xdc\x05\x0e'
tRp222
aF2907.7800000000002
aF2924.8899999999999
aF2898.9000000000001
aF2902.5799999999999
aI1683460000
aa(lp223
g120
(S'\x07\xdc\x05\x0f'
tRp224
aF2902.3000000000002
aF2930.6799999999998
aF2889.3899999999999
aF2893.7600000000002
aI1826210000
aa(lp225
g120
(S'\x07\xdc\x05\x10'
tRp226
aF2904.6700000000001
aF2913.9000000000001
aF2872.25
aF2874.04
aI1933900000
aa(lp227
g120
(S'\x07\xdc\x05\x11'
tRp228
aF2874.71
aF2879.2199999999998
aF2813.6900000000001
aF2813.6900000000001
aI2016980000
aa(lp229
g120
(S'\x07\xdc\x05\x12'
tRp230
aF2814.4299999999998
aF2827.2800000000002
aF2774.4499999999998
aF2778.79
aL2692450000L
aasg169
g120
(S'\x07\xdc\x05\x15'
tRp231
sg171
g120
(S'\x07\xb3\x01\x01'
tRp232
sg173
S''
sg174
S'^IXIC'
p233
sg176
g177
sg178
(lp234
sg180
g181
sg182
g120
(S'\x07\xb3\x01\x01'
tRp235
sbag112
(g113
g114
NtRp236
(dp237
g117
(lp238
sg119
g120
(S'\x07\xdc\x05\x15'
tRp239
sg122
(lp240
sg124
S''
sg125
(lp241
sg127
(lp242
(lp243
g120
(S'\x07\xdc\x04\x17'
tRp244
aF1378.53
aF1378.53
aF1358.79
aF1366.9400000000001
aL3654860000L
aa(lp245
g120
(S'\x07\xdc\x04\x18'
tRp246
aF1366.97
aF1375.5699999999999
aF1366.8199999999999
aF1371.97
aL3617100000L
aa(lp247
g120
(S'\x07\xdc\x04\x19'
tRp248
aF1372.1099999999999
aF1391.3699999999999
aF1372.1099999999999
aF1390.6900000000001
aL3998430000L
aa(lp249
g120
(S'\x07\xdc\x04\x1a'
tRp250
aF1390.6400000000001
aF1402.0899999999999
aF1387.28
aF1399.98
aL4034700000L
aa(lp251
g120
(S'\x07\xdc\x04\x1b'
tRp252
aF1400.1900000000001
aF1406.6400000000001
aF1397.3099999999999
aF1403.3599999999999
aL3645830000L
aa(lp253
g120
(S'\x07\xdc\x04\x1e'
tRp254
aF1403.26
aF1403.26
aF1394
aF1397.9100000000001
aL3574010000L
aa(lp255
g120
(S'\x07\xdc\x05\x01'
tRp256
aF1397.8599999999999
aF1415.3199999999999
aF1395.73
aF1405.8199999999999
aL3807950000L
aa(lp257
g120
(S'\x07\xdc\x05\x02'
tRp258
aF1405.5
aF1405.5
aF1393.9200000000001
aF1402.3099999999999
aL3803860000L
aa(lp259
g120
(S'\x07\xdc\x05\x03'
tRp260
aF1402.3199999999999
aF1403.0699999999999
aF1388.71
aF1391.5699999999999
aL4004910000L
aa(lp261
g120
(S'\x07\xdc\x05\x04'
tRp262
aF1391.51
aF1391.51
aF1367.96
aF1369.0999999999999
aL3975140000L
aa(lp263
g120
(S'\x07\xdc\x05\x07'
tRp264
aF1368.79
aF1373.9100000000001
aF1363.9400000000001
aF1369.5799999999999
aL3559390000L
aa(lp265
g120
(S'\x07\xdc\x05\x08'
tRp266
aF1369.1600000000001
aF1369.1600000000001
aF1347.75
aF1363.72
aL4261670000L
aa(lp267
g120
(S'\x07\xdc\x05\t'
tRp268
aF1363.2
aF1363.73
aF1343.1300000000001
aF1354.5799999999999
aL4288540000L
aa(lp269
g120
(S'\x07\xdc\x05\n'
tRp270
aF1354.5799999999999
aF1365.8800000000001
aF1354.5799999999999
aF1357.99
aL3727990000L
aa(lp271
g120
(S'\x07\xdc\x05\x0b'
tRp272
aF1358.1099999999999
aF1365.6600000000001
aF1348.8900000000001
aF1353.3900000000001
aL3869070000L
aa(lp273
g120
(S'\x07\xdc\x05\x0e'
tRp274
aF1351.9300000000001
aF1351.9300000000001
aF1336.6099999999999
aF1338.3499999999999
aL3688120000L
aa(lp275
g120
(S'\x07\xdc\x05\x0f'
tRp276
aF1338.3599999999999
aF1344.9400000000001
aF1328.4100000000001
aF1330.6600000000001
aL4114040000L
aa(lp277
g120
(S'\x07\xdc\x05\x10'
tRp278
aF1330.78
aF1341.78
aF1324.79
aF1324.8
aL4280420000L
aa(lp279
g120
(S'\x07\xdc\x05\x11'
tRp280
aF1324.8199999999999
aF1326.3599999999999
aF1304.8599999999999
aF1304.8599999999999
aL4664280000L
aa(lp281
g120
(S'\x07\xdc\x05\x12'
tRp282
aF1305.05
aF1312.24
aF1291.98
aF1295.22
aL4512470000L
aasg169
g120
(S'\x07\xdc\x05\x15'
tRp283
sg171
g120
(S'\x07\xb3\x01\x01'
tRp284
sg173
S''
sg174
S'^GSPC'
p285
sg176
g177
sg178
(lp286
sg180
g181
sg182
g120
(S'\x07\xb3\x01\x01'
tRp287
sbag112
(g113
g114
NtRp288
(dp289
g117
(lp290
sg119
g120
(S'\x07\xb3\x01\x01'
tRp291
sg122
(lp292
sg124
S''
sg125
(lp293
sg127
(lp294
(lp295
g120
(S'\x07\xdc\x04\x17'
tRp296
aF1.3190999999999999
aF1.321
aF1.3105
aF1.3156000000000001
aa(lp297
g120
(S'\x07\xdc\x04\x18'
tRp298
aF1.3158000000000001
aF1.3217000000000001
aF1.3145
aF1.3194999999999999
aa(lp299
g120
(S'\x07\xdc\x04\x19'
tRp300
aF1.3194999999999999
aF1.3236000000000001
aF1.3173999999999999
aF1.3223
aa(lp301
g120
(S'\x07\xdc\x04\x1a'
tRp302
aF1.3222
aF1.3262
aF1.3181
aF1.3190999999999999
aa(lp303
g120
(S'\x07\xdc\x04\x1b'
tRp304
aF1.3188
aF1.3267
aF1.3159000000000001
aF1.3255999999999999
aa(lp305
g120
(S'\x07\xdc\x04\x1e'
tRp306
aF1.3240000000000001
aF1.3264
aF1.321
aF1.3242
aa(lp307
g120
(S'\x07\xdc\x05\x01'
tRp308
aF1.3241000000000001
aF1.3279000000000001
aF1.3205
aF1.3238000000000001
aa(lp309
g120
(S'\x07\xdc\x05\x02'
tRp310
aF1.3240000000000001
aF1.3241000000000001
aF1.3125
aF1.3153999999999999
aa(lp311
g120
(S'\x07\xdc\x05\x03'
tRp312
aF1.3154999999999999
aF1.3179000000000001
aF1.3095000000000001
aF1.3151999999999999
aa(lp313
g120
(S'\x07\xdc\x05\x04'
tRp314
aF1.3151999999999999
aF1.3178000000000001
aF1.3080000000000001
aF1.3084
aa(lp315
g120
(S'\x07\xdc\x05\x07'
tRp316
aF1.3022
aF1.3064
aF1.2955000000000001
aF1.3056000000000001
aa(lp317
g120
(S'\x07\xdc\x05\x08'
tRp318
aF1.3056000000000001
aF1.3064
aF1.2982
aF1.2999000000000001
aa(lp319
g120
(S'\x07\xdc\x05\t'
tRp320
aF1.2999000000000001
aF1.3005
aF1.2909999999999999
aF1.2934000000000001
aa(lp321
g120
(S'\x07\xdc\x05\n'
tRp322
aF1.2934000000000001
aF1.2977000000000001
aF1.2924
aF1.2930999999999999
aa(lp323
g120
(S'\x07\xdc\x05\x0b'
tRp324
aF1.2930999999999999
aF1.2955000000000001
aF1.2904
aF1.2916000000000001
aa(lp325
g120
(S'\x07\xdc\x05\x0e'
tRp326
aF1.2886
aF1.2903
aF1.2821
aF1.2825
aa(lp327
g120
(S'\x07\xdc\x05\x0f'
tRp328
aF1.2825
aF1.2867999999999999
aF1.2722
aF1.2733000000000001
aa(lp329
g120
(S'\x07\xdc\x05\x10'
tRp330
aF1.2733000000000001
aF1.2757000000000001
aF1.2681
aF1.2716000000000001
aa(lp331
g120
(S'\x07\xdc\x05\x11'
tRp332
aF1.2716000000000001
aF1.2747999999999999
aF1.2665999999999999
aF1.2681
aa(lp333
g120
(S'\x07\xdc\x05\x12'
tRp334
aF1.2683
aF1.2793000000000001
aF1.2642
aF1.2775000000000001
aasg169
g120
(S'\x07\xb3\x01\x01'
tRp335
sg171
g120
(S'\x07\xb3\x01\x01'
tRp336
sg173
S''
sg174
S'EURUSD'
p337
sg176
S'Stooq'
p338
sg178
(lp339
sg180
S'forex'
p340
sg182
g120
(S'\x07\xb3\x01\x01'
tRp341
sbag112
(g113
g114
NtRp342
(dp343
g117
(lp344
sg119
g291
sg122
(lp345
sg124
S''
sg125
(lp346
sg127
(lp347
(lp348
g120
(S'\x07\xdc\x04\x17'
tRp349
aF1.9199999999999999
aF1.9399999999999999
aF1.9099999999999999
aF1.9299999999999999
aa(lp350
g120
(S'\x07\xdc\x04\x18'
tRp351
aF1.954
aF1.958
aF1.9370000000000001
aF1.952
aa(lp352
g120
(S'\x07\xdc\x04\x19'
tRp353
aF1.988
aF2.0350000000000001
aF1.97
aF1.984
aa(lp354
g120
(S'\x07\xdc\x04\x1a'
tRp355
aF1.954
aF1.968
aF1.9299999999999999
aF1.9590000000000001
aa(lp356
g120
(S'\x07\xdc\x04\x1b'
tRp357
aF1.9510000000000001
aF1.958
aF1.9259999999999999
aF1.9330000000000001
aa(lp358
g120
(S'\x07\xdc\x04\x1e'
tRp359
aF1.919
aF1.9239999999999999
aF1.907
aF1.915
aa(lp360
g120
(S'\x07\xdc\x05\x01'
tRp361
aF1.919
aF1.9610000000000001
aF1.8999999999999999
aF1.956
aa(lp362
g120
(S'\x07\xdc\x05\x02'
tRp363
aF1.9099999999999999
aF1.9379999999999999
aF1.8999999999999999
aF1.9219999999999999
aa(lp364
g120
(S'\x07\xdc\x05\x03'
tRp365
aF1.9239999999999999
aF1.956
aF1.915
aF1.9239999999999999
aa(lp366
g120
(S'\x07\xdc\x05\x04'
tRp367
aF1.9359999999999999
aF1.954
aF1.873
aF1.8799999999999999
aa(lp368
g120
(S'\x07\xdc\x05\x07'
tRp369
aF1.873
aF1.8819999999999999
aF1.8600000000000001
aF1.877
aa(lp370
g120
(S'\x07\xdc\x05\x08'
tRp371
aF1.8540000000000001
aF1.861
aF1.8160000000000001
aF1.837
aa(lp372
g120
(S'\x07\xdc\x05\t'
tRp373
aF1.8
aF1.845
aF1.7929999999999999
aF1.835
aa(lp374
g120
(S'\x07\xdc\x05\n'
tRp375
aF1.895
aF1.921
aF1.883
aF1.8839999999999999
aa(lp376
g120
(S'\x07\xdc\x05\x0b'
tRp377
aF1.851
aF1.8620000000000001
aF1.8380000000000001
aF1.841
aa(lp378
g120
(S'\x07\xdc\x05\x0e'
tRp379
aF1.7809999999999999
aF1.798
aF1.7669999999999999
aF1.788
aa(lp380
g120
(S'\x07\xdc\x05\x0f'
tRp381
aF1.7929999999999999
aF1.8100000000000001
aF1.7669999999999999
aF1.7769999999999999
aa(lp382
g120
(S'\x07\xdc\x05\x10'
tRp383
aF1.8100000000000001
aF1.819
aF1.752
aF1.7649999999999999
aa(lp384
g120
(S'\x07\xdc\x05\x11'
tRp385
aF1.7709999999999999
aF1.776
aF1.702
aF1.702
aa(lp386
g120
(S'\x07\xdc\x05\x12'
tRp387
aF1.718
aF1.7410000000000001
aF1.7
aF1.702
aasg169
g120
(S'\x07\xb3\x01\x01'
tRp388
sg171
g120
(S'\x07\xb3\x01\x01'
tRp389
sg173
S''
sg174
S'10USY.B'
p390
sg176
g338
sg178
(lp391
sg180
S'bond'
p392
sg182
g120
(S'\x07\xb3\x01\x01'
tRp393
sbag112
(g113
g114
NtRp394
(dp395
g117
(lp396
sg119
g291
sg122
(lp397
sg124
S''
sg125
(lp398
sg127
(lp399
(lp400
g120
(S'\x07\xdc\x04\x17'
tRp401
aF1642.1500000000001
aF1643.3900000000001
aF1623.5799999999999
aF1638.4300000000001
aa(lp402
g120
(S'\x07\xdc\x04\x18'
tRp403
aF1638.6700000000001
aF1649.21
aF1634.1500000000001
aF1641.5799999999999
aa(lp404
g120
(S'\x07\xdc\x04\x19'
tRp405
aF1640.9300000000001
aF1646.3900000000001
aF1625.1199999999999
aF1644.1300000000001
aa(lp406
g120
(S'\x07\xdc\x04\x1a'
tRp407
aF1644.3399999999999
aF1660.8900000000001
aF1641.7
aF1654.9000000000001
aa(lp408
g120
(S'\x07\xdc\x04\x1b'
tRp409
aF1655.5
aF1666.5999999999999
aF1650.5
aF1662.3
aa(lp410
g120
(S'\x07\xdc\x04\x1e'
tRp411
aF1663.7
aF1665.8
aF1647.5999999999999
aF1663.7
aa(lp412
g120
(S'\x07\xdc\x05\x01'
tRp413
aF1665.2
aF1670.8
aF1657.3
aF1660.4000000000001
aa(lp414
g120
(S'\x07\xdc\x05\x02'
tRp415
aF1662.2
aF1662.5999999999999
aF1646.9000000000001
aF1651.5999999999999
aa(lp416
g120
(S'\x07\xdc\x05\x03'
tRp417
aF1651.9000000000001
aF1652.9000000000001
aF1631.3
aF1635.5
aa(lp418
g120
(S'\x07\xdc\x05\x04'
tRp419
aF1635.5999999999999
aF1646.9000000000001
aF1626.9000000000001
aF1641.8
aa(lp420
g120
(S'\x07\xdc\x05\x07'
tRp421
aF1638.3
aF1642.0999999999999
aF1633.2
aF1636.3
aa(lp422
g120
(S'\x07\xdc\x05\x08'
tRp423
aF1638.1700000000001
aF1638.53
aF1595.1400000000001
aF1605.3199999999999
aa(lp424
g120
(S'\x07\xdc\x05\t'
tRp425
aF1604.9200000000001
aF1605.0799999999999
aF1579.98
aF1589.5799999999999
aa(lp426
g120
(S'\x07\xdc\x05\n'
tRp427
aF1589.8800000000001
aF1601.3499999999999
aF1585.47
aF1594.3800000000001
aa(lp428
g120
(S'\x07\xdc\x05\x0b'
tRp429
aF1593.9000000000001
aF1594.1099999999999
aF1573.47
aF1578.9300000000001
aa(lp430
g120
(S'\x07\xdc\x05\x0e'
tRp431
aF1581.24
aF1585.26
aF1555.8099999999999
aF1556.6700000000001
aa(lp432
g120
(S'\x07\xdc\x05\x0f'
tRp433
aF1558.8199999999999
aF1563.3599999999999
aF1541.1700000000001
aF1544.03
aa(lp434
g120
(S'\x07\xdc\x05\x10'
tRp435
aF1544.71
aF1551.3900000000001
aF1526.6300000000001
aF1539.0899999999999
aa(lp436
g120
(S'\x07\xdc\x05\x11'
tRp437
aF1540.0999999999999
aF1579.3800000000001
aF1540.0899999999999
aF1574.1900000000001
aa(lp438
g120
(S'\x07\xdc\x05\x12'
tRp439
aF1573.8
aF1597.02
aF1567.5899999999999
aF1592.4400000000001
aasg169
g120
(S'\x07\xb3\x01\x01'
tRp440
sg171
g120
(S'\x07\xb3\x01\x01'
tRp441
sg173
S''
sg174
S'XAUUSD'
p442
sg176
g338
sg178
(lp443
sg180
S'resource'
p444
sg182
g120
(S'\x07\xb3\x01\x01'
tRp445
sbag112
(g113
g114
NtRp446
(dp447
g117
(lp448
sg119
g291
sg122
(lp449
sg124
S''
sg125
(lp450
sg127
(lp451
(lp452
g120
(S'\x07\xdc\x04\x17'
tRp453
aF103.8
aF103.91
aF101.84
aF103.08
aa(lp454
g120
(S'\x07\xdc\x04\x18'
tRp455
aF103.06
aF104.09
aF102.8
aF103.8
aa(lp456
g120
(S'\x07\xdc\x04\x19'
tRp457
aF103.77
aF104.55
aF103.11
aF103.95999999999999
aa(lp458
g120
(S'\x07\xdc\x04\x1a'
tRp459
aF103.97
aF104.91
aF103.86
aF104.16
aa(lp460
g120
(S'\x07\xdc\x04\x1b'
tRp461
aF104.05
aF104.98
aF103.75
aF104.78
aa(lp462
g120
(S'\x07\xdc\x04\x1e'
tRp463
aF104.89
aF105.11
aF103.89
aF104.89
aa(lp464
g120
(S'\x07\xdc\x05\x01'
tRp465
aF104.92
aF106.42
aF104.41
aF105.98999999999999
aa(lp466
g120
(S'\x07\xdc\x05\x02'
tRp467
aF106.01000000000001
aF106.05
aF104.97
aF105.39
aa(lp468
g120
(S'\x07\xdc\x05\x03'
tRp469
aF105.37
aF105.42
aF102.39
aF102.45
aa(lp470
g120
(S'\x07\xdc\x05\x04'
tRp471
aF102.65000000000001
aF102.72
aF97.530000000000001
aF98.549999999999997
aa(lp472
g120
(S'\x07\xdc\x05\x07'
tRp473
aF98.239999999999995
aF98.239999999999995
aF95.420000000000002
aF97.989999999999995
aa(lp474
g120
(S'\x07\xdc\x05\x08'
tRp475
aF97.959999999999994
aF98.120000000000005
aF95.549999999999997
aF97.390000000000001
aa(lp476
g120
(S'\x07\xdc\x05\t'
tRp477
aF97.359999999999999
aF97.359999999999999
aF95.269999999999996
aF96.379999999999995
aa(lp478
g120
(S'\x07\xdc\x05\n'
tRp479
aF96.439999999999998
aF97.680000000000007
aF96.090000000000003
aF96.560000000000002
aa(lp480
g120
(S'\x07\xdc\x05\x0b'
tRp481
aF96.530000000000001
aF97.140000000000001
aF95.599999999999994
aF95.650000000000006
aa(lp482
g120
(S'\x07\xdc\x05\x0e'
tRp483
aF95.689999999999998
aF95.790000000000006
aF93.659999999999997
aF94.090000000000003
aa(lp484
g120
(S'\x07\xdc\x05\x0f'
tRp485
aF93.969999999999999
aF95.480000000000004
aF93.049999999999997
aF93.090000000000003
aa(lp486
g120
(S'\x07\xdc\x05\x10'
tRp487
aF93.260000000000005
aF94.140000000000001
aF91.819999999999993
aF92.810000000000002
aa(lp488
g120
(S'\x07\xdc\x05\x11'
tRp489
aF92.730000000000004
aF93.870000000000005
aF92.129999999999995
aF92.920000000000002
aa(lp490
g120
(S'\x07\xdc\x05\x12'
tRp491
aF92.769999999999996
aF92.859999999999999
aF90.959999999999994
aF91.319999999999993
aasg169
g120
(S'\x07\xb3\x01\x01'
tRp492
sg171
g120
(S'\x07\xb3\x01\x01'
tRp493
sg173
S''
sg174
S'CL.F'
p494
sg176
g338
sg178
(lp495
sg180
g444
sg182
g120
(S'\x07\xb3\x01\x01'
tRp496
sbaa.