(lp1
(lp2
(lp3
S'Dow'
p4
aS'12,932.09'
p5
aS'-76.44'
p6
aS'-0.59%'
p7
aa(lp8
S'Nasdaq'
p9
aS'2,946.27'
p10
aS'-11.49'
p11
aS'-0.39%'
p12
aa(lp13
S'S&P 500'
p14
aS'1,363.72'
p15
aS'-5.86'
p16
aS'-0.43%'
p17
aa(lp18
S'EUR/USD'
p19
aS'1.2981'
p20
aS'-0.00'
p21
aS'-0.15%'
p22
aa(lp23
S'10-Year'
p24
aS'1.84'
p25
aS'-0.04'
p26
aS'-1.94%'
p27
aa(lp28
S'Gold'
p29
aS'1,599.50'
p30
aS'-5.00'
p31
aS'-0.31%'
p32
aa(lp33
S'Oil'
p34
aS'97.110001'
p35
aS'0.10'
p36
aS'+0.10%'
p37
aaa(lp38
(lp39
S'BAC'
p40
<<<<<<< HEAD
aS'7.79'
p41
aS'-0.17'
p42
aS'-2.14%'
p43
aa(lp44
S'SIRI'
p45
aS'2.14'
p46
aS'-0.03'
p47
aS'-1.15%'
p48
aa(lp49
S'QQQ'
p50
aS'64.52'
p51
aS'-0.24'
p52
aS'-0.37%'
p53
aa(lp54
S'VXX'
p55
aS'17.12'
p56
aS'0.16'
p57
aS'0.94%'
p58
aa(lp59
S'FTR'
p60
aS'3.26'
p61
aS'-0.35'
p62
aS'-9.70%'
p63
aaa(lp64
(lp65
S'FOSL'
p66
aS'78.52'
p67
aS'-47.25'
p68
aS'-37.57%'
p69
aa(lp70
S'MAKO'
p71
aS'26.27'
p72
aS'-15.13'
p73
aS'-36.55%'
p74
aa(lp75
S'MRGE'
p76
aS'2.52'
p77
aS'-1.43'
p78
aS'-36.20%'
p79
aa(lp80
S'JAG'
p81
aS'1.44'
p82
aS'-0.78'
p83
aS'-35.14%'
p84
aa(lp85
S'EIPL'
p86
aS'8.53'
p87
aS'-4.49'
p88
aS'-34.49%'
p89
aaa(lp90
(lp91
S'SPMD'
p92
aS'2.30'
p93
aS'0.56'
p94
aS'32.18%'
p95
aa(lp96
S'IEC'
p97
aS'6.02'
p98
aS'1.26'
p99
aS'26.47%'
p100
aa(lp101
S'ARNA'
p102
aS'3.42'
p103
aS'0.70'
p104
aS'25.74%'
p105
aa(lp106
S'GNRC'
p107
aS'28.89'
p108
aS'5.85'
p109
aS'25.39%'
p110
aa(lp111
S'CFBK'
p112
aS'2.38'
p113
aS'0.39'
p114
aS'19.25%'
p115
aaa(lp116
=======
aS'7.74'
p41
aS'-0.26'
p42
aS'-3.25%'
p43
aa(lp44
S'QQQ'
p45
aS'64.70'
p46
aS'-1.65'
p47
aS'-2.49%'
p48
aa(lp49
S'SIRI'
p50
aS'2.16'
p51
aS'-0.05'
p52
aS'-2.26%'
p53
aa(lp54
S'MSFT'
p55
aS'30.98'
p56
aS'-0.78'
p57
aS'-2.46%'
p58
aa(lp59
S'F'
aS'10.67'
p60
aS'-0.25'
p61
aS'-2.29%'
p62
aaa(lp63
(lp64
S'BODY'
p65
aS'14.88'
p66
aS'-14.04'
p67
aS'-48.55%'
p68
aa(lp69
S'CFBK'
p70
aS'2.00'
p71
aS'-1.19'
p72
aS'-37.21%'
p73
aa(lp74
S'APSA'
p75
aS'10.42'
p76
aS'-5.00'
p77
aS'-32.42%'
p78
aa(lp79
S'INVN'
p80
aS'12.91'
p81
aS'-3.84'
p82
aS'-22.93%'
p83
aa(lp84
S'BEBE'
p85
aS'6.27'
p86
aS'-1.77'
p87
aS'-22.01%'
p88
aaa(lp89
(lp90
S'CRFN'
p91
aS'6.25'
p92
aS'1.51'
p93
aS'31.86%'
p94
aa(lp95
S'ROSA'
p96
aS'20.67'
p97
aS'4.45'
p98
aS'27.44%'
p99
aa(lp100
S'CLIR'
p101
aS'7.44'
p102
aS'1.44'
p103
aS'24.00%'
p104
aa(lp105
S'FACE'
p106
aS'3.79'
p107
aS'0.69'
p108
aS'22.26%'
p109
aa(lp110
S'DGI'
p111
aS'16.44'
p112
aS'2.92'
p113
aS'21.60%'
p114
aaa(lp115
>>>>>>> efd75ab4e52aa3380d6322dfb287733a3089b0dc
ccopy_reg
_reconstructor
p116
(cDataParserModule.dataParser
FinancialObject
p117
c__builtin__
object
p118
NtRp119
(dp120
S'valuesMonthly'
p121
(lp122
sS'lastUpdate'
p123
cdatetime
date
<<<<<<< HEAD
p125
(S'\x07\xdc\x05\t'
tRp126
=======
p124
(S'\x07\xdc\x05\x07'
tRp125
>>>>>>> efd75ab4e52aa3380d6322dfb287733a3089b0dc
sS'currentValue'
p126
(lp127
sS'name'
p128
S''
sS'valuesWeekly'
p129
(lp130
sS'weeklyUpdate'
p131
g124
(S'\x07\xb3\x01\x01'
tRp132
sS'valuesDaily'
p133
(lp134
(lp135
<<<<<<< HEAD
(lp136
g125
(S'\x07\xdc\x04\t'
tRp137
=======
g124
(S'\x07\xdc\x04\t'
tRp136
>>>>>>> efd75ab4e52aa3380d6322dfb287733a3089b0dc
aF13057.57
aF13057.57
aF12860.110000000001
aF12929.59
aL3468980000L
<<<<<<< HEAD
aa(lp138
g125
(S'\x07\xdc\x04\n'
tRp139
=======
aa(lp137
g124
(S'\x07\xdc\x04\n'
tRp138
>>>>>>> efd75ab4e52aa3380d6322dfb287733a3089b0dc
aF12929.59
aF12951.459999999999
aF12689.1
aF12715.93
aL4631730000L
<<<<<<< HEAD
aa(lp140
g125
(S'\x07\xdc\x04\x0b'
tRp141
=======
aa(lp139
g124
(S'\x07\xdc\x04\x0b'
tRp140
>>>>>>> efd75ab4e52aa3380d6322dfb287733a3089b0dc
aF12716.92
aF12890.91
aF12716.92
aF12805.389999999999
aL3743040000L
<<<<<<< HEAD
aa(lp142
g125
(S'\x07\xdc\x04\x0c'
tRp143
=======
aa(lp141
g124
(S'\x07\xdc\x04\x0c'
tRp142
>>>>>>> efd75ab4e52aa3380d6322dfb287733a3089b0dc
aF12806.450000000001
aF13018.82
aF12784.92
aF12986.58
aL3618280000L
<<<<<<< HEAD
aa(lp144
g125
(S'\x07\xdc\x04\r'
tRp145
=======
aa(lp143
g124
(S'\x07\xdc\x04\r'
tRp144
>>>>>>> efd75ab4e52aa3380d6322dfb287733a3089b0dc
aF12986.200000000001
aF12992.629999999999
aF12826.049999999999
aF12849.59
aL3631160000L
<<<<<<< HEAD
aa(lp146
g125
(S'\x07\xdc\x04\x10'
tRp147
=======
aa(lp145
g124
(S'\x07\xdc\x04\x10'
tRp146
>>>>>>> efd75ab4e52aa3380d6322dfb287733a3089b0dc
aF12850.879999999999
aF13032.59
aF12840.51
aF12921.41
aL3574780000L
<<<<<<< HEAD
aa(lp148
g125
(S'\x07\xdc\x04\x11'
tRp149
=======
aa(lp147
g124
(S'\x07\xdc\x04\x11'
tRp148
>>>>>>> efd75ab4e52aa3380d6322dfb287733a3089b0dc
aF12921.870000000001
aF13168.33
aF12921.870000000001
aF13115.540000000001
aL3456200000L
<<<<<<< HEAD
aa(lp150
g125
(S'\x07\xdc\x04\x12'
tRp151
=======
aa(lp149
g124
(S'\x07\xdc\x04\x12'
tRp150
>>>>>>> efd75ab4e52aa3380d6322dfb287733a3089b0dc
aF13114.559999999999
aF13131.700000000001
aF12977.16
aF13032.75
aL3463140000L
<<<<<<< HEAD
aa(lp152
g125
(S'\x07\xdc\x04\x13'
tRp153
=======
aa(lp151
g124
(S'\x07\xdc\x04\x13'
tRp152
>>>>>>> efd75ab4e52aa3380d6322dfb287733a3089b0dc
aF13028.73
aF13115.049999999999
aF12874.299999999999
aF12964.1
aL4180020000L
<<<<<<< HEAD
aa(lp154
g125
(S'\x07\xdc\x04\x14'
tRp155
=======
aa(lp153
g124
(S'\x07\xdc\x04\x14'
tRp154
>>>>>>> efd75ab4e52aa3380d6322dfb287733a3089b0dc
aF12964.48
aF13127.99
aF12961
aF13029.26
aL3833320000L
<<<<<<< HEAD
aa(lp156
g125
(S'\x07\xdc\x04\x17'
tRp157
=======
aa(lp155
g124
(S'\x07\xdc\x04\x17'
tRp156
>>>>>>> efd75ab4e52aa3380d6322dfb287733a3089b0dc
aF13028.049999999999
aF13028.049999999999
aF12810.24
aF12927.17
aL3654860000L
<<<<<<< HEAD
aa(lp158
g125
(S'\x07\xdc\x04\x18'
tRp159
=======
aa(lp157
g124
(S'\x07\xdc\x04\x18'
tRp158
>>>>>>> efd75ab4e52aa3380d6322dfb287733a3089b0dc
aF12927.77
aF13088.75
aF12902.34
aF13001.559999999999
aL3617100000L
<<<<<<< HEAD
aa(lp160
g125
(S'\x07\xdc\x04\x19'
tRp161
=======
aa(lp159
g124
(S'\x07\xdc\x04\x19'
tRp160
>>>>>>> efd75ab4e52aa3380d6322dfb287733a3089b0dc
aF12997.540000000001
aF13169.92
aF12972.65
aF13090.719999999999
aL3998430000L
<<<<<<< HEAD
aa(lp162
g125
(S'\x07\xdc\x04\x1a'
tRp163
=======
aa(lp161
g124
(S'\x07\xdc\x04\x1a'
tRp162
>>>>>>> efd75ab4e52aa3380d6322dfb287733a3089b0dc
aF13090.040000000001
aF13243.83
aF13044.700000000001
aF13204.620000000001
aL4034700000L
<<<<<<< HEAD
aa(lp164
g125
(S'\x07\xdc\x04\x1b'
tRp165
=======
aa(lp163
g124
(S'\x07\xdc\x04\x1b'
tRp164
>>>>>>> efd75ab4e52aa3380d6322dfb287733a3089b0dc
aF13204.700000000001
aF13311.870000000001
aF13152.82
aF13228.309999999999
aL3645830000L
<<<<<<< HEAD
aa(lp166
g125
(S'\x07\xdc\x04\x1e'
tRp167
=======
aa(lp165
g124
(S'\x07\xdc\x04\x1e'
tRp166
>>>>>>> efd75ab4e52aa3380d6322dfb287733a3089b0dc
aF13228.389999999999
aF13271.9
aF13132.799999999999
aF13213.629999999999
aL3574010000L
<<<<<<< HEAD
aa(lp168
g125
(S'\x07\xdc\x05\x01'
tRp169
=======
aa(lp167
g124
(S'\x07\xdc\x05\x01'
tRp168
>>>>>>> efd75ab4e52aa3380d6322dfb287733a3089b0dc
aF13214.16
aF13359.620000000001
aF13152.17
aF13279.32
aL3807950000L
<<<<<<< HEAD
aa(lp170
g125
(S'\x07\xdc\x05\x02'
tRp171
=======
aa(lp169
g124
(S'\x07\xdc\x05\x02'
tRp170
>>>>>>> efd75ab4e52aa3380d6322dfb287733a3089b0dc
aF13277.959999999999
aF13305.959999999999
aF13164.059999999999
aF13268.57
aL3803860000L
<<<<<<< HEAD
aa(lp172
g125
(S'\x07\xdc\x05\x03'
tRp173
=======
aa(lp171
g124
(S'\x07\xdc\x05\x03'
tRp172
>>>>>>> efd75ab4e52aa3380d6322dfb287733a3089b0dc
aF13267.360000000001
aF13314.59
aF13155.58
aF13206.59
aL4004910000L
<<<<<<< HEAD
aa(lp174
g125
(S'\x07\xdc\x05\x04'
tRp175
=======
aa(lp173
g124
(S'\x07\xdc\x05\x04'
tRp174
>>>>>>> efd75ab4e52aa3380d6322dfb287733a3089b0dc
aF13204.620000000001
aF13204.620000000001
aF13005.200000000001
aF13038.27
aL3975140000L
<<<<<<< HEAD
aa(lp176
g125
(S'\x07\xdc\x05\x07'
tRp177
aF13036
aF13080.690000000001
aF12931.629999999999
aF13008.530000000001
aL3559390000L
aa(lp178
g125
(S'\x07\xdc\x05\x08'
tRp179
aF13000.73
aF13001.190000000001
aF12789.35
aF12932.09
aL4261670000L
aasS'dailyUpdate'
p180
g125
(S'\x07\xdc\x05\t'
tRp181
sS'detail'
p182
S''
sS'abbreviation'
p183
S'^DJI'
p184
sS'dataSource'
p185
S'Yahoo'
p186
sS'previousValues'
p187
(lp188
sS'financialType'
p189
S'index'
p190
sS'monthlyUpdate'
p191
g125
(S'\x07\xb3\x01\x01'
tRp192
sbag117
(g118
g119
NtRp193
(dp194
g122
(lp195
sg124
g125
(S'\x07\xdc\x05\t'
tRp196
sg127
(lp197
sg129
S''
sg130
(lp198
sg132
g125
(S'\x07\xb3\x01\x01'
tRp199
sg134
(lp200
(lp201
g125
(S'\x07\xdc\x04\t'
tRp202
=======
aasS'dailyUpdate'
p175
g124
(S'\x07\xdc\x05\x07'
tRp176
sS'detail'
p177
S''
sS'abbreviation'
p178
S'^DJI'
p179
sS'dataSource'
p180
S'Yahoo'
p181
sS'previousValues'
p182
(lp183
sS'financialType'
p184
S'index'
p185
sS'monthlyUpdate'
p186
g124
(S'\x07\xb3\x01\x01'
tRp187
sbag116
(g117
g118
NtRp188
(dp189
g121
(lp190
sg123
g124
(S'\x07\xdc\x05\x07'
tRp191
sg126
(lp192
sg128
S''
sg129
(lp193
sg131
g124
(S'\x07\xb3\x01\x01'
tRp194
sg133
(lp195
(lp196
g124
(S'\x07\xdc\x04\t'
tRp197
>>>>>>> efd75ab4e52aa3380d6322dfb287733a3089b0dc
aF3037.2800000000002
aF3058.7600000000002
aF3032.2199999999998
aF3047.0799999999999
aI1371140000
<<<<<<< HEAD
aa(lp203
g125
(S'\x07\xdc\x04\n'
tRp204
=======
aa(lp198
g124
(S'\x07\xdc\x04\n'
tRp199
>>>>>>> efd75ab4e52aa3380d6322dfb287733a3089b0dc
aF3044.6700000000001
aF3055.1999999999998
aF2987
aF2991.2199999999998
aI1953600000
<<<<<<< HEAD
aa(lp205
g125
(S'\x07\xdc\x04\x0b'
tRp206
=======
aa(lp200
g124
(S'\x07\xdc\x04\x0b'
tRp201
>>>>>>> efd75ab4e52aa3380d6322dfb287733a3089b0dc
aF3020.1500000000001
aF3030.5100000000002
aF3008.75
aF3016.46
aI1540890000
<<<<<<< HEAD
aa(lp207
g125
(S'\x07\xdc\x04\x0c'
tRp208
=======
aa(lp202
g124
(S'\x07\xdc\x04\x0c'
tRp203
>>>>>>> efd75ab4e52aa3380d6322dfb287733a3089b0dc
aF3023.1100000000001
aF3059.2600000000002
aF3020.4400000000001
aF3055.5500000000002
aI1480340000
<<<<<<< HEAD
aa(lp209
g125
(S'\x07\xdc\x04\r'
tRp210
=======
aa(lp204
g124
(S'\x07\xdc\x04\r'
tRp205
>>>>>>> efd75ab4e52aa3380d6322dfb287733a3089b0dc
aF3045.0799999999999
aF3045.4200000000001
aF3010.77
aF3011.3299999999999
aI1483850000
<<<<<<< HEAD
aa(lp211
g125
(S'\x07\xdc\x04\x10'
tRp212
=======
aa(lp206
g124
(S'\x07\xdc\x04\x10'
tRp207
>>>>>>> efd75ab4e52aa3380d6322dfb287733a3089b0dc
aF3027.5700000000002
aF3027.5700000000002
aF2975.8699999999999
aF2988.4000000000001
aI1594320000
<<<<<<< HEAD
aa(lp213
g125
(S'\x07\xdc\x04\x11'
tRp214
=======
aa(lp208
g124
(S'\x07\xdc\x04\x11'
tRp209
>>>>>>> efd75ab4e52aa3380d6322dfb287733a3089b0dc
aF3002.02
aF3052.7600000000002
aF2999.4899999999998
aF3042.8200000000002
aI1555070000
<<<<<<< HEAD
aa(lp215
g125
(S'\x07\xdc\x04\x12'
tRp216
=======
aa(lp210
g124
(S'\x07\xdc\x04\x12'
tRp211
>>>>>>> efd75ab4e52aa3380d6322dfb287733a3089b0dc
aF3031.8200000000002
aF3045.04
aF3023.9099999999999
aF3031.4499999999998
aI1599470000
<<<<<<< HEAD
aa(lp217
g125
(S'\x07\xdc\x04\x13'
tRp218
=======
aa(lp212
g124
(S'\x07\xdc\x04\x13'
tRp213
>>>>>>> efd75ab4e52aa3380d6322dfb287733a3089b0dc
aF3028.1999999999998
aF3058.7199999999998
aF2994.9400000000001
aF3007.5599999999999
aI1991120000
<<<<<<< HEAD
aa(lp219
g125
(S'\x07\xdc\x04\x14'
tRp220
=======
aa(lp214
g124
(S'\x07\xdc\x04\x14'
tRp215
>>>>>>> efd75ab4e52aa3380d6322dfb287733a3089b0dc
aF3023.73
aF3034.6900000000001
aF2999.0100000000002
aF3000.4499999999998
aI1935880000
<<<<<<< HEAD
aa(lp221
g125
(S'\x07\xdc\x04\x17'
tRp222
=======
aa(lp216
g124
(S'\x07\xdc\x04\x17'
tRp217
>>>>>>> efd75ab4e52aa3380d6322dfb287733a3089b0dc
aF2969
aF2973.3800000000001
aF2946.04
aF2970.4499999999998
aI1767360000
<<<<<<< HEAD
aa(lp223
g125
(S'\x07\xdc\x04\x18'
tRp224
=======
aa(lp218
g124
(S'\x07\xdc\x04\x18'
tRp219
>>>>>>> efd75ab4e52aa3380d6322dfb287733a3089b0dc
aF2967.3699999999999
aF2979.0799999999999
aF2950.3800000000001
aF2961.5999999999999
aI1690840000
<<<<<<< HEAD
aa(lp225
g125
(S'\x07\xdc\x04\x19'
tRp226
=======
aa(lp220
g124
(S'\x07\xdc\x04\x19'
tRp221
>>>>>>> efd75ab4e52aa3380d6322dfb287733a3089b0dc
aF3013.6500000000001
aF3031.4099999999999
aF3010.5700000000002
aF3029.6300000000001
aI1721330000
<<<<<<< HEAD
aa(lp227
g125
(S'\x07\xdc\x04\x1a'
tRp228
=======
aa(lp222
g124
(S'\x07\xdc\x04\x1a'
tRp223
>>>>>>> efd75ab4e52aa3380d6322dfb287733a3089b0dc
aF3029.6199999999999
aF3056.77
aF3027.79
aF3050.6100000000001
aI1763510000
<<<<<<< HEAD
aa(lp229
g125
(S'\x07\xdc\x04\x1b'
tRp230
=======
aa(lp224
g124
(S'\x07\xdc\x04\x1b'
tRp225
>>>>>>> efd75ab4e52aa3380d6322dfb287733a3089b0dc
aF3060.3400000000001
aF3076.4400000000001
aF3043.3000000000002
aF3069.1999999999998
aI1777750000
<<<<<<< HEAD
aa(lp231
g125
(S'\x07\xdc\x04\x1e'
tRp232
=======
aa(lp226
g124
(S'\x07\xdc\x04\x1e'
tRp227
>>>>>>> efd75ab4e52aa3380d6322dfb287733a3089b0dc
aF3060.0599999999999
aF3063.6599999999999
aF3043.25
aF3046.3600000000001
aI1633170000
<<<<<<< HEAD
aa(lp233
g125
(S'\x07\xdc\x05\x01'
tRp234
=======
aa(lp228
g124
(S'\x07\xdc\x05\x01'
tRp229
>>>>>>> efd75ab4e52aa3380d6322dfb287733a3089b0dc
aF3044.79
aF3085.4000000000001
aF3041.6199999999999
aF3050.4400000000001
aI1854230000
<<<<<<< HEAD
aa(lp235
g125
(S'\x07\xdc\x05\x02'
tRp236
=======
aa(lp230
g124
(S'\x07\xdc\x05\x02'
tRp231
>>>>>>> efd75ab4e52aa3380d6322dfb287733a3089b0dc
aF3035.0700000000002
aF3061.4699999999998
aF3028.9400000000001
aF3059.8499999999999
aI1825190000
<<<<<<< HEAD
aa(lp237
g125
(S'\x07\xdc\x05\x03'
tRp238
=======
aa(lp232
g124
(S'\x07\xdc\x05\x03'
tRp233
>>>>>>> efd75ab4e52aa3380d6322dfb287733a3089b0dc
aF3061.1300000000001
aF3061.3800000000001
aF3016.1999999999998
aF3024.3000000000002
aI1869130000
<<<<<<< HEAD
aa(lp239
g125
(S'\x07\xdc\x05\x04'
tRp240
=======
aa(lp234
g124
(S'\x07\xdc\x05\x04'
tRp235
>>>>>>> efd75ab4e52aa3380d6322dfb287733a3089b0dc
aF3001.1500000000001
aF3001.48
aF2956.3400000000001
aF2956.3400000000001
aI1944010000
<<<<<<< HEAD
aa(lp241
g125
(S'\x07\xdc\x05\x07'
tRp242
aF2940.4099999999999
aF2970.1999999999998
aF2939.21
aF2957.7600000000002
aI1740430000
aa(lp243
g125
(S'\x07\xdc\x05\x08'
tRp244
aF2939.3600000000001
aF2952.6500000000001
aF2900.0599999999999
aF2946.27
aL2175840000L
aasg180
g125
(S'\x07\xdc\x05\t'
tRp245
sg182
S''
sg183
S'^IXIC'
p246
sg185
g186
sg187
(lp247
sg189
g190
sg191
g125
(S'\x07\xb3\x01\x01'
tRp248
sbag117
(g118
g119
NtRp249
(dp250
g122
(lp251
sg124
g125
(S'\x07\xdc\x05\t'
tRp252
sg127
(lp253
sg129
S''
sg130
(lp254
sg132
g125
(S'\x07\xb3\x01\x01'
tRp255
sg134
(lp256
(lp257
g125
=======
aasg175
g124
(S'\x07\xdc\x05\x07'
tRp236
sg177
S''
sg178
S'^IXIC'
p237
sg180
g181
sg182
(lp238
sg184
g185
sg186
g124
(S'\x07\xb3\x01\x01'
tRp239
sbag116
(g117
g118
NtRp240
(dp241
g121
(lp242
sg123
g124
(S'\x07\xdc\x05\x07'
tRp243
sg126
(lp244
sg128
S''
sg129
(lp245
sg131
g124
(S'\x07\xb3\x01\x01'
tRp246
sg133
(lp247
(lp248
g124
>>>>>>> efd75ab4e52aa3380d6322dfb287733a3089b0dc
(S'\x07\xdc\x04\t'
tRp249
aF1397.45
aF1397.45
aF1378.24
aF1382.2
aL3468980000L
aa(lp250
g124
(S'\x07\xdc\x04\n'
tRp251
aF1382.1800000000001
aF1383.01
aF1357.3800000000001
aF1358.5899999999999
aL4631730000L
aa(lp252
g124
(S'\x07\xdc\x04\x0b'
tRp253
aF1358.98
aF1374.71
aF1358.98
aF1368.71
aL3743040000L
aa(lp254
g124
(S'\x07\xdc\x04\x0c'
tRp255
aF1368.77
aF1388.1300000000001
aF1368.77
aF1387.5699999999999
aL3618280000L
aa(lp256
g124
(S'\x07\xdc\x04\r'
tRp257
aF1387.6099999999999
aF1387.6099999999999
aF1369.8499999999999
aF1370.26
aL3631160000L
aa(lp258
g124
(S'\x07\xdc\x04\x10'
tRp259
aF1370.27
aF1379.6600000000001
aF1365.3800000000001
aF1369.5699999999999
aL3574780000L
aa(lp260
g124
(S'\x07\xdc\x04\x11'
tRp261
aF1369.5699999999999
aF1392.76
aF1369.5699999999999
aF1390.78
aL3456200000L
aa(lp262
g124
(S'\x07\xdc\x04\x12'
tRp263
aF1390.78
aF1390.78
aF1383.29
aF1385.1400000000001
aL3463140000L
aa(lp264
g124
(S'\x07\xdc\x04\x13'
tRp265
aF1385.0799999999999
aF1390.46
aF1370.3
aF1376.9200000000001
aL4180020000L
aa(lp266
g124
(S'\x07\xdc\x04\x14'
tRp267
aF1376.96
aF1387.4000000000001
aF1376.96
aF1378.53
aL3833320000L
aa(lp268
g124
(S'\x07\xdc\x04\x17'
tRp269
aF1378.53
aF1378.53
aF1358.79
aF1366.9400000000001
aL3654860000L
aa(lp270
g124
(S'\x07\xdc\x04\x18'
tRp271
aF1366.97
aF1375.5699999999999
aF1366.8199999999999
aF1371.97
aL3617100000L
aa(lp272
g124
(S'\x07\xdc\x04\x19'
tRp273
aF1372.1099999999999
aF1391.3699999999999
aF1372.1099999999999
aF1390.6900000000001
aL3998430000L
aa(lp274
g124
(S'\x07\xdc\x04\x1a'
tRp275
aF1390.6400000000001
aF1402.0899999999999
aF1387.28
aF1399.98
aL4034700000L
aa(lp276
g124
(S'\x07\xdc\x04\x1b'
tRp277
aF1400.1900000000001
aF1406.6400000000001
aF1397.3099999999999
aF1403.3599999999999
aL3645830000L
aa(lp278
g124
(S'\x07\xdc\x04\x1e'
tRp279
aF1403.26
aF1403.26
aF1394
aF1397.9100000000001
aL3574010000L
<<<<<<< HEAD
aa(lp289
g125
(S'\x07\xdc\x05\x01'
tRp290
=======
aa(lp280
g124
(S'\x07\xdc\x05\x01'
tRp281
>>>>>>> efd75ab4e52aa3380d6322dfb287733a3089b0dc
aF1397.8599999999999
aF1415.3199999999999
aF1395.73
aF1405.8199999999999
aL3807950000L
<<<<<<< HEAD
aa(lp291
g125
(S'\x07\xdc\x05\x02'
tRp292
=======
aa(lp282
g124
(S'\x07\xdc\x05\x02'
tRp283
>>>>>>> efd75ab4e52aa3380d6322dfb287733a3089b0dc
aF1405.5
aF1405.5
aF1393.9200000000001
aF1402.3099999999999
aL3803860000L
<<<<<<< HEAD
aa(lp293
g125
(S'\x07\xdc\x05\x03'
tRp294
=======
aa(lp284
g124
(S'\x07\xdc\x05\x03'
tRp285
>>>>>>> efd75ab4e52aa3380d6322dfb287733a3089b0dc
aF1402.3199999999999
aF1403.0699999999999
aF1388.71
aF1391.5699999999999
aL4004910000L
<<<<<<< HEAD
aa(lp295
g125
(S'\x07\xdc\x05\x04'
tRp296
=======
aa(lp286
g124
(S'\x07\xdc\x05\x04'
tRp287
>>>>>>> efd75ab4e52aa3380d6322dfb287733a3089b0dc
aF1391.51
aF1391.51
aF1367.96
aF1369.0999999999999
aL3975140000L
<<<<<<< HEAD
aa(lp297
g125
(S'\x07\xdc\x05\x07'
tRp298
aF1368.79
aF1373.9100000000001
aF1363.9400000000001
aF1369.5799999999999
aL3559390000L
aa(lp299
g125
(S'\x07\xdc\x05\x08'
tRp300
aF1369.1600000000001
aF1369.1600000000001
aF1347.75
aF1363.72
aL4261670000L
aasg180
g125
(S'\x07\xdc\x05\t'
tRp301
sg182
S''
sg183
S'^GSPC'
p302
sg185
g186
sg187
(lp303
sg189
g190
sg191
g125
(S'\x07\xb3\x01\x01'
tRp304
sbag117
(g118
g119
NtRp305
(dp306
g122
(lp307
sg124
g125
(S'\x07\xb3\x01\x01'
tRp308
sg127
(lp309
sg129
S''
sg130
(lp310
sg132
g125
(S'\x07\xb3\x01\x01'
tRp311
sg134
(lp312
(lp313
g125
(S'\x07\xdc\x04\t'
tRp314
=======
aasg175
g124
(S'\x07\xdc\x05\x07'
tRp288
sg177
S''
sg178
S'^GSPC'
p289
sg180
g181
sg182
(lp290
sg184
g185
sg186
g124
(S'\x07\xb3\x01\x01'
tRp291
sbag116
(g117
g118
NtRp292
(dp293
g121
(lp294
sg123
g124
(S'\x07\xb3\x01\x01'
tRp295
sg126
(lp296
sg128
S''
sg129
(lp297
sg131
g124
(S'\x07\xb3\x01\x01'
tRp298
sg133
(lp299
(lp300
g124
(S'\x07\xdc\x04\t'
tRp301
>>>>>>> efd75ab4e52aa3380d6322dfb287733a3089b0dc
aF1.3097000000000001
aF1.3132999999999999
aF1.3033999999999999
aF1.3109999999999999
<<<<<<< HEAD
aa(lp315
g125
(S'\x07\xdc\x04\n'
tRp316
=======
aa(lp302
g124
(S'\x07\xdc\x04\n'
tRp303
>>>>>>> efd75ab4e52aa3380d6322dfb287733a3089b0dc
aF1.3109
aF1.3144
aF1.3055000000000001
aF1.3082
<<<<<<< HEAD
aa(lp317
g125
(S'\x07\xdc\x04\x0b'
tRp318
=======
aa(lp304
g124
(S'\x07\xdc\x04\x0b'
tRp305
>>>>>>> efd75ab4e52aa3380d6322dfb287733a3089b0dc
aF1.3083
aF1.3156000000000001
aF1.3066
aF1.3109999999999999
<<<<<<< HEAD
aa(lp319
g125
(S'\x07\xdc\x04\x0c'
tRp320
=======
aa(lp306
g124
(S'\x07\xdc\x04\x0c'
tRp307
>>>>>>> efd75ab4e52aa3380d6322dfb287733a3089b0dc
aF1.3109999999999999
aF1.3211999999999999
aF1.3102
aF1.3187
<<<<<<< HEAD
aa(lp321
g125
(S'\x07\xdc\x04\r'
tRp322
=======
aa(lp308
g124
(S'\x07\xdc\x04\r'
tRp309
>>>>>>> efd75ab4e52aa3380d6322dfb287733a3089b0dc
aF1.3188
aF1.3200000000000001
aF1.3069999999999999
aF1.3077000000000001
<<<<<<< HEAD
aa(lp323
g125
(S'\x07\xdc\x04\x10'
tRp324
=======
aa(lp310
g124
(S'\x07\xdc\x04\x10'
tRp311
>>>>>>> efd75ab4e52aa3380d6322dfb287733a3089b0dc
aF1.3069999999999999
aF1.3147
aF1.2995000000000001
aF1.3131999999999999
<<<<<<< HEAD
aa(lp325
g125
(S'\x07\xdc\x04\x11'
tRp326
=======
aa(lp312
g124
(S'\x07\xdc\x04\x11'
tRp313
>>>>>>> efd75ab4e52aa3380d6322dfb287733a3089b0dc
aF1.3131999999999999
aF1.3170999999999999
aF1.3089999999999999
aF1.3128
<<<<<<< HEAD
aa(lp327
g125
(S'\x07\xdc\x04\x12'
tRp328
=======
aa(lp314
g124
(S'\x07\xdc\x04\x12'
tRp315
>>>>>>> efd75ab4e52aa3380d6322dfb287733a3089b0dc
aF1.3127
aF1.3140000000000001
aF1.3058000000000001
aF1.3119000000000001
<<<<<<< HEAD
aa(lp329
g125
(S'\x07\xdc\x04\x13'
tRp330
=======
aa(lp316
g124
(S'\x07\xdc\x04\x13'
tRp317
>>>>>>> efd75ab4e52aa3380d6322dfb287733a3089b0dc
aF1.3119000000000001
aF1.3165
aF1.3069999999999999
aF1.3134999999999999
<<<<<<< HEAD
aa(lp331
g125
(S'\x07\xdc\x04\x14'
tRp332
=======
aa(lp318
g124
(S'\x07\xdc\x04\x14'
tRp319
>>>>>>> efd75ab4e52aa3380d6322dfb287733a3089b0dc
aF1.3134999999999999
aF1.3227
aF1.3129
aF1.3219000000000001
<<<<<<< HEAD
aa(lp333
g125
(S'\x07\xdc\x04\x17'
tRp334
=======
aa(lp320
g124
(S'\x07\xdc\x04\x17'
tRp321
>>>>>>> efd75ab4e52aa3380d6322dfb287733a3089b0dc
aF1.3190999999999999
aF1.321
aF1.3105
aF1.3156000000000001
<<<<<<< HEAD
aa(lp335
g125
(S'\x07\xdc\x04\x18'
tRp336
=======
aa(lp322
g124
(S'\x07\xdc\x04\x18'
tRp323
>>>>>>> efd75ab4e52aa3380d6322dfb287733a3089b0dc
aF1.3158000000000001
aF1.3217000000000001
aF1.3145
aF1.3194999999999999
<<<<<<< HEAD
aa(lp337
g125
(S'\x07\xdc\x04\x19'
tRp338
=======
aa(lp324
g124
(S'\x07\xdc\x04\x19'
tRp325
>>>>>>> efd75ab4e52aa3380d6322dfb287733a3089b0dc
aF1.3194999999999999
aF1.3236000000000001
aF1.3173999999999999
aF1.3223
<<<<<<< HEAD
aa(lp339
g125
(S'\x07\xdc\x04\x1a'
tRp340
=======
aa(lp326
g124
(S'\x07\xdc\x04\x1a'
tRp327
>>>>>>> efd75ab4e52aa3380d6322dfb287733a3089b0dc
aF1.3222
aF1.3262
aF1.3181
aF1.3190999999999999
<<<<<<< HEAD
aa(lp341
g125
(S'\x07\xdc\x04\x1b'
tRp342
=======
aa(lp328
g124
(S'\x07\xdc\x04\x1b'
tRp329
>>>>>>> efd75ab4e52aa3380d6322dfb287733a3089b0dc
aF1.3188
aF1.3267
aF1.3159000000000001
aF1.3255999999999999
<<<<<<< HEAD
aa(lp343
g125
(S'\x07\xdc\x04\x1e'
tRp344
=======
aa(lp330
g124
(S'\x07\xdc\x04\x1e'
tRp331
>>>>>>> efd75ab4e52aa3380d6322dfb287733a3089b0dc
aF1.3240000000000001
aF1.3264
aF1.321
aF1.3242
<<<<<<< HEAD
aa(lp345
g125
(S'\x07\xdc\x05\x01'
tRp346
aF1.3241000000000001
aF1.3279000000000001
aF1.3205
aF1.3238000000000001
aa(lp347
g125
(S'\x07\xdc\x05\x02'
tRp348
aF1.3240000000000001
aF1.3241000000000001
aF1.3125
aF1.3153999999999999
aa(lp349
g125
(S'\x07\xdc\x05\x03'
tRp350
=======
aa(lp332
g124
(S'\x07\xdc\x05\x01'
tRp333
aF1.3241000000000001
aF1.3279000000000001
aF1.3205
aF1.3238000000000001
aa(lp334
g124
(S'\x07\xdc\x05\x02'
tRp335
aF1.3240000000000001
aF1.3241000000000001
aF1.3125
aF1.3153999999999999
aa(lp336
g124
(S'\x07\xdc\x05\x03'
tRp337
>>>>>>> efd75ab4e52aa3380d6322dfb287733a3089b0dc
aF1.3154999999999999
aF1.3179000000000001
aF1.3095000000000001
aF1.3151999999999999
<<<<<<< HEAD
aa(lp351
g125
(S'\x07\xdc\x05\x04'
tRp352
=======
aa(lp338
g124
(S'\x07\xdc\x05\x04'
tRp339
>>>>>>> efd75ab4e52aa3380d6322dfb287733a3089b0dc
aF1.3151999999999999
aF1.3178000000000001
aF1.3080000000000001
aF1.3084
<<<<<<< HEAD
aa(lp353
g125
(S'\x07\xdc\x05\x07'
tRp354
aF1.3022
aF1.3064
aF1.2955000000000001
aF1.3056000000000001
aa(lp355
g125
(S'\x07\xdc\x05\x08'
tRp356
aF1.3056000000000001
aF1.3064
aF1.2982
aF1.2999000000000001
aasg180
g125
(S'\x07\xb3\x01\x01'
tRp357
sg182
S''
sg183
S'EURUSD'
p358
sg185
S'Stooq'
p359
sg187
(lp360
sg189
S'forex'
p361
sg191
g125
(S'\x07\xb3\x01\x01'
tRp362
sbag117
(g118
g119
NtRp363
(dp364
g122
(lp365
sg124
g308
sg127
(lp366
sg129
S''
sg130
(lp367
sg132
g125
(S'\x07\xb3\x01\x01'
tRp368
sg134
(lp369
(lp370
g125
(S'\x07\xdc\x04\t'
tRp371
=======
aasg175
g124
(S'\x07\xb3\x01\x01'
tRp340
sg177
S''
sg178
S'EURUSD'
p341
sg180
S'Stooq'
p342
sg182
(lp343
sg184
S'forex'
p344
sg186
g124
(S'\x07\xb3\x01\x01'
tRp345
sbag116
(g117
g118
NtRp346
(dp347
g121
(lp348
sg123
g295
sg126
(lp349
sg128
S''
sg129
(lp350
sg131
g124
(S'\x07\xb3\x01\x01'
tRp351
sg133
(lp352
(lp353
g124
(S'\x07\xdc\x04\t'
tRp354
>>>>>>> efd75ab4e52aa3380d6322dfb287733a3089b0dc
aF2.0299999999999998
aF2.044
aF2.0190000000000001
aF2.0369999999999999
<<<<<<< HEAD
aa(lp372
g125
(S'\x07\xdc\x04\n'
tRp373
=======
aa(lp355
g124
(S'\x07\xdc\x04\n'
tRp356
>>>>>>> efd75ab4e52aa3380d6322dfb287733a3089b0dc
aF2.0470000000000002
aF2.0470000000000002
aF1.9650000000000001
aF1.988
<<<<<<< HEAD
aa(lp374
g125
(S'\x07\xdc\x04\x0b'
tRp375
=======
aa(lp357
g124
(S'\x07\xdc\x04\x0b'
tRp358
>>>>>>> efd75ab4e52aa3380d6322dfb287733a3089b0dc
aF2.0259999999999998
aF2.0459999999999998
aF2.0169999999999999
aF2.028
<<<<<<< HEAD
aa(lp376
g125
(S'\x07\xdc\x04\x0c'
tRp377
=======
aa(lp359
g124
(S'\x07\xdc\x04\x0c'
tRp360
>>>>>>> efd75ab4e52aa3380d6322dfb287733a3089b0dc
aF2.0369999999999999
aF2.0630000000000002
aF2.012
aF2.0489999999999999
<<<<<<< HEAD
aa(lp378
g125
(S'\x07\xdc\x04\r'
tRp379
=======
aa(lp361
g124
(S'\x07\xdc\x04\r'
tRp362
>>>>>>> efd75ab4e52aa3380d6322dfb287733a3089b0dc
aF2.0139999999999998
aF2.0259999999999998
aF1.9810000000000001
aF1.998
<<<<<<< HEAD
aa(lp380
g125
(S'\x07\xdc\x04\x10'
tRp381
=======
aa(lp363
g124
(S'\x07\xdc\x04\x10'
tRp364
>>>>>>> efd75ab4e52aa3380d6322dfb287733a3089b0dc
aF1.97
aF1.998
aF1.946
aF1.974
<<<<<<< HEAD
aa(lp382
g125
(S'\x07\xdc\x04\x11'
tRp383
=======
aa(lp365
g124
(S'\x07\xdc\x04\x11'
tRp366
>>>>>>> efd75ab4e52aa3380d6322dfb287733a3089b0dc
aF2.0019999999999998
aF2.0139999999999998
aF1.9910000000000001
aF2.0089999999999999
<<<<<<< HEAD
aa(lp384
g125
(S'\x07\xdc\x04\x12'
tRp385
=======
aa(lp367
g124
(S'\x07\xdc\x04\x12'
tRp368
>>>>>>> efd75ab4e52aa3380d6322dfb287733a3089b0dc
aF1.988
aF1.9910000000000001
aF1.972
aF1.982
<<<<<<< HEAD
aa(lp386
g125
(S'\x07\xdc\x04\x13'
tRp387
=======
aa(lp369
g124
(S'\x07\xdc\x04\x13'
tRp370
>>>>>>> efd75ab4e52aa3380d6322dfb287733a3089b0dc
aF1.9770000000000001
aF1.9790000000000001
aF1.9490000000000001
aF1.952
<<<<<<< HEAD
aa(lp388
g125
(S'\x07\xdc\x04\x14'
tRp389
=======
aa(lp371
g124
(S'\x07\xdc\x04\x14'
tRp372
>>>>>>> efd75ab4e52aa3380d6322dfb287733a3089b0dc
aF1.9950000000000001
aF1.9950000000000001
aF1.9630000000000001
aF1.97
<<<<<<< HEAD
aa(lp390
g125
(S'\x07\xdc\x04\x17'
tRp391
=======
aa(lp373
g124
(S'\x07\xdc\x04\x17'
tRp374
>>>>>>> efd75ab4e52aa3380d6322dfb287733a3089b0dc
aF1.9199999999999999
aF1.9399999999999999
aF1.9099999999999999
aF1.9299999999999999
<<<<<<< HEAD
aa(lp392
g125
(S'\x07\xdc\x04\x18'
tRp393
=======
aa(lp375
g124
(S'\x07\xdc\x04\x18'
tRp376
>>>>>>> efd75ab4e52aa3380d6322dfb287733a3089b0dc
aF1.954
aF1.958
aF1.9370000000000001
aF1.952
<<<<<<< HEAD
aa(lp394
g125
(S'\x07\xdc\x04\x19'
tRp395
=======
aa(lp377
g124
(S'\x07\xdc\x04\x19'
tRp378
>>>>>>> efd75ab4e52aa3380d6322dfb287733a3089b0dc
aF1.988
aF2.0350000000000001
aF1.97
aF1.984
<<<<<<< HEAD
aa(lp396
g125
(S'\x07\xdc\x04\x1a'
tRp397
=======
aa(lp379
g124
(S'\x07\xdc\x04\x1a'
tRp380
>>>>>>> efd75ab4e52aa3380d6322dfb287733a3089b0dc
aF1.954
aF1.968
aF1.9299999999999999
aF1.9590000000000001
<<<<<<< HEAD
aa(lp398
g125
(S'\x07\xdc\x04\x1b'
tRp399
=======
aa(lp381
g124
(S'\x07\xdc\x04\x1b'
tRp382
>>>>>>> efd75ab4e52aa3380d6322dfb287733a3089b0dc
aF1.9510000000000001
aF1.958
aF1.9259999999999999
aF1.9330000000000001
<<<<<<< HEAD
aa(lp400
g125
(S'\x07\xdc\x04\x1e'
tRp401
=======
aa(lp383
g124
(S'\x07\xdc\x04\x1e'
tRp384
>>>>>>> efd75ab4e52aa3380d6322dfb287733a3089b0dc
aF1.919
aF1.9239999999999999
aF1.907
aF1.915
<<<<<<< HEAD
aa(lp402
g125
(S'\x07\xdc\x05\x01'
tRp403
=======
aa(lp385
g124
(S'\x07\xdc\x05\x01'
tRp386
>>>>>>> efd75ab4e52aa3380d6322dfb287733a3089b0dc
aF1.919
aF1.9610000000000001
aF1.8999999999999999
aF1.956
<<<<<<< HEAD
aa(lp404
g125
(S'\x07\xdc\x05\x02'
tRp405
=======
aa(lp387
g124
(S'\x07\xdc\x05\x02'
tRp388
>>>>>>> efd75ab4e52aa3380d6322dfb287733a3089b0dc
aF1.9099999999999999
aF1.9379999999999999
aF1.8999999999999999
aF1.9219999999999999
<<<<<<< HEAD
aa(lp406
g125
(S'\x07\xdc\x05\x03'
tRp407
=======
aa(lp389
g124
(S'\x07\xdc\x05\x03'
tRp390
>>>>>>> efd75ab4e52aa3380d6322dfb287733a3089b0dc
aF1.9239999999999999
aF1.956
aF1.915
aF1.9239999999999999
<<<<<<< HEAD
aa(lp408
g125
(S'\x07\xdc\x05\x04'
tRp409
=======
aa(lp391
g124
(S'\x07\xdc\x05\x04'
tRp392
>>>>>>> efd75ab4e52aa3380d6322dfb287733a3089b0dc
aF1.9359999999999999
aF1.954
aF1.873
aF1.8799999999999999
<<<<<<< HEAD
aa(lp410
g125
(S'\x07\xdc\x05\x07'
tRp411
aF1.873
aF1.8819999999999999
aF1.8600000000000001
aF1.877
aa(lp412
g125
(S'\x07\xdc\x05\x08'
tRp413
aF1.8540000000000001
aF1.861
aF1.8160000000000001
aF1.837
aasg180
g125
(S'\x07\xb3\x01\x01'
tRp414
sg182
S''
sg183
S'10USY.B'
p415
sg185
g359
sg187
(lp416
sg189
S'bond'
p417
sg191
g125
(S'\x07\xb3\x01\x01'
tRp418
sbag117
(g118
g119
NtRp419
(dp420
g122
(lp421
sg124
g308
sg127
(lp422
sg129
S''
sg130
(lp423
sg132
g125
(S'\x07\xb3\x01\x01'
tRp424
sg134
(lp425
(lp426
g125
(S'\x07\xdc\x04\t'
tRp427
aF1643.3099999999999
aF1648.8800000000001
aF1635.6400000000001
aF1640.4200000000001
aa(lp428
g125
(S'\x07\xdc\x04\n'
tRp429
aF1641.3399999999999
aF1663.3
aF1632.04
aF1659.5699999999999
aa(lp430
g125
(S'\x07\xdc\x04\x0b'
tRp431
aF1659.45
aF1662.6300000000001
aF1653.27
aF1659.3900000000001
aa(lp432
g125
(S'\x07\xdc\x04\x0c'
tRp433
aF1659.24
aF1680.23
aF1650.76
aF1675.0699999999999
aa(lp434
g125
(S'\x07\xdc\x04\r'
tRp435
aF1675.3699999999999
aF1678.01
aF1649.6099999999999
aF1658.4100000000001
aa(lp436
g125
(S'\x07\xdc\x04\x10'
tRp437
aF1655.9300000000001
aF1657.8399999999999
aF1641.47
aF1652.95
aa(lp438
g125
(S'\x07\xdc\x04\x11'
tRp439
aF1652.6900000000001
aF1657.51
aF1634.6700000000001
aF1650.1700000000001
aa(lp440
g125
(S'\x07\xdc\x04\x12'
tRp441
aF1650.21
aF1654.4000000000001
aF1637.99
aF1642.1700000000001
aa(lp442
g125
(S'\x07\xdc\x04\x13'
tRp443
aF1642
aF1653.97
aF1631.48
aF1642.76
aa(lp444
g125
(S'\x07\xdc\x04\x14'
tRp445
aF1642.6800000000001
aF1647.27
aF1638.71
aF1642.97
aa(lp446
g125
(S'\x07\xdc\x04\x17'
tRp447
aF1642.1500000000001
aF1643.3900000000001
aF1623.5799999999999
aF1638.4300000000001
aa(lp448
g125
(S'\x07\xdc\x04\x18'
tRp449
aF1638.6700000000001
aF1649.21
aF1634.1500000000001
aF1641.5799999999999
aa(lp450
g125
(S'\x07\xdc\x04\x19'
tRp451
aF1640.9300000000001
aF1646.3900000000001
aF1625.1199999999999
aF1644.1300000000001
aa(lp452
g125
(S'\x07\xdc\x04\x1a'
tRp453
aF1644.3399999999999
aF1660.8900000000001
aF1641.7
aF1654.9000000000001
aa(lp454
g125
(S'\x07\xdc\x04\x1b'
tRp455
aF1655.5
aF1666.5999999999999
aF1650.5
aF1662.3
aa(lp456
g125
(S'\x07\xdc\x04\x1e'
tRp457
aF1663.7
aF1665.8
aF1647.5999999999999
aF1663.7
aa(lp458
g125
(S'\x07\xdc\x05\x01'
tRp459
aF1665.2
aF1670.8
aF1657.3
aF1660.4000000000001
aa(lp460
g125
(S'\x07\xdc\x05\x02'
tRp461
aF1662.2
aF1662.5999999999999
aF1646.9000000000001
aF1651.5999999999999
aa(lp462
g125
(S'\x07\xdc\x05\x03'
tRp463
aF1651.9000000000001
aF1652.9000000000001
aF1631.3
aF1635.5
aa(lp464
g125
(S'\x07\xdc\x05\x04'
tRp465
aF1635.5999999999999
aF1646.9000000000001
aF1626.9000000000001
aF1641.8
aa(lp466
g125
(S'\x07\xdc\x05\x07'
tRp467
aF1638.3
aF1642.0999999999999
aF1633.2
aF1636.3
aa(lp468
g125
(S'\x07\xdc\x05\x08'
tRp469
aF1638.1700000000001
aF1638.53
aF1595.1400000000001
aF1605.04
aasg180
g125
(S'\x07\xb3\x01\x01'
tRp470
sg182
S''
sg183
S'XAUUSD'
p471
sg185
g359
sg187
(lp472
sg189
S'resource'
p473
sg191
g125
(S'\x07\xb3\x01\x01'
tRp474
sbag117
(g118
g119
NtRp475
(dp476
g122
(lp477
sg124
g308
sg127
(lp478
sg129
S''
sg130
(lp479
sg132
g125
(S'\x07\xb3\x01\x01'
tRp480
sg134
(lp481
(lp482
g125
(S'\x07\xdc\x04\t'
tRp483
aF102.45
aF102.58
aF100.86
aF102.16
aa(lp484
g125
(S'\x07\xdc\x04\n'
tRp485
aF102.28
aF102.94
aF100.7
aF100.94
aa(lp486
g125
(S'\x07\xdc\x04\x0b'
tRp487
aF100.95
aF103.12
aF100.86
aF102.56999999999999
aa(lp488
g125
(S'\x07\xdc\x04\x0c'
tRp489
aF102.55
aF104.22
aF102.40000000000001
aF103.64
aa(lp490
g125
(S'\x07\xdc\x04\r'
tRp491
aF103.67
aF103.89
aF102.61
aF102.86
aa(lp492
g125
(S'\x07\xdc\x04\x10'
tRp493
aF103.34999999999999
aF103.83
aF102.3
aF103.59
aa(lp494
g125
(S'\x07\xdc\x04\x11'
tRp495
aF103.58
aF105.45999999999999
aF103.11
aF104.7
aa(lp496
g125
(S'\x07\xdc\x04\x12'
tRp497
aF104.68000000000001
aF104.94
aF102.66
aF103.22
aa(lp498
g125
(S'\x07\xdc\x04\x13'
tRp499
aF103.2
aF103.66
aF102.14
aF103.06999999999999
aa(lp500
g125
(S'\x07\xdc\x04\x14'
tRp501
aF103.03
aF104.67
aF102.86
aF104.08
aa(lp502
g125
(S'\x07\xdc\x04\x17'
tRp503
aF103.8
aF103.91
aF101.84
aF103.08
aa(lp504
g125
(S'\x07\xdc\x04\x18'
tRp505
aF103.06
aF104.09
aF102.8
aF103.8
aa(lp506
g125
(S'\x07\xdc\x04\x19'
tRp507
aF103.77
aF104.55
aF103.11
aF103.95999999999999
aa(lp508
g125
(S'\x07\xdc\x04\x1a'
tRp509
aF103.97
aF104.91
aF103.86
aF104.16
aa(lp510
g125
(S'\x07\xdc\x04\x1b'
tRp511
aF104.05
aF104.98
aF103.75
aF104.78
aa(lp512
g125
(S'\x07\xdc\x04\x1e'
tRp513
aF104.89
aF105.11
aF103.89
aF104.89
aa(lp514
g125
(S'\x07\xdc\x05\x01'
tRp515
aF104.92
aF106.42
aF104.41
aF105.98999999999999
aa(lp516
g125
(S'\x07\xdc\x05\x02'
tRp517
aF106.01000000000001
aF106.05
aF104.97
aF105.39
aa(lp518
g125
(S'\x07\xdc\x05\x03'
tRp519
aF105.37
aF105.42
aF102.39
aF102.45
aa(lp520
g125
(S'\x07\xdc\x05\x04'
tRp521
aF102.65000000000001
aF102.72
aF97.530000000000001
aF98.549999999999997
aa(lp522
g125
(S'\x07\xdc\x05\x07'
tRp523
aF98.239999999999995
aF98.239999999999995
aF95.420000000000002
aF97.989999999999995
aa(lp524
g125
(S'\x07\xdc\x05\x08'
tRp525
aF97.959999999999994
aF98.120000000000005
aF95.549999999999997
aF97.390000000000001
aasg180
g125
(S'\x07\xb3\x01\x01'
tRp526
sg182
S''
sg183
S'CL.F'
p527
sg185
g359
sg187
(lp528
sg189
g473
sg191
g125
(S'\x07\xb3\x01\x01'
tRp529
=======
aasg175
g124
(S'\x07\xb3\x01\x01'
tRp393
sg177
S''
sg178
S'10USY.B'
p394
sg180
g342
sg182
(lp395
sg184
S'bond'
p396
sg186
g124
(S'\x07\xb3\x01\x01'
tRp397
>>>>>>> efd75ab4e52aa3380d6322dfb287733a3089b0dc
sbaa.