(lp1
(lp2
(lp3
S'Dow'
p4
aS'12,820.60'
p5
aS'-34.44'
p6
aS'-0.27%'
p7
aa(lp8
S'Nasdaq'
p9
aS'2,933.82'
p10
aS'+0.18'
p11
aS'+0.01%'
p12
aa(lp13
S'S&P 500'
p14
aS'1,353.39'
p15
aS'-4.60'
p16
aS'-0.34%'
p17
aa(lp18
S'EUR/USD'
p19
aS'1.2921'
p20
aS'-0.00'
p21
aS'-0.08%'
p22
aa(lp23
S'10-Year'
p24
aS'1.84'
p25
aS'-0.04'
p26
aS'-0.78%'
p27
aa(lp28
S'Gold'
p29
aS'1,579.90'
p30
aS'-15.60'
p31
aS'-0.98%'
p32
aa(lp33
S'Oil'
p34
aS'95.57'
p35
aS'-1.51'
p36
aS'-1.56%'
p37
aaa(lp38
(lp39
S'BAC'
p40
aS'7.55'
p41
aS'-0.15'
p42
aS'-1.95%'
p43
aa(lp44
S'JPM'
p45
aS'36.96'
p46
aS'-3.78'
p47
aS'-9.28%'
p48
aa(lp49
S'CHK'
p50
aS'14.81'
p51
aS'-2.37'
p52
aS'-13.80%'
p53
aa(lp54
S'ARNA'
p55
aS'6.36'
p56
aS'2.70'
p57
aS'73.77%'
p58
aa(lp59
S'CSCO'
p60
aS'16.50'
p61
aS'-0.31'
p62
aS'-1.81%'
p63
aaa(lp64
(lp65
S'WLDN'
p66
aS'2.56'
p67
aS'-0.80'
p68
aS'-23.81%'
p69
aa(lp70
S'ADY'
p71
aS'6.72'
p72
aS'-2.02'
p73
aS'-23.11%'
p74
aa(lp75
S'AMOT'
p76
aS'6.25'
p77
aS'-1.75'
p78
aS'-21.88%'
p79
aa(lp80
S'ASYS'
p81
aS'5.40'
p82
aS'-1.40'
p83
aS'-20.59%'
p84
aa(lp85
S'KEM'
p86
aS'6.06'
p87
aS'-1.46'
p88
aS'-19.41%'
p89
aaa(lp90
(lp91
S'BOIL'
p92
aS'43.23'
p93
aS'34.75'
p94
aS'409.84%'
p95
aa(lp96
S'SRTY'
p97
aS'49.59'
p98
aS'39.77'
p99
aS'404.99%'
p100
aa(lp101
S'SPXU'
p102
aS'49.99'
p103
aS'40.08'
p104
aS'404.44%'
p105
aa(lp106
S'ZSL'
p107
aS'64.41'
p108
aS'51.64'
p109
aS'404.39%'
p110
aa(lp111
S'TWQ'
p112
aS'54.10'
p113
aS'43.10'
p114
aS'391.76%'
p115
aaa(lp116
ccopy_reg
_reconstructor
p117
(cDataParserModule.dataParser
FinancialObject
p118
c__builtin__
object
p119
NtRp120
(dp121
S'valuesMonthly'
p122
(lp123
sS'lastUpdate'
p124
cdatetime
date
p125
(S'\x07\xdc\x05\x0c'
tRp126
sS'currentValue'
p127
(lp128
sS'name'
p129
S''
sS'valuesWeekly'
p130
(lp131
sS'weeklyUpdate'
p132
g125
(S'\x07\xb3\x01\x01'
tRp133
sS'valuesDaily'
p134
(lp135
(lp136
g125
(S'\x07\xdc\x04\x0c'
tRp137
aF12806.450000000001
aF13018.82
aF12784.92
aF12986.58
aL3618280000L
aa(lp138
g125
(S'\x07\xdc\x04\r'
tRp139
aF12986.200000000001
aF12992.629999999999
aF12826.049999999999
aF12849.59
aL3631160000L
aa(lp140
g125
(S'\x07\xdc\x04\x10'
tRp141
aF12850.879999999999
aF13032.59
aF12840.51
aF12921.41
aL3574780000L
aa(lp142
g125
(S'\x07\xdc\x04\x11'
tRp143
aF12921.870000000001
aF13168.33
aF12921.870000000001
aF13115.540000000001
aL3456200000L
aa(lp144
g125
(S'\x07\xdc\x04\x12'
tRp145
aF13114.559999999999
aF13131.700000000001
aF12977.16
aF13032.75
aL3463140000L
aa(lp146
g125
(S'\x07\xdc\x04\x13'
tRp147
aF13028.73
aF13115.049999999999
aF12874.299999999999
aF12964.1
aL4180020000L
aa(lp148
g125
(S'\x07\xdc\x04\x14'
tRp149
aF12964.48
aF13127.99
aF12961
aF13029.26
aL3833320000L
aa(lp150
g125
(S'\x07\xdc\x04\x17'
tRp151
aF13028.049999999999
aF13028.049999999999
aF12810.24
aF12927.17
aL3654860000L
aa(lp152
g125
(S'\x07\xdc\x04\x18'
tRp153
aF12927.77
aF13088.75
aF12902.34
aF13001.559999999999
aL3617100000L
aa(lp154
g125
(S'\x07\xdc\x04\x19'
tRp155
aF12997.540000000001
aF13169.92
aF12972.65
aF13090.719999999999
aL3998430000L
aa(lp156
g125
(S'\x07\xdc\x04\x1a'
tRp157
aF13090.040000000001
aF13243.83
aF13044.700000000001
aF13204.620000000001
aL4034700000L
aa(lp158
g125
(S'\x07\xdc\x04\x1b'
tRp159
aF13204.700000000001
aF13311.870000000001
aF13152.82
aF13228.309999999999
aL3645830000L
aa(lp160
g125
(S'\x07\xdc\x04\x1e'
tRp161
aF13228.389999999999
aF13271.9
aF13132.799999999999
aF13213.629999999999
aL3574010000L
aa(lp162
g125
(S'\x07\xdc\x05\x01'
tRp163
aF13214.16
aF13359.620000000001
aF13152.17
aF13279.32
aL3807950000L
aa(lp164
g125
(S'\x07\xdc\x05\x02'
tRp165
aF13277.959999999999
aF13305.959999999999
aF13164.059999999999
aF13268.57
aL3803860000L
aa(lp166
g125
(S'\x07\xdc\x05\x03'
tRp167
aF13267.360000000001
aF13314.59
aF13155.58
aF13206.59
aL4004910000L
aa(lp168
g125
(S'\x07\xdc\x05\x04'
tRp169
aF13204.620000000001
aF13204.620000000001
aF13005.200000000001
aF13038.27
aL3975140000L
aa(lp170
g125
(S'\x07\xdc\x05\x07'
tRp171
aF13036
aF13080.690000000001
aF12931.629999999999
aF13008.530000000001
aL3559390000L
aa(lp172
g125
(S'\x07\xdc\x05\x08'
tRp173
aF13000.73
aF13001.190000000001
aF12789.35
aF12932.09
aL4261670000L
aa(lp174
g125
(S'\x07\xdc\x05\t'
tRp175
aF12921.66
aF12947.49
aF12728.690000000001
aF12835.059999999999
aL4288540000L
aa(lp176
g125
(S'\x07\xdc\x05\n'
tRp177
aF12831.58
aF12972.92
aF12804.75
aF12855.040000000001
aL3727990000L
aa(lp178
g125
(S'\x07\xdc\x05\x0b'
tRp179
aF12851.790000000001
aF12933.07
aF12740.99
aF12820.6
aL3869070000L
aasS'dailyUpdate'
p180
g125
(S'\x07\xdc\x05\x0c'
tRp181
sS'detail'
p182
S''
sS'abbreviation'
p183
S'^DJI'
p184
sS'dataSource'
p185
S'Yahoo'
p186
sS'previousValues'
p187
(lp188
sS'financialType'
p189
S'index'
p190
sS'monthlyUpdate'
p191
g125
(S'\x07\xb3\x01\x01'
tRp192
sbag117
(g118
g119
NtRp193
(dp194
g122
(lp195
sg124
g125
(S'\x07\xdc\x05\x0c'
tRp196
sg127
(lp197
sg129
S''
sg130
(lp198
sg132
g125
(S'\x07\xb3\x01\x01'
tRp199
sg134
(lp200
(lp201
g125
(S'\x07\xdc\x04\x0c'
tRp202
aF3023.1100000000001
aF3059.2600000000002
aF3020.4400000000001
aF3055.5500000000002
aI1480340000
aa(lp203
g125
(S'\x07\xdc\x04\r'
tRp204
aF3045.0799999999999
aF3045.4200000000001
aF3010.77
aF3011.3299999999999
aI1483850000
aa(lp205
g125
(S'\x07\xdc\x04\x10'
tRp206
aF3027.5700000000002
aF3027.5700000000002
aF2975.8699999999999
aF2988.4000000000001
aI1594320000
aa(lp207
g125
(S'\x07\xdc\x04\x11'
tRp208
aF3002.02
aF3052.7600000000002
aF2999.4899999999998
aF3042.8200000000002
aI1555070000
aa(lp209
g125
(S'\x07\xdc\x04\x12'
tRp210
aF3031.8200000000002
aF3045.04
aF3023.9099999999999
aF3031.4499999999998
aI1599470000
aa(lp211
g125
(S'\x07\xdc\x04\x13'
tRp212
aF3028.1999999999998
aF3058.7199999999998
aF2994.9400000000001
aF3007.5599999999999
aI1991120000
aa(lp213
g125
(S'\x07\xdc\x04\x14'
tRp214
aF3023.73
aF3034.6900000000001
aF2999.0100000000002
aF3000.4499999999998
aI1935880000
aa(lp215
g125
(S'\x07\xdc\x04\x17'
tRp216
aF2969
aF2973.3800000000001
aF2946.04
aF2970.4499999999998
aI1767360000
aa(lp217
g125
(S'\x07\xdc\x04\x18'
tRp218
aF2967.3699999999999
aF2979.0799999999999
aF2950.3800000000001
aF2961.5999999999999
aI1690840000
aa(lp219
g125
(S'\x07\xdc\x04\x19'
tRp220
aF3013.6500000000001
aF3031.4099999999999
aF3010.5700000000002
aF3029.6300000000001
aI1721330000
aa(lp221
g125
(S'\x07\xdc\x04\x1a'
tRp222
aF3029.6199999999999
aF3056.77
aF3027.79
aF3050.6100000000001
aI1763510000
aa(lp223
g125
(S'\x07\xdc\x04\x1b'
tRp224
aF3060.3400000000001
aF3076.4400000000001
aF3043.3000000000002
aF3069.1999999999998
aI1777750000
aa(lp225
g125
(S'\x07\xdc\x04\x1e'
tRp226
aF3060.0599999999999
aF3063.6599999999999
aF3043.25
aF3046.3600000000001
aI1633170000
aa(lp227
g125
(S'\x07\xdc\x05\x01'
tRp228
aF3044.79
aF3085.4000000000001
aF3041.6199999999999
aF3050.4400000000001
aI1854230000
aa(lp229
g125
(S'\x07\xdc\x05\x02'
tRp230
aF3035.0700000000002
aF3061.4699999999998
aF3028.9400000000001
aF3059.8499999999999
aI1825190000
aa(lp231
g125
(S'\x07\xdc\x05\x03'
tRp232
aF3061.1300000000001
aF3061.3800000000001
aF3016.1999999999998
aF3024.3000000000002
aI1869130000
aa(lp233
g125
(S'\x07\xdc\x05\x04'
tRp234
aF3001.1500000000001
aF3001.48
aF2956.3400000000001
aF2956.3400000000001
aI1944010000
aa(lp235
g125
(S'\x07\xdc\x05\x07'
tRp236
aF2940.4099999999999
aF2970.1999999999998
aF2939.21
aF2957.7600000000002
aI1740430000
aa(lp237
g125
(S'\x07\xdc\x05\x08'
tRp238
aF2939.3600000000001
aF2952.6500000000001
aF2900.0599999999999
aF2946.27
aL2175840000L
aa(lp239
g125
(S'\x07\xdc\x05\t'
tRp240
aF2912.4099999999999
aF2948.77
aF2900.1799999999998
aF2934.71
aI2047090000
aa(lp241
g125
(S'\x07\xdc\x05\n'
tRp242
aF2950.21
aF2950.21
aF2923.1399999999999
aF2933.6399999999999
aI2004150000
aa(lp243
g125
(S'\x07\xdc\x05\x0b'
tRp244
aF2919.3499999999999
aF2960.3800000000001
aF2918.7399999999998
aF2933.8200000000002
aI1735380000
aasg180
g125
(S'\x07\xdc\x05\x0c'
tRp245
sg182
S''
sg183
S'^IXIC'
p246
sg185
g186
sg187
(lp247
sg189
g190
sg191
g125
(S'\x07\xb3\x01\x01'
tRp248
sbag117
(g118
g119
NtRp249
(dp250
g122
(lp251
sg124
g125
(S'\x07\xdc\x05\x0c'
tRp252
sg127
(lp253
sg129
S''
sg130
(lp254
sg132
g125
(S'\x07\xb3\x01\x01'
tRp255
sg134
(lp256
(lp257
g125
(S'\x07\xdc\x04\x0c'
tRp258
aF1368.77
aF1388.1300000000001
aF1368.77
aF1387.5699999999999
aL3618280000L
aa(lp259
g125
(S'\x07\xdc\x04\r'
tRp260
aF1387.6099999999999
aF1387.6099999999999
aF1369.8499999999999
aF1370.26
aL3631160000L
aa(lp261
g125
(S'\x07\xdc\x04\x10'
tRp262
aF1370.27
aF1379.6600000000001
aF1365.3800000000001
aF1369.5699999999999
aL3574780000L
aa(lp263
g125
(S'\x07\xdc\x04\x11'
tRp264
aF1369.5699999999999
aF1392.76
aF1369.5699999999999
aF1390.78
aL3456200000L
aa(lp265
g125
(S'\x07\xdc\x04\x12'
tRp266
aF1390.78
aF1390.78
aF1383.29
aF1385.1400000000001
aL3463140000L
aa(lp267
g125
(S'\x07\xdc\x04\x13'
tRp268
aF1385.0799999999999
aF1390.46
aF1370.3
aF1376.9200000000001
aL4180020000L
aa(lp269
g125
(S'\x07\xdc\x04\x14'
tRp270
aF1376.96
aF1387.4000000000001
aF1376.96
aF1378.53
aL3833320000L
aa(lp271
g125
(S'\x07\xdc\x04\x17'
tRp272
aF1378.53
aF1378.53
aF1358.79
aF1366.9400000000001
aL3654860000L
aa(lp273
g125
(S'\x07\xdc\x04\x18'
tRp274
aF1366.97
aF1375.5699999999999
aF1366.8199999999999
aF1371.97
aL3617100000L
aa(lp275
g125
(S'\x07\xdc\x04\x19'
tRp276
aF1372.1099999999999
aF1391.3699999999999
aF1372.1099999999999
aF1390.6900000000001
aL3998430000L
aa(lp277
g125
(S'\x07\xdc\x04\x1a'
tRp278
aF1390.6400000000001
aF1402.0899999999999
aF1387.28
aF1399.98
aL4034700000L
aa(lp279
g125
(S'\x07\xdc\x04\x1b'
tRp280
aF1400.1900000000001
aF1406.6400000000001
aF1397.3099999999999
aF1403.3599999999999
aL3645830000L
aa(lp281
g125
(S'\x07\xdc\x04\x1e'
tRp282
aF1403.26
aF1403.26
aF1394
aF1397.9100000000001
aL3574010000L
aa(lp283
g125
(S'\x07\xdc\x05\x01'
tRp284
aF1397.8599999999999
aF1415.3199999999999
aF1395.73
aF1405.8199999999999
aL3807950000L
aa(lp285
g125
(S'\x07\xdc\x05\x02'
tRp286
aF1405.5
aF1405.5
aF1393.9200000000001
aF1402.3099999999999
aL3803860000L
aa(lp287
g125
(S'\x07\xdc\x05\x03'
tRp288
aF1402.3199999999999
aF1403.0699999999999
aF1388.71
aF1391.5699999999999
aL4004910000L
aa(lp289
g125
(S'\x07\xdc\x05\x04'
tRp290
aF1391.51
aF1391.51
aF1367.96
aF1369.0999999999999
aL3975140000L
aa(lp291
g125
(S'\x07\xdc\x05\x07'
tRp292
aF1368.79
aF1373.9100000000001
aF1363.9400000000001
aF1369.5799999999999
aL3559390000L
aa(lp293
g125
(S'\x07\xdc\x05\x08'
tRp294
aF1369.1600000000001
aF1369.1600000000001
aF1347.75
aF1363.72
aL4261670000L
aa(lp295
g125
(S'\x07\xdc\x05\t'
tRp296
aF1363.2
aF1363.73
aF1343.1300000000001
aF1354.5799999999999
aL4288540000L
aa(lp297
g125
(S'\x07\xdc\x05\n'
tRp298
aF1354.5799999999999
aF1365.8800000000001
aF1354.5799999999999
aF1357.99
aL3727990000L
aa(lp299
g125
(S'\x07\xdc\x05\x0b'
tRp300
aF1358.1099999999999
aF1365.6600000000001
aF1348.8900000000001
aF1353.3900000000001
aL3869070000L
aasg180
g125
(S'\x07\xdc\x05\x0c'
tRp301
sg182
S''
sg183
S'^GSPC'
p302
sg185
g186
sg187
(lp303
sg189
g190
sg191
g125
(S'\x07\xb3\x01\x01'
tRp304
sbag117
(g118
g119
NtRp305
(dp306
g122
(lp307
sg124
g125
(S'\x07\xb3\x01\x01'
tRp308
sg127
(lp309
sg129
S''
sg130
(lp310
sg132
g125
(S'\x07\xb3\x01\x01'
tRp311
sg134
(lp312
(lp313
g125
(S'\x07\xdc\x04\x0c'
tRp314
aF1.3109999999999999
aF1.3211999999999999
aF1.3102
aF1.3187
aa(lp315
g125
(S'\x07\xdc\x04\r'
tRp316
aF1.3188
aF1.3200000000000001
aF1.3069999999999999
aF1.3077000000000001
aa(lp317
g125
(S'\x07\xdc\x04\x10'
tRp318
aF1.3069999999999999
aF1.3147
aF1.2995000000000001
aF1.3131999999999999
aa(lp319
g125
(S'\x07\xdc\x04\x11'
tRp320
aF1.3131999999999999
aF1.3170999999999999
aF1.3089999999999999
aF1.3128
aa(lp321
g125
(S'\x07\xdc\x04\x12'
tRp322
aF1.3127
aF1.3140000000000001
aF1.3058000000000001
aF1.3119000000000001
aa(lp323
g125
(S'\x07\xdc\x04\x13'
tRp324
aF1.3119000000000001
aF1.3165
aF1.3069999999999999
aF1.3134999999999999
aa(lp325
g125
(S'\x07\xdc\x04\x14'
tRp326
aF1.3134999999999999
aF1.3227
aF1.3129
aF1.3219000000000001
aa(lp327
g125
(S'\x07\xdc\x04\x17'
tRp328
aF1.3190999999999999
aF1.321
aF1.3105
aF1.3156000000000001
aa(lp329
g125
(S'\x07\xdc\x04\x18'
tRp330
aF1.3158000000000001
aF1.3217000000000001
aF1.3145
aF1.3194999999999999
aa(lp331
g125
(S'\x07\xdc\x04\x19'
tRp332
aF1.3194999999999999
aF1.3236000000000001
aF1.3173999999999999
aF1.3223
aa(lp333
g125
(S'\x07\xdc\x04\x1a'
tRp334
aF1.3222
aF1.3262
aF1.3181
aF1.3190999999999999
aa(lp335
g125
(S'\x07\xdc\x04\x1b'
tRp336
aF1.3188
aF1.3267
aF1.3159000000000001
aF1.3255999999999999
aa(lp337
g125
(S'\x07\xdc\x04\x1e'
tRp338
aF1.3240000000000001
aF1.3264
aF1.321
aF1.3242
aa(lp339
g125
(S'\x07\xdc\x05\x01'
tRp340
aF1.3241000000000001
aF1.3279000000000001
aF1.3205
aF1.3238000000000001
aa(lp341
g125
(S'\x07\xdc\x05\x02'
tRp342
aF1.3240000000000001
aF1.3241000000000001
aF1.3125
aF1.3153999999999999
aa(lp343
g125
(S'\x07\xdc\x05\x03'
tRp344
aF1.3154999999999999
aF1.3179000000000001
aF1.3095000000000001
aF1.3151999999999999
aa(lp345
g125
(S'\x07\xdc\x05\x04'
tRp346
aF1.3151999999999999
aF1.3178000000000001
aF1.3080000000000001
aF1.3084
aa(lp347
g125
(S'\x07\xdc\x05\x07'
tRp348
aF1.3022
aF1.3064
aF1.2955000000000001
aF1.3056000000000001
aa(lp349
g125
(S'\x07\xdc\x05\x08'
tRp350
aF1.3056000000000001
aF1.3064
aF1.2982
aF1.2999000000000001
aa(lp351
g125
(S'\x07\xdc\x05\t'
tRp352
aF1.2999000000000001
aF1.3005
aF1.2909999999999999
aF1.2934000000000001
aa(lp353
g125
(S'\x07\xdc\x05\n'
tRp354
aF1.2934000000000001
aF1.2977000000000001
aF1.2924
aF1.2930999999999999
aa(lp355
g125
(S'\x07\xdc\x05\x0b'
tRp356
aF1.2930999999999999
aF1.2955000000000001
aF1.2904
aF1.2916000000000001
aasg180
g125
(S'\x07\xb3\x01\x01'
tRp357
sg182
S''
sg183
S'EURUSD'
p358
sg185
S'Stooq'
p359
sg187
(lp360
sg189
S'forex'
p361
sg191
g125
(S'\x07\xb3\x01\x01'
tRp362
sbag117
(g118
g119
NtRp363
(dp364
g122
(lp365
sg124
g308
sg127
(lp366
sg129
S''
sg130
(lp367
sg132
g125
(S'\x07\xb3\x01\x01'
tRp368
sg134
(lp369
(lp370
g125
(S'\x07\xdc\x04\x0c'
tRp371
aF2.0369999999999999
aF2.0630000000000002
aF2.012
aF2.0489999999999999
aa(lp372
g125
(S'\x07\xdc\x04\r'
tRp373
aF2.0139999999999998
aF2.0259999999999998
aF1.9810000000000001
aF1.998
aa(lp374
g125
(S'\x07\xdc\x04\x10'
tRp375
aF1.97
aF1.998
aF1.946
aF1.974
aa(lp376
g125
(S'\x07\xdc\x04\x11'
tRp377
aF2.0019999999999998
aF2.0139999999999998
aF1.9910000000000001
aF2.0089999999999999
aa(lp378
g125
(S'\x07\xdc\x04\x12'
tRp379
aF1.988
aF1.9910000000000001
aF1.972
aF1.982
aa(lp380
g125
(S'\x07\xdc\x04\x13'
tRp381
aF1.9770000000000001
aF1.9790000000000001
aF1.9490000000000001
aF1.952
aa(lp382
g125
(S'\x07\xdc\x04\x14'
tRp383
aF1.9950000000000001
aF1.9950000000000001
aF1.9630000000000001
aF1.97
aa(lp384
g125
(S'\x07\xdc\x04\x17'
tRp385
aF1.9199999999999999
aF1.9399999999999999
aF1.9099999999999999
aF1.9299999999999999
aa(lp386
g125
(S'\x07\xdc\x04\x18'
tRp387
aF1.954
aF1.958
aF1.9370000000000001
aF1.952
aa(lp388
g125
(S'\x07\xdc\x04\x19'
tRp389
aF1.988
aF2.0350000000000001
aF1.97
aF1.984
aa(lp390
g125
(S'\x07\xdc\x04\x1a'
tRp391
aF1.954
aF1.968
aF1.9299999999999999
aF1.9590000000000001
aa(lp392
g125
(S'\x07\xdc\x04\x1b'
tRp393
aF1.9510000000000001
aF1.958
aF1.9259999999999999
aF1.9330000000000001
aa(lp394
g125
(S'\x07\xdc\x04\x1e'
tRp395
aF1.919
aF1.9239999999999999
aF1.907
aF1.915
aa(lp396
g125
(S'\x07\xdc\x05\x01'
tRp397
aF1.919
aF1.9610000000000001
aF1.8999999999999999
aF1.956
aa(lp398
g125
(S'\x07\xdc\x05\x02'
tRp399
aF1.9099999999999999
aF1.9379999999999999
aF1.8999999999999999
aF1.9219999999999999
aa(lp400
g125
(S'\x07\xdc\x05\x03'
tRp401
aF1.9239999999999999
aF1.956
aF1.915
aF1.9239999999999999
aa(lp402
g125
(S'\x07\xdc\x05\x04'
tRp403
aF1.9359999999999999
aF1.954
aF1.873
aF1.8799999999999999
aa(lp404
g125
(S'\x07\xdc\x05\x07'
tRp405
aF1.873
aF1.8819999999999999
aF1.8600000000000001
aF1.877
aa(lp406
g125
(S'\x07\xdc\x05\x08'
tRp407
aF1.8540000000000001
aF1.861
aF1.8160000000000001
aF1.837
aa(lp408
g125
(S'\x07\xdc\x05\t'
tRp409
aF1.8
aF1.845
aF1.7929999999999999
aF1.835
aa(lp410
g125
(S'\x07\xdc\x05\n'
tRp411
aF1.895
aF1.921
aF1.883
aF1.8839999999999999
aa(lp412
g125
(S'\x07\xdc\x05\x0b'
tRp413
aF1.851
aF1.8620000000000001
aF1.8380000000000001
aF1.841
aasg180
g125
(S'\x07\xb3\x01\x01'
tRp414
sg182
S''
sg183
S'10USY.B'
p415
sg185
g359
sg187
(lp416
sg189
S'bond'
p417
sg191
g125
(S'\x07\xb3\x01\x01'
tRp418
sbag117
(g118
g119
NtRp419
(dp420
g122
(lp421
sg124
g308
sg127
(lp422
sg129
S''
sg130
(lp423
sg132
g125
(S'\x07\xb3\x01\x01'
tRp424
sg134
(lp425
(lp426
g125
(S'\x07\xdc\x04\x0c'
tRp427
aF1659.24
aF1680.23
aF1650.76
aF1675.0699999999999
aa(lp428
g125
(S'\x07\xdc\x04\r'
tRp429
aF1675.3699999999999
aF1678.01
aF1649.6099999999999
aF1658.4100000000001
aa(lp430
g125
(S'\x07\xdc\x04\x10'
tRp431
aF1655.9300000000001
aF1657.8399999999999
aF1641.47
aF1652.95
aa(lp432
g125
(S'\x07\xdc\x04\x11'
tRp433
aF1652.6900000000001
aF1657.51
aF1634.6700000000001
aF1650.1700000000001
aa(lp434
g125
(S'\x07\xdc\x04\x12'
tRp435
aF1650.21
aF1654.4000000000001
aF1637.99
aF1642.1700000000001
aa(lp436
g125
(S'\x07\xdc\x04\x13'
tRp437
aF1642
aF1653.97
aF1631.48
aF1642.76
aa(lp438
g125
(S'\x07\xdc\x04\x14'
tRp439
aF1642.6800000000001
aF1647.27
aF1638.71
aF1642.97
aa(lp440
g125
(S'\x07\xdc\x04\x17'
tRp441
aF1642.1500000000001
aF1643.3900000000001
aF1623.5799999999999
aF1638.4300000000001
aa(lp442
g125
(S'\x07\xdc\x04\x18'
tRp443
aF1638.6700000000001
aF1649.21
aF1634.1500000000001
aF1641.5799999999999
aa(lp444
g125
(S'\x07\xdc\x04\x19'
tRp445
aF1640.9300000000001
aF1646.3900000000001
aF1625.1199999999999
aF1644.1300000000001
aa(lp446
g125
(S'\x07\xdc\x04\x1a'
tRp447
aF1644.3399999999999
aF1660.8900000000001
aF1641.7
aF1654.9000000000001
aa(lp448
g125
(S'\x07\xdc\x04\x1b'
tRp449
aF1655.5
aF1666.5999999999999
aF1650.5
aF1662.3
aa(lp450
g125
(S'\x07\xdc\x04\x1e'
tRp451
aF1663.7
aF1665.8
aF1647.5999999999999
aF1663.7
aa(lp452
g125
(S'\x07\xdc\x05\x01'
tRp453
aF1665.2
aF1670.8
aF1657.3
aF1660.4000000000001
aa(lp454
g125
(S'\x07\xdc\x05\x02'
tRp455
aF1662.2
aF1662.5999999999999
aF1646.9000000000001
aF1651.5999999999999
aa(lp456
g125
(S'\x07\xdc\x05\x03'
tRp457
aF1651.9000000000001
aF1652.9000000000001
aF1631.3
aF1635.5
aa(lp458
g125
(S'\x07\xdc\x05\x04'
tRp459
aF1635.5999999999999
aF1646.9000000000001
aF1626.9000000000001
aF1641.8
aa(lp460
g125
(S'\x07\xdc\x05\x07'
tRp461
aF1638.3
aF1642.0999999999999
aF1633.2
aF1636.3
aa(lp462
g125
(S'\x07\xdc\x05\x08'
tRp463
aF1638.1700000000001
aF1638.53
aF1595.1400000000001
aF1605.3199999999999
aa(lp464
g125
(S'\x07\xdc\x05\t'
tRp465
aF1604.9200000000001
aF1605.0799999999999
aF1579.98
aF1589.5799999999999
aa(lp466
g125
(S'\x07\xdc\x05\n'
tRp467
aF1589.8800000000001
aF1601.3499999999999
aF1585.47
aF1594.3800000000001
aa(lp468
g125
(S'\x07\xdc\x05\x0b'
tRp469
aF1593.9000000000001
aF1594.1099999999999
aF1573.47
aF1578.9300000000001
aasg180
g125
(S'\x07\xb3\x01\x01'
tRp470
sg182
S''
sg183
S'XAUUSD'
p471
sg185
g359
sg187
(lp472
sg189
S'resource'
p473
sg191
g125
(S'\x07\xb3\x01\x01'
tRp474
sbag117
(g118
g119
NtRp475
(dp476
g122
(lp477
sg124
g308
sg127
(lp478
sg129
S''
sg130
(lp479
sg132
g125
(S'\x07\xb3\x01\x01'
tRp480
sg134
(lp481
(lp482
g125
(S'\x07\xdc\x04\x0c'
tRp483
aF102.55
aF104.22
aF102.40000000000001
aF103.64
aa(lp484
g125
(S'\x07\xdc\x04\r'
tRp485
aF103.67
aF103.89
aF102.61
aF102.86
aa(lp486
g125
(S'\x07\xdc\x04\x10'
tRp487
aF103.34999999999999
aF103.83
aF102.3
aF103.59
aa(lp488
g125
(S'\x07\xdc\x04\x11'
tRp489
aF103.58
aF105.45999999999999
aF103.11
aF104.7
aa(lp490
g125
(S'\x07\xdc\x04\x12'
tRp491
aF104.68000000000001
aF104.94
aF102.66
aF103.22
aa(lp492
g125
(S'\x07\xdc\x04\x13'
tRp493
aF103.2
aF103.66
aF102.14
aF103.06999999999999
aa(lp494
g125
(S'\x07\xdc\x04\x14'
tRp495
aF103.03
aF104.67
aF102.86
aF104.08
aa(lp496
g125
(S'\x07\xdc\x04\x17'
tRp497
aF103.8
aF103.91
aF101.84
aF103.08
aa(lp498
g125
(S'\x07\xdc\x04\x18'
tRp499
aF103.06
aF104.09
aF102.8
aF103.8
aa(lp500
g125
(S'\x07\xdc\x04\x19'
tRp501
aF103.77
aF104.55
aF103.11
aF103.95999999999999
aa(lp502
g125
(S'\x07\xdc\x04\x1a'
tRp503
aF103.97
aF104.91
aF103.86
aF104.16
aa(lp504
g125
(S'\x07\xdc\x04\x1b'
tRp505
aF104.05
aF104.98
aF103.75
aF104.78
aa(lp506
g125
(S'\x07\xdc\x04\x1e'
tRp507
aF104.89
aF105.11
aF103.89
aF104.89
aa(lp508
g125
(S'\x07\xdc\x05\x01'
tRp509
aF104.92
aF106.42
aF104.41
aF105.98999999999999
aa(lp510
g125
(S'\x07\xdc\x05\x02'
tRp511
aF106.01000000000001
aF106.05
aF104.97
aF105.39
aa(lp512
g125
(S'\x07\xdc\x05\x03'
tRp513
aF105.37
aF105.42
aF102.39
aF102.45
aa(lp514
g125
(S'\x07\xdc\x05\x04'
tRp515
aF102.65000000000001
aF102.72
aF97.530000000000001
aF98.549999999999997
aa(lp516
g125
(S'\x07\xdc\x05\x07'
tRp517
aF98.239999999999995
aF98.239999999999995
aF95.420000000000002
aF97.989999999999995
aa(lp518
g125
(S'\x07\xdc\x05\x08'
tRp519
aF97.959999999999994
aF98.120000000000005
aF95.549999999999997
aF97.390000000000001
aa(lp520
g125
(S'\x07\xdc\x05\t'
tRp521
aF97.359999999999999
aF97.359999999999999
aF95.269999999999996
aF96.379999999999995
aa(lp522
g125
(S'\x07\xdc\x05\n'
tRp523
aF96.439999999999998
aF97.680000000000007
aF96.090000000000003
aF96.560000000000002
aa(lp524
g125
(S'\x07\xdc\x05\x0b'
tRp525
aF96.530000000000001
aF97.140000000000001
aF95.599999999999994
aF95.650000000000006
aasg180
g125
(S'\x07\xb3\x01\x01'
tRp526
sg182
S''
sg183
S'CL.F'
p527
sg185
g359
sg187
(lp528
sg189
g473
sg191
g125
(S'\x07\xb3\x01\x01'
tRp529
sbaa.