(lp1
(lp2
(lp3
S'Dow'
p4
aS'12,876.91'
p5
aS'+21.87'
p6
aS'+0.17%'
p7
aa(lp8
S'Nasdaq'
p9
aS'2,950.67'
p10
aS'+17.03'
p11
aS'+0.58%'
p12
aa(lp13
S'S&P 500'
p14
aS'1,361.01'
p15
aS'+3.02'
p16
aS'+0.22%'
p17
aa(lp18
S'EUR/USD'
p19
aS'1.2939'
p20
aS'0.00'
p21
aS'+0.06%'
p22
aa(lp23
S'10-Year'
p24
aS'1.85'
p25
aS'-0.03'
p26
aS'-0.57%'
p27
aa(lp28
S'Gold'
p29
aS'1,585.70'
p30
aS'-9.80'
p31
aS'-0.61%'
p32
aa(lp33
S'Oil'
p34
aS'96.639999'
p35
aS'-0.44'
p36
aS'-0.45%'
p37
aaa(lp38
(lp39
S'BAC'
p40
aS'7.73'
p41
aS'0.03'
p42
aS'0.34%'
p43
aa(lp44
S'JPM'
p45
aS'37.84'
p46
aS'-2.90'
p47
aS'-7.12%'
p48
aa(lp49
S'ARNA'
p50
aS'6.08'
p51
aS'2.42'
p52
aS'66.12%'
p53
aa(lp54
S'C'
aS'29.66'
p55
aS'-0.99'
p56
aS'-3.23%'
p57
aa(lp58
S'NOK'
p59
aS'3.28'
p60
aS'0.04'
p61
aS'1.23%'
p62
aaa(lp63
(lp64
S'WLDN'
p65
aS'2.51'
p66
aS'-0.85'
p67
aS'-25.30%'
p68
aa(lp69
S'ADY'
p70
aS'6.93'
p71
aS'-1.81'
p72
aS'-20.71%'
p73
aa(lp74
S'FFKY'
p75
aS'2.63'
p76
aS'-0.65'
p77
aS'-19.82%'
p78
aa(lp79
S'AMOT'
p80
aS'6.44'
p81
aS'-1.56'
p82
aS'-19.50%'
p83
aa(lp84
S'ASYS'
p85
aS'5.56'
p86
aS'-1.24'
p87
aS'-18.24%'
p88
aaa(lp89
(lp90
S'BOIL'
p91
aS'42.75'
p92
aS'34.27'
p93
aS'404.13%'
p94
aa(lp95
S'ZSL'
p96
aS'64.12'
p97
aS'51.35'
p98
aS'402.11%'
p99
aa(lp100
S'SRTY'
p101
aS'48.89'
p102
aS'39.07'
p103
aS'397.86%'
p104
aa(lp105
S'SPXU'
p106
aS'48.99'
p107
aS'39.08'
p108
aS'394.31%'
p109
aa(lp110
S'TWQ'
p111
aS'54.10'
p112
aS'43.10'
p113
aS'391.76%'
p114
aaa(lp115
ccopy_reg
_reconstructor
p116
(cDataParserModule.dataParser
FinancialObject
p117
c__builtin__
object
p118
NtRp119
(dp120
S'valuesMonthly'
p121
(lp122
sS'lastUpdate'
p123
cdatetime
date
p124
(S'\x07\xdc\x05\x0b'
tRp125
sS'currentValue'
p126
(lp127
sS'name'
p128
S''
sS'valuesWeekly'
p129
(lp130
sS'weeklyUpdate'
p131
g124
(S'\x07\xb3\x01\x01'
tRp132
sS'valuesDaily'
p133
(lp134
(lp135
g124
(S'\x07\xdc\x04\x0b'
tRp136
aF12716.92
aF12890.91
aF12716.92
aF12805.389999999999
aL3743040000L
aa(lp137
g124
(S'\x07\xdc\x04\x0c'
tRp138
aF12806.450000000001
aF13018.82
aF12784.92
aF12986.58
aL3618280000L
aa(lp139
g124
(S'\x07\xdc\x04\r'
tRp140
aF12986.200000000001
aF12992.629999999999
aF12826.049999999999
aF12849.59
aL3631160000L
aa(lp141
g124
(S'\x07\xdc\x04\x10'
tRp142
aF12850.879999999999
aF13032.59
aF12840.51
aF12921.41
aL3574780000L
aa(lp143
g124
(S'\x07\xdc\x04\x11'
tRp144
aF12921.870000000001
aF13168.33
aF12921.870000000001
aF13115.540000000001
aL3456200000L
aa(lp145
g124
(S'\x07\xdc\x04\x12'
tRp146
aF13114.559999999999
aF13131.700000000001
aF12977.16
aF13032.75
aL3463140000L
aa(lp147
g124
(S'\x07\xdc\x04\x13'
tRp148
aF13028.73
aF13115.049999999999
aF12874.299999999999
aF12964.1
aL4180020000L
aa(lp149
g124
(S'\x07\xdc\x04\x14'
tRp150
aF12964.48
aF13127.99
aF12961
aF13029.26
aL3833320000L
aa(lp151
g124
(S'\x07\xdc\x04\x17'
tRp152
aF13028.049999999999
aF13028.049999999999
aF12810.24
aF12927.17
aL3654860000L
aa(lp153
g124
(S'\x07\xdc\x04\x18'
tRp154
aF12927.77
aF13088.75
aF12902.34
aF13001.559999999999
aL3617100000L
aa(lp155
g124
(S'\x07\xdc\x04\x19'
tRp156
aF12997.540000000001
aF13169.92
aF12972.65
aF13090.719999999999
aL3998430000L
aa(lp157
g124
(S'\x07\xdc\x04\x1a'
tRp158
aF13090.040000000001
aF13243.83
aF13044.700000000001
aF13204.620000000001
aL4034700000L
aa(lp159
g124
(S'\x07\xdc\x04\x1b'
tRp160
aF13204.700000000001
aF13311.870000000001
aF13152.82
aF13228.309999999999
aL3645830000L
aa(lp161
g124
(S'\x07\xdc\x04\x1e'
tRp162
aF13228.389999999999
aF13271.9
aF13132.799999999999
aF13213.629999999999
aL3574010000L
aa(lp163
g124
(S'\x07\xdc\x05\x01'
tRp164
aF13214.16
aF13359.620000000001
aF13152.17
aF13279.32
aL3807950000L
aa(lp165
g124
(S'\x07\xdc\x05\x02'
tRp166
aF13277.959999999999
aF13305.959999999999
aF13164.059999999999
aF13268.57
aL3803860000L
aa(lp167
g124
(S'\x07\xdc\x05\x03'
tRp168
aF13267.360000000001
aF13314.59
aF13155.58
aF13206.59
aL4004910000L
aa(lp169
g124
(S'\x07\xdc\x05\x04'
tRp170
aF13204.620000000001
aF13204.620000000001
aF13005.200000000001
aF13038.27
aL3975140000L
aa(lp171
g124
(S'\x07\xdc\x05\x07'
tRp172
aF13036
aF13080.690000000001
aF12931.629999999999
aF13008.530000000001
aL3559390000L
aa(lp173
g124
(S'\x07\xdc\x05\x08'
tRp174
aF13000.73
aF13001.190000000001
aF12789.35
aF12932.09
aL4261670000L
aa(lp175
g124
(S'\x07\xdc\x05\t'
tRp176
aF12921.66
aF12947.49
aF12728.690000000001
aF12835.059999999999
aL4288540000L
aa(lp177
g124
(S'\x07\xdc\x05\n'
tRp178
aF12831.58
aF12972.92
aF12804.75
aF12855.040000000001
aL3727990000L
aasS'dailyUpdate'
p179
g124
(S'\x07\xdc\x05\x0b'
tRp180
sS'detail'
p181
S''
sS'abbreviation'
p182
S'^DJI'
p183
sS'dataSource'
p184
S'Yahoo'
p185
sS'previousValues'
p186
(lp187
sS'financialType'
p188
S'index'
p189
sS'monthlyUpdate'
p190
g124
(S'\x07\xb3\x01\x01'
tRp191
sbag116
(g117
g118
NtRp192
(dp193
g121
(lp194
sg123
g124
(S'\x07\xdc\x05\x0b'
tRp195
sg126
(lp196
sg128
S''
sg129
(lp197
sg131
g124
(S'\x07\xb3\x01\x01'
tRp198
sg133
(lp199
(lp200
g124
(S'\x07\xdc\x04\x0b'
tRp201
aF3020.1500000000001
aF3030.5100000000002
aF3008.75
aF3016.46
aI1540890000
aa(lp202
g124
(S'\x07\xdc\x04\x0c'
tRp203
aF3023.1100000000001
aF3059.2600000000002
aF3020.4400000000001
aF3055.5500000000002
aI1480340000
aa(lp204
g124
(S'\x07\xdc\x04\r'
tRp205
aF3045.0799999999999
aF3045.4200000000001
aF3010.77
aF3011.3299999999999
aI1483850000
aa(lp206
g124
(S'\x07\xdc\x04\x10'
tRp207
aF3027.5700000000002
aF3027.5700000000002
aF2975.8699999999999
aF2988.4000000000001
aI1594320000
aa(lp208
g124
(S'\x07\xdc\x04\x11'
tRp209
aF3002.02
aF3052.7600000000002
aF2999.4899999999998
aF3042.8200000000002
aI1555070000
aa(lp210
g124
(S'\x07\xdc\x04\x12'
tRp211
aF3031.8200000000002
aF3045.04
aF3023.9099999999999
aF3031.4499999999998
aI1599470000
aa(lp212
g124
(S'\x07\xdc\x04\x13'
tRp213
aF3028.1999999999998
aF3058.7199999999998
aF2994.9400000000001
aF3007.5599999999999
aI1991120000
aa(lp214
g124
(S'\x07\xdc\x04\x14'
tRp215
aF3023.73
aF3034.6900000000001
aF2999.0100000000002
aF3000.4499999999998
aI1935880000
aa(lp216
g124
(S'\x07\xdc\x04\x17'
tRp217
aF2969
aF2973.3800000000001
aF2946.04
aF2970.4499999999998
aI1767360000
aa(lp218
g124
(S'\x07\xdc\x04\x18'
tRp219
aF2967.3699999999999
aF2979.0799999999999
aF2950.3800000000001
aF2961.5999999999999
aI1690840000
aa(lp220
g124
(S'\x07\xdc\x04\x19'
tRp221
aF3013.6500000000001
aF3031.4099999999999
aF3010.5700000000002
aF3029.6300000000001
aI1721330000
aa(lp222
g124
(S'\x07\xdc\x04\x1a'
tRp223
aF3029.6199999999999
aF3056.77
aF3027.79
aF3050.6100000000001
aI1763510000
aa(lp224
g124
(S'\x07\xdc\x04\x1b'
tRp225
aF3060.3400000000001
aF3076.4400000000001
aF3043.3000000000002
aF3069.1999999999998
aI1777750000
aa(lp226
g124
(S'\x07\xdc\x04\x1e'
tRp227
aF3060.0599999999999
aF3063.6599999999999
aF3043.25
aF3046.3600000000001
aI1633170000
aa(lp228
g124
(S'\x07\xdc\x05\x01'
tRp229
aF3044.79
aF3085.4000000000001
aF3041.6199999999999
aF3050.4400000000001
aI1854230000
aa(lp230
g124
(S'\x07\xdc\x05\x02'
tRp231
aF3035.0700000000002
aF3061.4699999999998
aF3028.9400000000001
aF3059.8499999999999
aI1825190000
aa(lp232
g124
(S'\x07\xdc\x05\x03'
tRp233
aF3061.1300000000001
aF3061.3800000000001
aF3016.1999999999998
aF3024.3000000000002
aI1869130000
aa(lp234
g124
(S'\x07\xdc\x05\x04'
tRp235
aF3001.1500000000001
aF3001.48
aF2956.3400000000001
aF2956.3400000000001
aI1944010000
aa(lp236
g124
(S'\x07\xdc\x05\x07'
tRp237
aF2940.4099999999999
aF2970.1999999999998
aF2939.21
aF2957.7600000000002
aI1740430000
aa(lp238
g124
(S'\x07\xdc\x05\x08'
tRp239
aF2939.3600000000001
aF2952.6500000000001
aF2900.0599999999999
aF2946.27
aL2175840000L
aa(lp240
g124
(S'\x07\xdc\x05\t'
tRp241
aF2912.4099999999999
aF2948.77
aF2900.1799999999998
aF2934.71
aI2047090000
aa(lp242
g124
(S'\x07\xdc\x05\n'
tRp243
aF2950.21
aF2950.21
aF2923.1399999999999
aF2933.6399999999999
aI2004150000
aasg179
g124
(S'\x07\xdc\x05\x0b'
tRp244
sg181
S''
sg182
S'^IXIC'
p245
sg184
g185
sg186
(lp246
sg188
g189
sg190
g124
(S'\x07\xb3\x01\x01'
tRp247
sbag116
(g117
g118
NtRp248
(dp249
g121
(lp250
sg123
g124
(S'\x07\xdc\x05\x0b'
tRp251
sg126
(lp252
sg128
S''
sg129
(lp253
sg131
g124
(S'\x07\xb3\x01\x01'
tRp254
sg133
(lp255
(lp256
g124
(S'\x07\xdc\x04\x0b'
tRp257
aF1358.98
aF1374.71
aF1358.98
aF1368.71
aL3743040000L
aa(lp258
g124
(S'\x07\xdc\x04\x0c'
tRp259
aF1368.77
aF1388.1300000000001
aF1368.77
aF1387.5699999999999
aL3618280000L
aa(lp260
g124
(S'\x07\xdc\x04\r'
tRp261
aF1387.6099999999999
aF1387.6099999999999
aF1369.8499999999999
aF1370.26
aL3631160000L
aa(lp262
g124
(S'\x07\xdc\x04\x10'
tRp263
aF1370.27
aF1379.6600000000001
aF1365.3800000000001
aF1369.5699999999999
aL3574780000L
aa(lp264
g124
(S'\x07\xdc\x04\x11'
tRp265
aF1369.5699999999999
aF1392.76
aF1369.5699999999999
aF1390.78
aL3456200000L
aa(lp266
g124
(S'\x07\xdc\x04\x12'
tRp267
aF1390.78
aF1390.78
aF1383.29
aF1385.1400000000001
aL3463140000L
aa(lp268
g124
(S'\x07\xdc\x04\x13'
tRp269
aF1385.0799999999999
aF1390.46
aF1370.3
aF1376.9200000000001
aL4180020000L
aa(lp270
g124
(S'\x07\xdc\x04\x14'
tRp271
aF1376.96
aF1387.4000000000001
aF1376.96
aF1378.53
aL3833320000L
aa(lp272
g124
(S'\x07\xdc\x04\x17'
tRp273
aF1378.53
aF1378.53
aF1358.79
aF1366.9400000000001
aL3654860000L
aa(lp274
g124
(S'\x07\xdc\x04\x18'
tRp275
aF1366.97
aF1375.5699999999999
aF1366.8199999999999
aF1371.97
aL3617100000L
aa(lp276
g124
(S'\x07\xdc\x04\x19'
tRp277
aF1372.1099999999999
aF1391.3699999999999
aF1372.1099999999999
aF1390.6900000000001
aL3998430000L
aa(lp278
g124
(S'\x07\xdc\x04\x1a'
tRp279
aF1390.6400000000001
aF1402.0899999999999
aF1387.28
aF1399.98
aL4034700000L
aa(lp280
g124
(S'\x07\xdc\x04\x1b'
tRp281
aF1400.1900000000001
aF1406.6400000000001
aF1397.3099999999999
aF1403.3599999999999
aL3645830000L
aa(lp282
g124
(S'\x07\xdc\x04\x1e'
tRp283
aF1403.26
aF1403.26
aF1394
aF1397.9100000000001
aL3574010000L
aa(lp284
g124
(S'\x07\xdc\x05\x01'
tRp285
aF1397.8599999999999
aF1415.3199999999999
aF1395.73
aF1405.8199999999999
aL3807950000L
aa(lp286
g124
(S'\x07\xdc\x05\x02'
tRp287
aF1405.5
aF1405.5
aF1393.9200000000001
aF1402.3099999999999
aL3803860000L
aa(lp288
g124
(S'\x07\xdc\x05\x03'
tRp289
aF1402.3199999999999
aF1403.0699999999999
aF1388.71
aF1391.5699999999999
aL4004910000L
aa(lp290
g124
(S'\x07\xdc\x05\x04'
tRp291
aF1391.51
aF1391.51
aF1367.96
aF1369.0999999999999
aL3975140000L
aa(lp292
g124
(S'\x07\xdc\x05\x07'
tRp293
aF1368.79
aF1373.9100000000001
aF1363.9400000000001
aF1369.5799999999999
aL3559390000L
aa(lp294
g124
(S'\x07\xdc\x05\x08'
tRp295
aF1369.1600000000001
aF1369.1600000000001
aF1347.75
aF1363.72
aL4261670000L
aa(lp296
g124
(S'\x07\xdc\x05\t'
tRp297
aF1363.2
aF1363.73
aF1343.1300000000001
aF1354.5799999999999
aL4288540000L
aa(lp298
g124
(S'\x07\xdc\x05\n'
tRp299
aF1354.5799999999999
aF1365.8800000000001
aF1354.5799999999999
aF1357.99
aL3727990000L
aasg179
g124
(S'\x07\xdc\x05\x0b'
tRp300
sg181
S''
sg182
S'^GSPC'
p301
sg184
g185
sg186
(lp302
sg188
g189
sg190
g124
(S'\x07\xb3\x01\x01'
tRp303
sbag116
(g117
g118
NtRp304
(dp305
g121
(lp306
sg123
g124
(S'\x07\xb3\x01\x01'
tRp307
sg126
(lp308
sg128
S''
sg129
(lp309
sg131
g124
(S'\x07\xb3\x01\x01'
tRp310
sg133
(lp311
(lp312
g124
(S'\x07\xdc\x04\x0b'
tRp313
aF1.3083
aF1.3156000000000001
aF1.3066
aF1.3109999999999999
aa(lp314
g124
(S'\x07\xdc\x04\x0c'
tRp315
aF1.3109999999999999
aF1.3211999999999999
aF1.3102
aF1.3187
aa(lp316
g124
(S'\x07\xdc\x04\r'
tRp317
aF1.3188
aF1.3200000000000001
aF1.3069999999999999
aF1.3077000000000001
aa(lp318
g124
(S'\x07\xdc\x04\x10'
tRp319
aF1.3069999999999999
aF1.3147
aF1.2995000000000001
aF1.3131999999999999
aa(lp320
g124
(S'\x07\xdc\x04\x11'
tRp321
aF1.3131999999999999
aF1.3170999999999999
aF1.3089999999999999
aF1.3128
aa(lp322
g124
(S'\x07\xdc\x04\x12'
tRp323
aF1.3127
aF1.3140000000000001
aF1.3058000000000001
aF1.3119000000000001
aa(lp324
g124
(S'\x07\xdc\x04\x13'
tRp325
aF1.3119000000000001
aF1.3165
aF1.3069999999999999
aF1.3134999999999999
aa(lp326
g124
(S'\x07\xdc\x04\x14'
tRp327
aF1.3134999999999999
aF1.3227
aF1.3129
aF1.3219000000000001
aa(lp328
g124
(S'\x07\xdc\x04\x17'
tRp329
aF1.3190999999999999
aF1.321
aF1.3105
aF1.3156000000000001
aa(lp330
g124
(S'\x07\xdc\x04\x18'
tRp331
aF1.3158000000000001
aF1.3217000000000001
aF1.3145
aF1.3194999999999999
aa(lp332
g124
(S'\x07\xdc\x04\x19'
tRp333
aF1.3194999999999999
aF1.3236000000000001
aF1.3173999999999999
aF1.3223
aa(lp334
g124
(S'\x07\xdc\x04\x1a'
tRp335
aF1.3222
aF1.3262
aF1.3181
aF1.3190999999999999
aa(lp336
g124
(S'\x07\xdc\x04\x1b'
tRp337
aF1.3188
aF1.3267
aF1.3159000000000001
aF1.3255999999999999
aa(lp338
g124
(S'\x07\xdc\x04\x1e'
tRp339
aF1.3240000000000001
aF1.3264
aF1.321
aF1.3242
aa(lp340
g124
(S'\x07\xdc\x05\x01'
tRp341
aF1.3241000000000001
aF1.3279000000000001
aF1.3205
aF1.3238000000000001
aa(lp342
g124
(S'\x07\xdc\x05\x02'
tRp343
aF1.3240000000000001
aF1.3241000000000001
aF1.3125
aF1.3153999999999999
aa(lp344
g124
(S'\x07\xdc\x05\x03'
tRp345
aF1.3154999999999999
aF1.3179000000000001
aF1.3095000000000001
aF1.3151999999999999
aa(lp346
g124
(S'\x07\xdc\x05\x04'
tRp347
aF1.3151999999999999
aF1.3178000000000001
aF1.3080000000000001
aF1.3084
aa(lp348
g124
(S'\x07\xdc\x05\x07'
tRp349
aF1.3022
aF1.3064
aF1.2955000000000001
aF1.3056000000000001
aa(lp350
g124
(S'\x07\xdc\x05\x08'
tRp351
aF1.3056000000000001
aF1.3064
aF1.2982
aF1.2999000000000001
aa(lp352
g124
(S'\x07\xdc\x05\t'
tRp353
aF1.2999000000000001
aF1.3005
aF1.2909999999999999
aF1.2934000000000001
aa(lp354
g124
(S'\x07\xdc\x05\n'
tRp355
aF1.2934000000000001
aF1.2977000000000001
aF1.2924
aF1.2930999999999999
aasg179
g124
(S'\x07\xb3\x01\x01'
tRp356
sg181
S''
sg182
S'EURUSD'
p357
sg184
S'Stooq'
p358
sg186
(lp359
sg188
S'forex'
p360
sg190
g124
(S'\x07\xb3\x01\x01'
tRp361
sbag116
(g117
g118
NtRp362
(dp363
g121
(lp364
sg123
g307
sg126
(lp365
sg128
S''
sg129
(lp366
sg131
g124
(S'\x07\xb3\x01\x01'
tRp367
sg133
(lp368
(lp369
g124
(S'\x07\xdc\x04\x0b'
tRp370
aF2.0259999999999998
aF2.0459999999999998
aF2.0169999999999999
aF2.028
aa(lp371
g124
(S'\x07\xdc\x04\x0c'
tRp372
aF2.0369999999999999
aF2.0630000000000002
aF2.012
aF2.0489999999999999
aa(lp373
g124
(S'\x07\xdc\x04\r'
tRp374
aF2.0139999999999998
aF2.0259999999999998
aF1.9810000000000001
aF1.998
aa(lp375
g124
(S'\x07\xdc\x04\x10'
tRp376
aF1.97
aF1.998
aF1.946
aF1.974
aa(lp377
g124
(S'\x07\xdc\x04\x11'
tRp378
aF2.0019999999999998
aF2.0139999999999998
aF1.9910000000000001
aF2.0089999999999999
aa(lp379
g124
(S'\x07\xdc\x04\x12'
tRp380
aF1.988
aF1.9910000000000001
aF1.972
aF1.982
aa(lp381
g124
(S'\x07\xdc\x04\x13'
tRp382
aF1.9770000000000001
aF1.9790000000000001
aF1.9490000000000001
aF1.952
aa(lp383
g124
(S'\x07\xdc\x04\x14'
tRp384
aF1.9950000000000001
aF1.9950000000000001
aF1.9630000000000001
aF1.97
aa(lp385
g124
(S'\x07\xdc\x04\x17'
tRp386
aF1.9199999999999999
aF1.9399999999999999
aF1.9099999999999999
aF1.9299999999999999
aa(lp387
g124
(S'\x07\xdc\x04\x18'
tRp388
aF1.954
aF1.958
aF1.9370000000000001
aF1.952
aa(lp389
g124
(S'\x07\xdc\x04\x19'
tRp390
aF1.988
aF2.0350000000000001
aF1.97
aF1.984
aa(lp391
g124
(S'\x07\xdc\x04\x1a'
tRp392
aF1.954
aF1.968
aF1.9299999999999999
aF1.9590000000000001
aa(lp393
g124
(S'\x07\xdc\x04\x1b'
tRp394
aF1.9510000000000001
aF1.958
aF1.9259999999999999
aF1.9330000000000001
aa(lp395
g124
(S'\x07\xdc\x04\x1e'
tRp396
aF1.919
aF1.9239999999999999
aF1.907
aF1.915
aa(lp397
g124
(S'\x07\xdc\x05\x01'
tRp398
aF1.919
aF1.9610000000000001
aF1.8999999999999999
aF1.956
aa(lp399
g124
(S'\x07\xdc\x05\x02'
tRp400
aF1.9099999999999999
aF1.9379999999999999
aF1.8999999999999999
aF1.9219999999999999
aa(lp401
g124
(S'\x07\xdc\x05\x03'
tRp402
aF1.9239999999999999
aF1.956
aF1.915
aF1.9239999999999999
aa(lp403
g124
(S'\x07\xdc\x05\x04'
tRp404
aF1.9359999999999999
aF1.954
aF1.873
aF1.8799999999999999
aa(lp405
g124
(S'\x07\xdc\x05\x07'
tRp406
aF1.873
aF1.8819999999999999
aF1.8600000000000001
aF1.877
aa(lp407
g124
(S'\x07\xdc\x05\x08'
tRp408
aF1.8540000000000001
aF1.861
aF1.8160000000000001
aF1.837
aa(lp409
g124
(S'\x07\xdc\x05\t'
tRp410
aF1.8
aF1.845
aF1.7929999999999999
aF1.835
aa(lp411
g124
(S'\x07\xdc\x05\n'
tRp412
aF1.895
aF1.921
aF1.883
aF1.8839999999999999
aasg179
g124
(S'\x07\xb3\x01\x01'
tRp413
sg181
S''
sg182
S'10USY.B'
p414
sg184
g358
sg186
(lp415
sg188
S'bond'
p416
sg190
g124
(S'\x07\xb3\x01\x01'
tRp417
sbag116
(g117
g118
NtRp418
(dp419
g121
(lp420
sg123
g307
sg126
(lp421
sg128
S''
sg129
(lp422
sg131
g124
(S'\x07\xb3\x01\x01'
tRp423
sg133
(lp424
(lp425
g124
(S'\x07\xdc\x04\x0b'
tRp426
aF1659.45
aF1662.6300000000001
aF1653.27
aF1659.3900000000001
aa(lp427
g124
(S'\x07\xdc\x04\x0c'
tRp428
aF1659.24
aF1680.23
aF1650.76
aF1675.0699999999999
aa(lp429
g124
(S'\x07\xdc\x04\r'
tRp430
aF1675.3699999999999
aF1678.01
aF1649.6099999999999
aF1658.4100000000001
aa(lp431
g124
(S'\x07\xdc\x04\x10'
tRp432
aF1655.9300000000001
aF1657.8399999999999
aF1641.47
aF1652.95
aa(lp433
g124
(S'\x07\xdc\x04\x11'
tRp434
aF1652.6900000000001
aF1657.51
aF1634.6700000000001
aF1650.1700000000001
aa(lp435
g124
(S'\x07\xdc\x04\x12'
tRp436
aF1650.21
aF1654.4000000000001
aF1637.99
aF1642.1700000000001
aa(lp437
g124
(S'\x07\xdc\x04\x13'
tRp438
aF1642
aF1653.97
aF1631.48
aF1642.76
aa(lp439
g124
(S'\x07\xdc\x04\x14'
tRp440
aF1642.6800000000001
aF1647.27
aF1638.71
aF1642.97
aa(lp441
g124
(S'\x07\xdc\x04\x17'
tRp442
aF1642.1500000000001
aF1643.3900000000001
aF1623.5799999999999
aF1638.4300000000001
aa(lp443
g124
(S'\x07\xdc\x04\x18'
tRp444
aF1638.6700000000001
aF1649.21
aF1634.1500000000001
aF1641.5799999999999
aa(lp445
g124
(S'\x07\xdc\x04\x19'
tRp446
aF1640.9300000000001
aF1646.3900000000001
aF1625.1199999999999
aF1644.1300000000001
aa(lp447
g124
(S'\x07\xdc\x04\x1a'
tRp448
aF1644.3399999999999
aF1660.8900000000001
aF1641.7
aF1654.9000000000001
aa(lp449
g124
(S'\x07\xdc\x04\x1b'
tRp450
aF1655.5
aF1666.5999999999999
aF1650.5
aF1662.3
aa(lp451
g124
(S'\x07\xdc\x04\x1e'
tRp452
aF1663.7
aF1665.8
aF1647.5999999999999
aF1663.7
aa(lp453
g124
(S'\x07\xdc\x05\x01'
tRp454
aF1665.2
aF1670.8
aF1657.3
aF1660.4000000000001
aa(lp455
g124
(S'\x07\xdc\x05\x02'
tRp456
aF1662.2
aF1662.5999999999999
aF1646.9000000000001
aF1651.5999999999999
aa(lp457
g124
(S'\x07\xdc\x05\x03'
tRp458
aF1651.9000000000001
aF1652.9000000000001
aF1631.3
aF1635.5
aa(lp459
g124
(S'\x07\xdc\x05\x04'
tRp460
aF1635.5999999999999
aF1646.9000000000001
aF1626.9000000000001
aF1641.8
aa(lp461
g124
(S'\x07\xdc\x05\x07'
tRp462
aF1638.3
aF1642.0999999999999
aF1633.2
aF1636.3
aa(lp463
g124
(S'\x07\xdc\x05\x08'
tRp464
aF1638.1700000000001
aF1638.53
aF1595.1400000000001
aF1605.3199999999999
aa(lp465
g124
(S'\x07\xdc\x05\t'
tRp466
aF1604.9200000000001
aF1605.0799999999999
aF1579.98
aF1589.5799999999999
aa(lp467
g124
(S'\x07\xdc\x05\n'
tRp468
aF1589.8800000000001
aF1601.3499999999999
aF1585.47
aF1594.3800000000001
aasg179
g124
(S'\x07\xb3\x01\x01'
tRp469
sg181
S''
sg182
S'XAUUSD'
p470
sg184
g358
sg186
(lp471
sg188
S'resource'
p472
sg190
g124
(S'\x07\xb3\x01\x01'
tRp473
sbag116
(g117
g118
NtRp474
(dp475
g121
(lp476
sg123
g307
sg126
(lp477
sg128
S''
sg129
(lp478
sg131
g124
(S'\x07\xb3\x01\x01'
tRp479
sg133
(lp480
(lp481
g124
(S'\x07\xdc\x04\x0b'
tRp482
aF100.95
aF103.12
aF100.86
aF102.56999999999999
aa(lp483
g124
(S'\x07\xdc\x04\x0c'
tRp484
aF102.55
aF104.22
aF102.40000000000001
aF103.64
aa(lp485
g124
(S'\x07\xdc\x04\r'
tRp486
aF103.67
aF103.89
aF102.61
aF102.86
aa(lp487
g124
(S'\x07\xdc\x04\x10'
tRp488
aF103.34999999999999
aF103.83
aF102.3
aF103.59
aa(lp489
g124
(S'\x07\xdc\x04\x11'
tRp490
aF103.58
aF105.45999999999999
aF103.11
aF104.7
aa(lp491
g124
(S'\x07\xdc\x04\x12'
tRp492
aF104.68000000000001
aF104.94
aF102.66
aF103.22
aa(lp493
g124
(S'\x07\xdc\x04\x13'
tRp494
aF103.2
aF103.66
aF102.14
aF103.06999999999999
aa(lp495
g124
(S'\x07\xdc\x04\x14'
tRp496
aF103.03
aF104.67
aF102.86
aF104.08
aa(lp497
g124
(S'\x07\xdc\x04\x17'
tRp498
aF103.8
aF103.91
aF101.84
aF103.08
aa(lp499
g124
(S'\x07\xdc\x04\x18'
tRp500
aF103.06
aF104.09
aF102.8
aF103.8
aa(lp501
g124
(S'\x07\xdc\x04\x19'
tRp502
aF103.77
aF104.55
aF103.11
aF103.95999999999999
aa(lp503
g124
(S'\x07\xdc\x04\x1a'
tRp504
aF103.97
aF104.91
aF103.86
aF104.16
aa(lp505
g124
(S'\x07\xdc\x04\x1b'
tRp506
aF104.05
aF104.98
aF103.75
aF104.78
aa(lp507
g124
(S'\x07\xdc\x04\x1e'
tRp508
aF104.89
aF105.11
aF103.89
aF104.89
aa(lp509
g124
(S'\x07\xdc\x05\x01'
tRp510
aF104.92
aF106.42
aF104.41
aF105.98999999999999
aa(lp511
g124
(S'\x07\xdc\x05\x02'
tRp512
aF106.01000000000001
aF106.05
aF104.97
aF105.39
aa(lp513
g124
(S'\x07\xdc\x05\x03'
tRp514
aF105.37
aF105.42
aF102.39
aF102.45
aa(lp515
g124
(S'\x07\xdc\x05\x04'
tRp516
aF102.65000000000001
aF102.72
aF97.530000000000001
aF98.549999999999997
aa(lp517
g124
(S'\x07\xdc\x05\x07'
tRp518
aF98.239999999999995
aF98.239999999999995
aF95.420000000000002
aF97.989999999999995
aa(lp519
g124
(S'\x07\xdc\x05\x08'
tRp520
aF97.959999999999994
aF98.120000000000005
aF95.549999999999997
aF97.390000000000001
aa(lp521
g124
(S'\x07\xdc\x05\t'
tRp522
aF97.359999999999999
aF97.359999999999999
aF95.269999999999996
aF96.379999999999995
aa(lp523
g124
(S'\x07\xdc\x05\n'
tRp524
aF96.439999999999998
aF97.680000000000007
aF96.090000000000003
aF96.560000000000002
aasg179
g124
(S'\x07\xb3\x01\x01'
tRp525
sg181
S''
sg182
S'CL.F'
p526
sg184
g358
sg186
(lp527
sg188
g472
sg190
g124
(S'\x07\xb3\x01\x01'
tRp528
sbaa.