(lp1
(lp2
(lp3
S'Dow'
p4
aS'13,228.31'
p5
aS'+23.69'
p6
aS'+0.18%'
p7
aa(lp8
S'Nasdaq'
p9
aS'3,069.20'
p10
aS'+18.59'
p11
aS'+0.61%'
p12
aa(lp13
S'S&P 500'
p14
aS'1,403.36'
p15
aS'+3.38'
p16
aS'+0.24%'
p17
aa(lp18
S'EUR/USD'
p19
aS'1.3251'
p20
aS'0.01'
p21
aS'+0.45%'
p22
aa(lp23
S'10-Year'
p24
aS'1.93'
p25
aS'-0.03'
p26
aS'-0.36%'
p27
aa(lp28
S'Gold'
p29
aS'1,662.60'
p30
aS'2.10'
p31
aS'+0.13%'
p32
aa(lp33
S'Oil'
p34
aS'104.809998'
p35
aS'0.26'
p36
aS'+0.25%'
p37
aaa(lp38
(lp39
S'CHRS'
p40
aS'7.31'
p41
aS'0.00'
p42
aS'0.00%'
p43
aa(lp44
S'F'
aS'11.10'
p45
aS'0.00'
p46
aS'0.00%'
p47
aa(lp48
S'SD'
p49
aS'7.25'
p50
aS'0.00'
p51
aS'0.00%'
p52
aa(lp53
S'S'
aS'2.57'
p54
aS'0.00'
p55
aS'0.00%'
p56
aa(lp57
S'SIRI'
p58
aS'2.25'
p59
aS'0.00'
p60
aS'0.00%'
p61
aaa(lp62
(lp63
S'END'
p64
aS'9.77'
p65
aS'-0.00'
p66
aS'-0.00%'
p67
aa(lp68
S'MPAC'
p69
aS'5.41'
p70
aS'-0.00'
p71
aS'-0.00%'
p72
aa(lp73
S'CEVA'
p74
aS'17.55'
p75
aS'-0.00'
p76
aS'-0.00%'
p77
aa(lp78
S'OPHC'
p79
aS'1.33'
p80
aS'-0.00'
p81
aS'-0.00%'
p82
aa(lp83
S'SVNT'
p84
aS'1.52'
p85
aS'-0.00'
p86
aS'-0.00%'
p87
aaa(lp88
(lp89
S'SMSC'
p90
aS'36.43'
p91
aS'0.00'
p92
aS'0.00%'
p93
aa(lp94
S'STRI'
p95
aS'4.87'
p96
aS'0.00'
p97
aS'0.00%'
p98
aa(lp99
S'IBIO'
p100
aS'1.74'
p101
aS'0.00'
p102
aS'0.00%'
p103
aa(lp104
S'EMMS'
p105
aS'1.63'
p106
aS'0.00'
p107
aS'0.00%'
p108
aa(lp109
S'CHRS'
p110
aS'7.31'
p111
aS'0.00'
p112
aS'0.00%'
p113
aaa(lp114
ccopy_reg
_reconstructor
p115
(cDataParserModule.dataParser
FinancialObject
p116
c__builtin__
object
p117
NtRp118
(dp119
S'valuesMonthly'
p120
(lp121
sS'lastUpdate'
p122
cdatetime
date
p123
(S'\x07\xdc\x05\x03'
tRp124
sS'currentValue'
p125
(lp126
sS'name'
p127
S''
sS'valuesWeekly'
p128
(lp129
sS'weeklyUpdate'
p130
g123
(S'\x07\xb3\x01\x01'
tRp131
sS'valuesDaily'
p132
(lp133
(lp134
g123
(S'\x07\xdc\x04\x03'
tRp135
aF13258.959999999999
aF13297.139999999999
aF13114.18
aF13199.549999999999
aL3822090000L
aa(lp136
g123
(S'\x07\xdc\x04\x04'
tRp137
aF13198.190000000001
aF13198.190000000001
aF12995.049999999999
aF13074.75
aL3938290000L
aa(lp138
g123
(S'\x07\xdc\x04\x05'
tRp139
aF13067.18
aF13123.07
aF12975.98
aF13060.139999999999
aL3303740000L
aa(lp140
g123
(S'\x07\xdc\x04\t'
tRp141
aF13057.57
aF13057.57
aF12860.110000000001
aF12929.59
aL3468980000L
aa(lp142
g123
(S'\x07\xdc\x04\n'
tRp143
aF12929.59
aF12951.459999999999
aF12689.1
aF12715.93
aL4631730000L
aa(lp144
g123
(S'\x07\xdc\x04\x0b'
tRp145
aF12716.92
aF12890.91
aF12716.92
aF12805.389999999999
aL3743040000L
aa(lp146
g123
(S'\x07\xdc\x04\x0c'
tRp147
aF12806.450000000001
aF13018.82
aF12784.92
aF12986.58
aL3618280000L
aa(lp148
g123
(S'\x07\xdc\x04\r'
tRp149
aF12986.200000000001
aF12992.629999999999
aF12826.049999999999
aF12849.59
aL3631160000L
aa(lp150
g123
(S'\x07\xdc\x04\x10'
tRp151
aF12850.879999999999
aF13032.59
aF12840.51
aF12921.41
aL3574780000L
aa(lp152
g123
(S'\x07\xdc\x04\x11'
tRp153
aF12921.870000000001
aF13168.33
aF12921.870000000001
aF13115.540000000001
aL3456200000L
aa(lp154
g123
(S'\x07\xdc\x04\x12'
tRp155
aF13114.559999999999
aF13131.700000000001
aF12977.16
aF13032.75
aL3463140000L
aa(lp156
g123
(S'\x07\xdc\x04\x13'
tRp157
aF13028.73
aF13115.049999999999
aF12874.299999999999
aF12964.1
aL4180020000L
aa(lp158
g123
(S'\x07\xdc\x04\x14'
tRp159
aF12964.48
aF13127.99
aF12961
aF13029.26
aL3833320000L
aa(lp160
g123
(S'\x07\xdc\x04\x17'
tRp161
aF13028.049999999999
aF13028.049999999999
aF12810.24
aF12927.17
aL3654860000L
aa(lp162
g123
(S'\x07\xdc\x04\x18'
tRp163
aF12927.77
aF13088.75
aF12902.34
aF13001.559999999999
aL3617100000L
aa(lp164
g123
(S'\x07\xdc\x04\x19'
tRp165
aF12997.540000000001
aF13169.92
aF12972.65
aF13090.719999999999
aL3998430000L
aa(lp166
g123
(S'\x07\xdc\x04\x1a'
tRp167
aF13090.040000000001
aF13243.83
aF13044.700000000001
aF13204.620000000001
aL4034700000L
aa(lp168
g123
(S'\x07\xdc\x04\x1b'
tRp169
aF13204.700000000001
aF13311.870000000001
aF13152.82
aF13228.309999999999
aL3645830000L
aa(lp170
g123
(S'\x07\xdc\x04\x1e'
tRp171
aF13228.389999999999
aF13271.9
aF13132.799999999999
aF13213.629999999999
aL3574010000L
aa(lp172
g123
(S'\x07\xdc\x05\x01'
tRp173
aF13214.16
aF13359.620000000001
aF13152.17
aF13279.32
aL3807950000L
aa(lp174
g123
(S'\x07\xdc\x05\x02'
tRp175
aF13277.959999999999
aF13305.959999999999
aF13164.059999999999
aF13268.57
aL3803860000L
aasS'dailyUpdate'
p176
g123
(S'\x07\xdc\x05\x03'
tRp177
sS'detail'
p178
S''
sS'abbreviation'
p179
S'^DJI'
p180
sS'dataSource'
p181
S'Yahoo'
p182
sS'previousValues'
p183
(lp184
sS'financialType'
p185
S'index'
p186
sS'monthlyUpdate'
p187
g123
(S'\x07\xb3\x01\x01'
tRp188
sbag115
(g116
g117
NtRp189
(dp190
g120
(lp191
sg122
g123
(S'\x07\xdc\x05\x03'
tRp192
sg125
(lp193
sg127
S''
sg128
(lp194
sg130
g123
(S'\x07\xb3\x01\x01'
tRp195
sg132
(lp196
(lp197
g123
(S'\x07\xdc\x04\x03'
tRp198
aF3119.6500000000001
aF3128.25
aF3097.4099999999999
aF3113.5700000000002
aI1804950000
aa(lp199
g123
(S'\x07\xdc\x04\x04'
tRp200
aF3085.46
aF3086.3499999999999
aF3052.5799999999999
aF3068.0900000000001
aI1813150000
aa(lp201
g123
(S'\x07\xdc\x04\x05'
tRp202
aF3061.75
aF3083.3800000000001
aF3061.1399999999999
aF3080.5
aI1548040000
aa(lp203
g123
(S'\x07\xdc\x04\t'
tRp204
aF3037.2800000000002
aF3058.7600000000002
aF3032.2199999999998
aF3047.0799999999999
aI1371140000
aa(lp205
g123
(S'\x07\xdc\x04\n'
tRp206
aF3044.6700000000001
aF3055.1999999999998
aF2987
aF2991.2199999999998
aI1953600000
aa(lp207
g123
(S'\x07\xdc\x04\x0b'
tRp208
aF3020.1500000000001
aF3030.5100000000002
aF3008.75
aF3016.46
aI1540890000
aa(lp209
g123
(S'\x07\xdc\x04\x0c'
tRp210
aF3023.1100000000001
aF3059.2600000000002
aF3020.4400000000001
aF3055.5500000000002
aI1480340000
aa(lp211
g123
(S'\x07\xdc\x04\r'
tRp212
aF3045.0799999999999
aF3045.4200000000001
aF3010.77
aF3011.3299999999999
aI1483850000
aa(lp213
g123
(S'\x07\xdc\x04\x10'
tRp214
aF3027.5700000000002
aF3027.5700000000002
aF2975.8699999999999
aF2988.4000000000001
aI1594320000
aa(lp215
g123
(S'\x07\xdc\x04\x11'
tRp216
aF3002.02
aF3052.7600000000002
aF2999.4899999999998
aF3042.8200000000002
aI1555070000
aa(lp217
g123
(S'\x07\xdc\x04\x12'
tRp218
aF3031.8200000000002
aF3045.04
aF3023.9099999999999
aF3031.4499999999998
aI1599470000
aa(lp219
g123
(S'\x07\xdc\x04\x13'
tRp220
aF3028.1999999999998
aF3058.7199999999998
aF2994.9400000000001
aF3007.5599999999999
aI1991120000
aa(lp221
g123
(S'\x07\xdc\x04\x14'
tRp222
aF3023.73
aF3034.6900000000001
aF2999.0100000000002
aF3000.4499999999998
aI1935880000
aa(lp223
g123
(S'\x07\xdc\x04\x17'
tRp224
aF2969
aF2973.3800000000001
aF2946.04
aF2970.4499999999998
aI1767360000
aa(lp225
g123
(S'\x07\xdc\x04\x18'
tRp226
aF2967.3699999999999
aF2979.0799999999999
aF2950.3800000000001
aF2961.5999999999999
aI1690840000
aa(lp227
g123
(S'\x07\xdc\x04\x19'
tRp228
aF3013.6500000000001
aF3031.4099999999999
aF3010.5700000000002
aF3029.6300000000001
aI1721330000
aa(lp229
g123
(S'\x07\xdc\x04\x1a'
tRp230
aF3029.6199999999999
aF3056.77
aF3027.79
aF3050.6100000000001
aI1763510000
aa(lp231
g123
(S'\x07\xdc\x04\x1b'
tRp232
aF3060.3400000000001
aF3076.4400000000001
aF3043.3000000000002
aF3069.1999999999998
aI1777750000
aa(lp233
g123
(S'\x07\xdc\x04\x1e'
tRp234
aF3060.0599999999999
aF3063.6599999999999
aF3043.25
aF3046.3600000000001
aI1633170000
aa(lp235
g123
(S'\x07\xdc\x05\x01'
tRp236
aF3044.79
aF3085.4000000000001
aF3041.6199999999999
aF3050.4400000000001
aI1854230000
aa(lp237
g123
(S'\x07\xdc\x05\x02'
tRp238
aF3035.0700000000002
aF3061.4699999999998
aF3028.9400000000001
aF3059.8499999999999
aI1825190000
aasg176
g123
(S'\x07\xdc\x05\x03'
tRp239
sg178
S''
sg179
S'^IXIC'
p240
sg181
g182
sg183
(lp241
sg185
g186
sg187
g123
(S'\x07\xb3\x01\x01'
tRp242
sbag115
(g116
g117
NtRp243
(dp244
g120
(lp245
sg122
g123
(S'\x07\xdc\x05\x03'
tRp246
sg125
(lp247
sg127
S''
sg128
(lp248
sg130
g123
(S'\x07\xb3\x01\x01'
tRp249
sg132
(lp250
(lp251
g123
(S'\x07\xdc\x04\x03'
tRp252
aF1418.98
aF1419
aF1404.6199999999999
aF1413.3800000000001
aL3822090000L
aa(lp253
g123
(S'\x07\xdc\x04\x04'
tRp254
aF1413.0899999999999
aF1413.0899999999999
aF1394.0899999999999
aF1398.96
aL3938290000L
aa(lp255
g123
(S'\x07\xdc\x04\x05'
tRp256
aF1398.79
aF1401.5999999999999
aF1392.9200000000001
aF1398.0799999999999
aL3303740000L
aa(lp257
g123
(S'\x07\xdc\x04\t'
tRp258
aF1397.45
aF1397.45
aF1378.24
aF1382.2
aL3468980000L
aa(lp259
g123
(S'\x07\xdc\x04\n'
tRp260
aF1382.1800000000001
aF1383.01
aF1357.3800000000001
aF1358.5899999999999
aL4631730000L
aa(lp261
g123
(S'\x07\xdc\x04\x0b'
tRp262
aF1358.98
aF1374.71
aF1358.98
aF1368.71
aL3743040000L
aa(lp263
g123
(S'\x07\xdc\x04\x0c'
tRp264
aF1368.77
aF1388.1300000000001
aF1368.77
aF1387.5699999999999
aL3618280000L
aa(lp265
g123
(S'\x07\xdc\x04\r'
tRp266
aF1387.6099999999999
aF1387.6099999999999
aF1369.8499999999999
aF1370.26
aL3631160000L
aa(lp267
g123
(S'\x07\xdc\x04\x10'
tRp268
aF1370.27
aF1379.6600000000001
aF1365.3800000000001
aF1369.5699999999999
aL3574780000L
aa(lp269
g123
(S'\x07\xdc\x04\x11'
tRp270
aF1369.5699999999999
aF1392.76
aF1369.5699999999999
aF1390.78
aL3456200000L
aa(lp271
g123
(S'\x07\xdc\x04\x12'
tRp272
aF1390.78
aF1390.78
aF1383.29
aF1385.1400000000001
aL3463140000L
aa(lp273
g123
(S'\x07\xdc\x04\x13'
tRp274
aF1385.0799999999999
aF1390.46
aF1370.3
aF1376.9200000000001
aL4180020000L
aa(lp275
g123
(S'\x07\xdc\x04\x14'
tRp276
aF1376.96
aF1387.4000000000001
aF1376.96
aF1378.53
aL3833320000L
aa(lp277
g123
(S'\x07\xdc\x04\x17'
tRp278
aF1378.53
aF1378.53
aF1358.79
aF1366.9400000000001
aL3654860000L
aa(lp279
g123
(S'\x07\xdc\x04\x18'
tRp280
aF1366.97
aF1375.5699999999999
aF1366.8199999999999
aF1371.97
aL3617100000L
aa(lp281
g123
(S'\x07\xdc\x04\x19'
tRp282
aF1372.1099999999999
aF1391.3699999999999
aF1372.1099999999999
aF1390.6900000000001
aL3998430000L
aa(lp283
g123
(S'\x07\xdc\x04\x1a'
tRp284
aF1390.6400000000001
aF1402.0899999999999
aF1387.28
aF1399.98
aL4034700000L
aa(lp285
g123
(S'\x07\xdc\x04\x1b'
tRp286
aF1400.1900000000001
aF1406.6400000000001
aF1397.3099999999999
aF1403.3599999999999
aL3645830000L
aa(lp287
g123
(S'\x07\xdc\x04\x1e'
tRp288
aF1403.26
aF1403.26
aF1394
aF1397.9100000000001
aL3574010000L
aa(lp289
g123
(S'\x07\xdc\x05\x01'
tRp290
aF1397.8599999999999
aF1415.3199999999999
aF1395.73
aF1405.8199999999999
aL3807950000L
aa(lp291
g123
(S'\x07\xdc\x05\x02'
tRp292
aF1405.5
aF1405.5
aF1393.9200000000001
aF1402.3099999999999
aL3803860000L
aasg176
g123
(S'\x07\xdc\x05\x03'
tRp293
sg178
S''
sg179
S'^GSPC'
p294
sg181
g182
sg183
(lp295
sg185
g186
sg187
g123
(S'\x07\xb3\x01\x01'
tRp296
sbaa.