(lp1
(lp2
(lp3
S'Dow'
p4
aS'12,811.37'
p5
aS'-120.72'
p6
aS'-0.93%'
p7
aa(lp8
S'Nasdaq'
p9
aS'2,920.04'
p10
aS'-26.23'
p11
aS'-0.89%'
p12
aa(lp13
S'S&P 500'
p14
aS'1,350.48'
p15
aS'-13.24'
p16
aS'-0.97%'
p17
aa(lp18
S'EUR/USD'
p19
aS'1.2937'
p20
aS'-0.01'
p21
aS'-0.49%'
p22
aa(lp23
S'10-Year'
p24
aS'1.81'
p25
aS'-0.03'
p26
aS'-1.11%'
p27
aa(lp28
S'Gold'
p29
aS'1,589.60'
p30
aS'-14.90'
p31
aS'-0.93%'
p32
aa(lp33
S'Oil'
p34
aS'95.68'
p35
aS'-1.33'
p36
aS'-1.37%'
p37
aaa(lp38
(lp39
S'BAC'
p40
aS'7.76'
p41
aS'-0.04'
p42
aS'-0.45%'
p43
aa(lp44
S'SIRI'
p45
aS'2.12'
p46
aS'-0.03'
p47
aS'-1.17%'
p48
aa(lp49
S'VXX'
p50
aS'17.94'
p51
aS'0.82'
p52
aS'4.79%'
p53
aa(lp54
S'QQQ'
p55
aS'63.92'
p56
aS'-0.60'
p57
aS'-0.93%'
p58
aa(lp59
S'GE'
p60
aS'18.80'
p61
aS'-0.45'
p62
aS'-2.34%'
p63
aaa(lp64
(lp65
S'MEMS'
p66
aS'2.49'
p67
aS'-1.32'
p68
aS'-34.65%'
p69
aa(lp70
S'CQB'
p71
aS'5.64'
p72
aS'-2.38'
p73
aS'-29.68%'
p74
aa(lp75
S'AMRS'
p76
aS'1.95'
p77
aS'-0.58'
p78
aS'-22.92%'
p79
aa(lp80
S'DVAX'
p81
aS'4.00'
p82
aS'-1.09'
p83
aS'-21.41%'
p84
aa(lp85
S'ES'
p86
aS'3.47'
p87
aS'-0.67'
p88
aS'-16.18%'
p89
aaa(lp90
(lp91
S'NKBP'
p92
aS'4.62'
p93
aS'0.92'
p94
aS'24.86%'
p95
aa(lp96
S'HTH'
p97
aS'9.59'
p98
aS'1.63'
p99
aS'20.48%'
p100
aa(lp101
S'CPWM'
p102
aS'21.89'
p103
aS'3.90'
p104
aS'21.65%'
p105
aa(lp106
S'PULS'
p107
aS'2.28'
p108
aS'0.39'
p109
aS'20.63%'
p110
aa(lp111
S'EVOL'
p112
aS'6.64'
p113
aS'1.01'
p114
aS'17.94%'
p115
aaa(lp116
ccopy_reg
_reconstructor
p117
(cDataParserModule.dataParser
FinancialObject
p118
c__builtin__
object
p119
NtRp120
(dp121
S'valuesMonthly'
p122
(lp123
sS'lastUpdate'
p124
cdatetime
date
p125
(S'\x07\xdc\x05\t'
tRp126
sS'currentValue'
p127
(lp128
sS'name'
p129
S''
sS'valuesWeekly'
p130
(lp131
sS'valuesDaily'
p132
(lp133
(lp134
g125
(S'\x07\xdc\x04\t'
tRp135
aF13057.57
aF13057.57
aF12860.110000000001
aF12929.59
aL3468980000L
aa(lp136
g125
(S'\x07\xdc\x04\n'
tRp137
aF12929.59
aF12951.459999999999
aF12689.1
aF12715.93
aL4631730000L
aa(lp138
g125
(S'\x07\xdc\x04\x0b'
tRp139
aF12716.92
aF12890.91
aF12716.92
aF12805.389999999999
aL3743040000L
aa(lp140
g125
(S'\x07\xdc\x04\x0c'
tRp141
aF12806.450000000001
aF13018.82
aF12784.92
aF12986.58
aL3618280000L
aa(lp142
g125
(S'\x07\xdc\x04\r'
tRp143
aF12986.200000000001
aF12992.629999999999
aF12826.049999999999
aF12849.59
aL3631160000L
aa(lp144
g125
(S'\x07\xdc\x04\x10'
tRp145
aF12850.879999999999
aF13032.59
aF12840.51
aF12921.41
aL3574780000L
aa(lp146
g125
(S'\x07\xdc\x04\x11'
tRp147
aF12921.870000000001
aF13168.33
aF12921.870000000001
aF13115.540000000001
aL3456200000L
aa(lp148
g125
(S'\x07\xdc\x04\x12'
tRp149
aF13114.559999999999
aF13131.700000000001
aF12977.16
aF13032.75
aL3463140000L
aa(lp150
g125
(S'\x07\xdc\x04\x13'
tRp151
aF13028.73
aF13115.049999999999
aF12874.299999999999
aF12964.1
aL4180020000L
aa(lp152
g125
(S'\x07\xdc\x04\x14'
tRp153
aF12964.48
aF13127.99
aF12961
aF13029.26
aL3833320000L
aa(lp154
g125
(S'\x07\xdc\x04\x17'
tRp155
aF13028.049999999999
aF13028.049999999999
aF12810.24
aF12927.17
aL3654860000L
aa(lp156
g125
(S'\x07\xdc\x04\x18'
tRp157
aF12927.77
aF13088.75
aF12902.34
aF13001.559999999999
aL3617100000L
aa(lp158
g125
(S'\x07\xdc\x04\x19'
tRp159
aF12997.540000000001
aF13169.92
aF12972.65
aF13090.719999999999
aL3998430000L
aa(lp160
g125
(S'\x07\xdc\x04\x1a'
tRp161
aF13090.040000000001
aF13243.83
aF13044.700000000001
aF13204.620000000001
aL4034700000L
aa(lp162
g125
(S'\x07\xdc\x04\x1b'
tRp163
aF13204.700000000001
aF13311.870000000001
aF13152.82
aF13228.309999999999
aL3645830000L
aa(lp164
g125
(S'\x07\xdc\x04\x1e'
tRp165
aF13228.389999999999
aF13271.9
aF13132.799999999999
aF13213.629999999999
aL3574010000L
aa(lp166
g125
(S'\x07\xdc\x05\x01'
tRp167
aF13214.16
aF13359.620000000001
aF13152.17
aF13279.32
aL3807950000L
aa(lp168
g125
(S'\x07\xdc\x05\x02'
tRp169
aF13277.959999999999
aF13305.959999999999
aF13164.059999999999
aF13268.57
aL3803860000L
aa(lp170
g125
(S'\x07\xdc\x05\x03'
tRp171
aF13267.360000000001
aF13314.59
aF13155.58
aF13206.59
aL4004910000L
aa(lp172
g125
(S'\x07\xdc\x05\x04'
tRp173
aF13204.620000000001
aF13204.620000000001
aF13005.200000000001
aF13038.27
aL3975140000L
aa(lp174
g125
(S'\x07\xdc\x05\x07'
tRp175
aF13036
aF13080.690000000001
aF12931.629999999999
aF13008.530000000001
aL3559390000L
aa(lp176
g125
(S'\x07\xdc\x05\x08'
tRp177
aF13000.73
aF13001.190000000001
aF12789.35
aF12932.09
aL4261670000L
aasS'dailyUpdate'
p178
g125
(S'\x07\xdc\x05\t'
tRp179
sS'weeklyUpdate'
p180
g125
(S'\x07\xb3\x01\x01'
tRp181
sS'detail'
p182
S''
sS'abbreviation'
p183
S'^DJI'
p184
sS'dataSource'
p185
S'Yahoo'
p186
sS'previousValues'
p187
(lp188
sS'financialType'
p189
S'index'
p190
sS'monthlyUpdate'
p191
g125
(S'\x07\xb3\x01\x01'
tRp192
sbag117
(g118
g119
NtRp193
(dp194
g122
(lp195
sg124
g125
(S'\x07\xdc\x05\t'
tRp196
sg127
(lp197
sg129
S''
sg130
(lp198
sg132
(lp199
(lp200
g125
(S'\x07\xdc\x04\t'
tRp201
aF3037.2800000000002
aF3058.7600000000002
aF3032.2199999999998
aF3047.0799999999999
aI1371140000
aa(lp202
g125
(S'\x07\xdc\x04\n'
tRp203
aF3044.6700000000001
aF3055.1999999999998
aF2987
aF2991.2199999999998
aI1953600000
aa(lp204
g125
(S'\x07\xdc\x04\x0b'
tRp205
aF3020.1500000000001
aF3030.5100000000002
aF3008.75
aF3016.46
aI1540890000
aa(lp206
g125
(S'\x07\xdc\x04\x0c'
tRp207
aF3023.1100000000001
aF3059.2600000000002
aF3020.4400000000001
aF3055.5500000000002
aI1480340000
aa(lp208
g125
(S'\x07\xdc\x04\r'
tRp209
aF3045.0799999999999
aF3045.4200000000001
aF3010.77
aF3011.3299999999999
aI1483850000
aa(lp210
g125
(S'\x07\xdc\x04\x10'
tRp211
aF3027.5700000000002
aF3027.5700000000002
aF2975.8699999999999
aF2988.4000000000001
aI1594320000
aa(lp212
g125
(S'\x07\xdc\x04\x11'
tRp213
aF3002.02
aF3052.7600000000002
aF2999.4899999999998
aF3042.8200000000002
aI1555070000
aa(lp214
g125
(S'\x07\xdc\x04\x12'
tRp215
aF3031.8200000000002
aF3045.04
aF3023.9099999999999
aF3031.4499999999998
aI1599470000
aa(lp216
g125
(S'\x07\xdc\x04\x13'
tRp217
aF3028.1999999999998
aF3058.7199999999998
aF2994.9400000000001
aF3007.5599999999999
aI1991120000
aa(lp218
g125
(S'\x07\xdc\x04\x14'
tRp219
aF3023.73
aF3034.6900000000001
aF2999.0100000000002
aF3000.4499999999998
aI1935880000
aa(lp220
g125
(S'\x07\xdc\x04\x17'
tRp221
aF2969
aF2973.3800000000001
aF2946.04
aF2970.4499999999998
aI1767360000
aa(lp222
g125
(S'\x07\xdc\x04\x18'
tRp223
aF2967.3699999999999
aF2979.0799999999999
aF2950.3800000000001
aF2961.5999999999999
aI1690840000
aa(lp224
g125
(S'\x07\xdc\x04\x19'
tRp225
aF3013.6500000000001
aF3031.4099999999999
aF3010.5700000000002
aF3029.6300000000001
aI1721330000
aa(lp226
g125
(S'\x07\xdc\x04\x1a'
tRp227
aF3029.6199999999999
aF3056.77
aF3027.79
aF3050.6100000000001
aI1763510000
aa(lp228
g125
(S'\x07\xdc\x04\x1b'
tRp229
aF3060.3400000000001
aF3076.4400000000001
aF3043.3000000000002
aF3069.1999999999998
aI1777750000
aa(lp230
g125
(S'\x07\xdc\x04\x1e'
tRp231
aF3060.0599999999999
aF3063.6599999999999
aF3043.25
aF3046.3600000000001
aI1633170000
aa(lp232
g125
(S'\x07\xdc\x05\x01'
tRp233
aF3044.79
aF3085.4000000000001
aF3041.6199999999999
aF3050.4400000000001
aI1854230000
aa(lp234
g125
(S'\x07\xdc\x05\x02'
tRp235
aF3035.0700000000002
aF3061.4699999999998
aF3028.9400000000001
aF3059.8499999999999
aI1825190000
aa(lp236
g125
(S'\x07\xdc\x05\x03'
tRp237
aF3061.1300000000001
aF3061.3800000000001
aF3016.1999999999998
aF3024.3000000000002
aI1869130000
aa(lp238
g125
(S'\x07\xdc\x05\x04'
tRp239
aF3001.1500000000001
aF3001.48
aF2956.3400000000001
aF2956.3400000000001
aI1944010000
aa(lp240
g125
(S'\x07\xdc\x05\x07'
tRp241
aF2940.4099999999999
aF2970.1999999999998
aF2939.21
aF2957.7600000000002
aI1740430000
aa(lp242
g125
(S'\x07\xdc\x05\x08'
tRp243
aF2939.3600000000001
aF2952.6500000000001
aF2900.0599999999999
aF2946.27
aL2175840000L
aasg178
g125
(S'\x07\xdc\x05\t'
tRp244
sg180
g125
(S'\x07\xb3\x01\x01'
tRp245
sg182
S''
sg183
S'^IXIC'
p246
sg185
g186
sg187
(lp247
sg189
g190
sg191
g125
(S'\x07\xb3\x01\x01'
tRp248
sbag117
(g118
g119
NtRp249
(dp250
g122
(lp251
sg124
g125
(S'\x07\xdc\x05\t'
tRp252
sg127
(lp253
sg129
S''
sg130
(lp254
sg132
(lp255
(lp256
g125
(S'\x07\xdc\x04\t'
tRp257
aF1397.45
aF1397.45
aF1378.24
aF1382.2
aL3468980000L
aa(lp258
g125
(S'\x07\xdc\x04\n'
tRp259
aF1382.1800000000001
aF1383.01
aF1357.3800000000001
aF1358.5899999999999
aL4631730000L
aa(lp260
g125
(S'\x07\xdc\x04\x0b'
tRp261
aF1358.98
aF1374.71
aF1358.98
aF1368.71
aL3743040000L
aa(lp262
g125
(S'\x07\xdc\x04\x0c'
tRp263
aF1368.77
aF1388.1300000000001
aF1368.77
aF1387.5699999999999
aL3618280000L
aa(lp264
g125
(S'\x07\xdc\x04\r'
tRp265
aF1387.6099999999999
aF1387.6099999999999
aF1369.8499999999999
aF1370.26
aL3631160000L
aa(lp266
g125
(S'\x07\xdc\x04\x10'
tRp267
aF1370.27
aF1379.6600000000001
aF1365.3800000000001
aF1369.5699999999999
aL3574780000L
aa(lp268
g125
(S'\x07\xdc\x04\x11'
tRp269
aF1369.5699999999999
aF1392.76
aF1369.5699999999999
aF1390.78
aL3456200000L
aa(lp270
g125
(S'\x07\xdc\x04\x12'
tRp271
aF1390.78
aF1390.78
aF1383.29
aF1385.1400000000001
aL3463140000L
aa(lp272
g125
(S'\x07\xdc\x04\x13'
tRp273
aF1385.0799999999999
aF1390.46
aF1370.3
aF1376.9200000000001
aL4180020000L
aa(lp274
g125
(S'\x07\xdc\x04\x14'
tRp275
aF1376.96
aF1387.4000000000001
aF1376.96
aF1378.53
aL3833320000L
aa(lp276
g125
(S'\x07\xdc\x04\x17'
tRp277
aF1378.53
aF1378.53
aF1358.79
aF1366.9400000000001
aL3654860000L
aa(lp278
g125
(S'\x07\xdc\x04\x18'
tRp279
aF1366.97
aF1375.5699999999999
aF1366.8199999999999
aF1371.97
aL3617100000L
aa(lp280
g125
(S'\x07\xdc\x04\x19'
tRp281
aF1372.1099999999999
aF1391.3699999999999
aF1372.1099999999999
aF1390.6900000000001
aL3998430000L
aa(lp282
g125
(S'\x07\xdc\x04\x1a'
tRp283
aF1390.6400000000001
aF1402.0899999999999
aF1387.28
aF1399.98
aL4034700000L
aa(lp284
g125
(S'\x07\xdc\x04\x1b'
tRp285
aF1400.1900000000001
aF1406.6400000000001
aF1397.3099999999999
aF1403.3599999999999
aL3645830000L
aa(lp286
g125
(S'\x07\xdc\x04\x1e'
tRp287
aF1403.26
aF1403.26
aF1394
aF1397.9100000000001
aL3574010000L
aa(lp288
g125
(S'\x07\xdc\x05\x01'
tRp289
aF1397.8599999999999
aF1415.3199999999999
aF1395.73
aF1405.8199999999999
aL3807950000L
aa(lp290
g125
(S'\x07\xdc\x05\x02'
tRp291
aF1405.5
aF1405.5
aF1393.9200000000001
aF1402.3099999999999
aL3803860000L
aa(lp292
g125
(S'\x07\xdc\x05\x03'
tRp293
aF1402.3199999999999
aF1403.0699999999999
aF1388.71
aF1391.5699999999999
aL4004910000L
aa(lp294
g125
(S'\x07\xdc\x05\x04'
tRp295
aF1391.51
aF1391.51
aF1367.96
aF1369.0999999999999
aL3975140000L
aa(lp296
g125
(S'\x07\xdc\x05\x07'
tRp297
aF1368.79
aF1373.9100000000001
aF1363.9400000000001
aF1369.5799999999999
aL3559390000L
aa(lp298
g125
(S'\x07\xdc\x05\x08'
tRp299
aF1369.1600000000001
aF1369.1600000000001
aF1347.75
aF1363.72
aL4261670000L
aasg178
g125
(S'\x07\xdc\x05\t'
tRp300
sg180
g125
(S'\x07\xb3\x01\x01'
tRp301
sg182
S''
sg183
S'^GSPC'
p302
sg185
g186
sg187
(lp303
sg189
g190
sg191
g125
(S'\x07\xb3\x01\x01'
tRp304
sbag117
(g118
g119
NtRp305
(dp306
g122
(lp307
sg124
g125
(S'\x07\xb3\x01\x01'
tRp308
sg127
(lp309
sg129
S''
sg130
(lp310
sg132
(lp311
(lp312
g125
(S'\x07\xdc\x04\t'
tRp313
aF1.3097000000000001
aF1.3132999999999999
aF1.3033999999999999
aF1.3109999999999999
aa(lp314
g125
(S'\x07\xdc\x04\n'
tRp315
aF1.3109
aF1.3144
aF1.3055000000000001
aF1.3082
aa(lp316
g125
(S'\x07\xdc\x04\x0b'
tRp317
aF1.3083
aF1.3156000000000001
aF1.3066
aF1.3109999999999999
aa(lp318
g125
(S'\x07\xdc\x04\x0c'
tRp319
aF1.3109999999999999
aF1.3211999999999999
aF1.3102
aF1.3187
aa(lp320
g125
(S'\x07\xdc\x04\r'
tRp321
aF1.3188
aF1.3200000000000001
aF1.3069999999999999
aF1.3077000000000001
aa(lp322
g125
(S'\x07\xdc\x04\x10'
tRp323
aF1.3069999999999999
aF1.3147
aF1.2995000000000001
aF1.3131999999999999
aa(lp324
g125
(S'\x07\xdc\x04\x11'
tRp325
aF1.3131999999999999
aF1.3170999999999999
aF1.3089999999999999
aF1.3128
aa(lp326
g125
(S'\x07\xdc\x04\x12'
tRp327
aF1.3127
aF1.3140000000000001
aF1.3058000000000001
aF1.3119000000000001
aa(lp328
g125
(S'\x07\xdc\x04\x13'
tRp329
aF1.3119000000000001
aF1.3165
aF1.3069999999999999
aF1.3134999999999999
aa(lp330
g125
(S'\x07\xdc\x04\x14'
tRp331
aF1.3134999999999999
aF1.3227
aF1.3129
aF1.3219000000000001
aa(lp332
g125
(S'\x07\xdc\x04\x17'
tRp333
aF1.3190999999999999
aF1.321
aF1.3105
aF1.3156000000000001
aa(lp334
g125
(S'\x07\xdc\x04\x18'
tRp335
aF1.3158000000000001
aF1.3217000000000001
aF1.3145
aF1.3194999999999999
aa(lp336
g125
(S'\x07\xdc\x04\x19'
tRp337
aF1.3194999999999999
aF1.3236000000000001
aF1.3173999999999999
aF1.3223
aa(lp338
g125
(S'\x07\xdc\x04\x1a'
tRp339
aF1.3222
aF1.3262
aF1.3181
aF1.3190999999999999
aa(lp340
g125
(S'\x07\xdc\x04\x1b'
tRp341
aF1.3188
aF1.3267
aF1.3159000000000001
aF1.3255999999999999
aa(lp342
g125
(S'\x07\xdc\x04\x1e'
tRp343
aF1.3240000000000001
aF1.3264
aF1.321
aF1.3242
aa(lp344
g125
(S'\x07\xdc\x05\x01'
tRp345
aF1.3241000000000001
aF1.3279000000000001
aF1.3205
aF1.3238000000000001
aa(lp346
g125
(S'\x07\xdc\x05\x02'
tRp347
aF1.3240000000000001
aF1.3241000000000001
aF1.3125
aF1.3153999999999999
aa(lp348
g125
(S'\x07\xdc\x05\x03'
tRp349
aF1.3154999999999999
aF1.3179000000000001
aF1.3095000000000001
aF1.3151999999999999
aa(lp350
g125
(S'\x07\xdc\x05\x04'
tRp351
aF1.3151999999999999
aF1.3178000000000001
aF1.3080000000000001
aF1.3084
aa(lp352
g125
(S'\x07\xdc\x05\x07'
tRp353
aF1.3022
aF1.3064
aF1.2955000000000001
aF1.3056000000000001
aa(lp354
g125
(S'\x07\xdc\x05\x08'
tRp355
aF1.3056000000000001
aF1.3064
aF1.2982
aF1.2999000000000001
aa(lp356
g125
(S'\x07\xdc\x05\t'
tRp357
aF1.2999000000000001
aF1.3005
aF1.2961
aF1.2968999999999999
aasg178
g125
(S'\x07\xb3\x01\x01'
tRp358
sg180
g125
(S'\x07\xb3\x01\x01'
tRp359
sg182
S''
sg183
S'EURUSD'
p360
sg185
S'Stooq'
p361
sg187
(lp362
sg189
S'forex'
p363
sg191
g125
(S'\x07\xb3\x01\x01'
tRp364
sbag117
(g118
g119
NtRp365
(dp366
g122
(lp367
sg124
g308
sg127
(lp368
sg129
S''
sg130
(lp369
sg132
(lp370
(lp371
g125
(S'\x07\xdc\x04\t'
tRp372
aF2.0299999999999998
aF2.044
aF2.0190000000000001
aF2.0369999999999999
aa(lp373
g125
(S'\x07\xdc\x04\n'
tRp374
aF2.0470000000000002
aF2.0470000000000002
aF1.9650000000000001
aF1.988
aa(lp375
g125
(S'\x07\xdc\x04\x0b'
tRp376
aF2.0259999999999998
aF2.0459999999999998
aF2.0169999999999999
aF2.028
aa(lp377
g125
(S'\x07\xdc\x04\x0c'
tRp378
aF2.0369999999999999
aF2.0630000000000002
aF2.012
aF2.0489999999999999
aa(lp379
g125
(S'\x07\xdc\x04\r'
tRp380
aF2.0139999999999998
aF2.0259999999999998
aF1.9810000000000001
aF1.998
aa(lp381
g125
(S'\x07\xdc\x04\x10'
tRp382
aF1.97
aF1.998
aF1.946
aF1.974
aa(lp383
g125
(S'\x07\xdc\x04\x11'
tRp384
aF2.0019999999999998
aF2.0139999999999998
aF1.9910000000000001
aF2.0089999999999999
aa(lp385
g125
(S'\x07\xdc\x04\x12'
tRp386
aF1.988
aF1.9910000000000001
aF1.972
aF1.982
aa(lp387
g125
(S'\x07\xdc\x04\x13'
tRp388
aF1.9770000000000001
aF1.9790000000000001
aF1.9490000000000001
aF1.952
aa(lp389
g125
(S'\x07\xdc\x04\x14'
tRp390
aF1.9950000000000001
aF1.9950000000000001
aF1.9630000000000001
aF1.97
aa(lp391
g125
(S'\x07\xdc\x04\x17'
tRp392
aF1.9199999999999999
aF1.9399999999999999
aF1.9099999999999999
aF1.9299999999999999
aa(lp393
g125
(S'\x07\xdc\x04\x18'
tRp394
aF1.954
aF1.958
aF1.9370000000000001
aF1.952
aa(lp395
g125
(S'\x07\xdc\x04\x19'
tRp396
aF1.988
aF2.0350000000000001
aF1.97
aF1.984
aa(lp397
g125
(S'\x07\xdc\x04\x1a'
tRp398
aF1.954
aF1.968
aF1.9299999999999999
aF1.9590000000000001
aa(lp399
g125
(S'\x07\xdc\x04\x1b'
tRp400
aF1.9510000000000001
aF1.958
aF1.9259999999999999
aF1.9330000000000001
aa(lp401
g125
(S'\x07\xdc\x04\x1e'
tRp402
aF1.919
aF1.9239999999999999
aF1.907
aF1.915
aa(lp403
g125
(S'\x07\xdc\x05\x01'
tRp404
aF1.919
aF1.9610000000000001
aF1.8999999999999999
aF1.956
aa(lp405
g125
(S'\x07\xdc\x05\x02'
tRp406
aF1.9099999999999999
aF1.9379999999999999
aF1.8999999999999999
aF1.9219999999999999
aa(lp407
g125
(S'\x07\xdc\x05\x03'
tRp408
aF1.9239999999999999
aF1.956
aF1.915
aF1.9239999999999999
aa(lp409
g125
(S'\x07\xdc\x05\x04'
tRp410
aF1.9359999999999999
aF1.954
aF1.873
aF1.8799999999999999
aa(lp411
g125
(S'\x07\xdc\x05\x07'
tRp412
aF1.873
aF1.8819999999999999
aF1.8600000000000001
aF1.877
aa(lp413
g125
(S'\x07\xdc\x05\x08'
tRp414
aF1.8540000000000001
aF1.861
aF1.8160000000000001
aF1.837
aasg178
g125
(S'\x07\xb3\x01\x01'
tRp415
sg180
g125
(S'\x07\xb3\x01\x01'
tRp416
sg182
S''
sg183
S'10USY.B'
p417
sg185
g361
sg187
(lp418
sg189
S'bond'
p419
sg191
g125
(S'\x07\xb3\x01\x01'
tRp420
sbag117
(g118
g119
NtRp421
(dp422
g122
(lp423
sg124
g308
sg127
(lp424
sg129
S''
sg130
(lp425
sg132
(lp426
(lp427
g125
(S'\x07\xdc\x04\t'
tRp428
aF1643.3099999999999
aF1648.8800000000001
aF1635.6400000000001
aF1640.4200000000001
aa(lp429
g125
(S'\x07\xdc\x04\n'
tRp430
aF1641.3399999999999
aF1663.3
aF1632.04
aF1659.5699999999999
aa(lp431
g125
(S'\x07\xdc\x04\x0b'
tRp432
aF1659.45
aF1662.6300000000001
aF1653.27
aF1659.3900000000001
aa(lp433
g125
(S'\x07\xdc\x04\x0c'
tRp434
aF1659.24
aF1680.23
aF1650.76
aF1675.0699999999999
aa(lp435
g125
(S'\x07\xdc\x04\r'
tRp436
aF1675.3699999999999
aF1678.01
aF1649.6099999999999
aF1658.4100000000001
aa(lp437
g125
(S'\x07\xdc\x04\x10'
tRp438
aF1655.9300000000001
aF1657.8399999999999
aF1641.47
aF1652.95
aa(lp439
g125
(S'\x07\xdc\x04\x11'
tRp440
aF1652.6900000000001
aF1657.51
aF1634.6700000000001
aF1650.1700000000001
aa(lp441
g125
(S'\x07\xdc\x04\x12'
tRp442
aF1650.21
aF1654.4000000000001
aF1637.99
aF1642.1700000000001
aa(lp443
g125
(S'\x07\xdc\x04\x13'
tRp444
aF1642
aF1653.97
aF1631.48
aF1642.76
aa(lp445
g125
(S'\x07\xdc\x04\x14'
tRp446
aF1642.6800000000001
aF1647.27
aF1638.71
aF1642.97
aa(lp447
g125
(S'\x07\xdc\x04\x17'
tRp448
aF1642.1500000000001
aF1643.3900000000001
aF1623.5799999999999
aF1638.4300000000001
aa(lp449
g125
(S'\x07\xdc\x04\x18'
tRp450
aF1638.6700000000001
aF1649.21
aF1634.1500000000001
aF1641.5799999999999
aa(lp451
g125
(S'\x07\xdc\x04\x19'
tRp452
aF1640.9300000000001
aF1646.3900000000001
aF1625.1199999999999
aF1644.1300000000001
aa(lp453
g125
(S'\x07\xdc\x04\x1a'
tRp454
aF1644.3399999999999
aF1660.8900000000001
aF1641.7
aF1654.9000000000001
aa(lp455
g125
(S'\x07\xdc\x04\x1b'
tRp456
aF1655.5
aF1666.5999999999999
aF1650.5
aF1662.3
aa(lp457
g125
(S'\x07\xdc\x04\x1e'
tRp458
aF1663.7
aF1665.8
aF1647.5999999999999
aF1663.7
aa(lp459
g125
(S'\x07\xdc\x05\x01'
tRp460
aF1665.2
aF1670.8
aF1657.3
aF1660.4000000000001
aa(lp461
g125
(S'\x07\xdc\x05\x02'
tRp462
aF1662.2
aF1662.5999999999999
aF1646.9000000000001
aF1651.5999999999999
aa(lp463
g125
(S'\x07\xdc\x05\x03'
tRp464
aF1651.9000000000001
aF1652.9000000000001
aF1631.3
aF1635.5
aa(lp465
g125
(S'\x07\xdc\x05\x04'
tRp466
aF1635.5999999999999
aF1646.9000000000001
aF1626.9000000000001
aF1641.8
aa(lp467
g125
(S'\x07\xdc\x05\x07'
tRp468
aF1638.3
aF1642.0999999999999
aF1633.2
aF1636.3
aa(lp469
g125
(S'\x07\xdc\x05\x08'
tRp470
aF1638.1700000000001
aF1638.53
aF1595.1400000000001
aF1605.3199999999999
aa(lp471
g125
(S'\x07\xdc\x05\t'
tRp472
aF1604.9200000000001
aF1605.0799999999999
aF1580.9000000000001
aF1586.4300000000001
aasg178
g125
(S'\x07\xb3\x01\x01'
tRp473
sg180
g125
(S'\x07\xb3\x01\x01'
tRp474
sg182
S''
sg183
S'XAUUSD'
p475
sg185
g361
sg187
(lp476
sg189
S'resource'
p477
sg191
g125
(S'\x07\xb3\x01\x01'
tRp478
sbag117
(g118
g119
NtRp479
(dp480
g122
(lp481
sg124
g308
sg127
(lp482
sg129
S''
sg130
(lp483
sg132
(lp484
(lp485
g125
(S'\x07\xdc\x04\t'
tRp486
aF102.45
aF102.58
aF100.86
aF102.16
aa(lp487
g125
(S'\x07\xdc\x04\n'
tRp488
aF102.28
aF102.94
aF100.7
aF100.94
aa(lp489
g125
(S'\x07\xdc\x04\x0b'
tRp490
aF100.95
aF103.12
aF100.86
aF102.56999999999999
aa(lp491
g125
(S'\x07\xdc\x04\x0c'
tRp492
aF102.55
aF104.22
aF102.40000000000001
aF103.64
aa(lp493
g125
(S'\x07\xdc\x04\r'
tRp494
aF103.67
aF103.89
aF102.61
aF102.86
aa(lp495
g125
(S'\x07\xdc\x04\x10'
tRp496
aF103.34999999999999
aF103.83
aF102.3
aF103.59
aa(lp497
g125
(S'\x07\xdc\x04\x11'
tRp498
aF103.58
aF105.45999999999999
aF103.11
aF104.7
aa(lp499
g125
(S'\x07\xdc\x04\x12'
tRp500
aF104.68000000000001
aF104.94
aF102.66
aF103.22
aa(lp501
g125
(S'\x07\xdc\x04\x13'
tRp502
aF103.2
aF103.66
aF102.14
aF103.06999999999999
aa(lp503
g125
(S'\x07\xdc\x04\x14'
tRp504
aF103.03
aF104.67
aF102.86
aF104.08
aa(lp505
g125
(S'\x07\xdc\x04\x17'
tRp506
aF103.8
aF103.91
aF101.84
aF103.08
aa(lp507
g125
(S'\x07\xdc\x04\x18'
tRp508
aF103.06
aF104.09
aF102.8
aF103.8
aa(lp509
g125
(S'\x07\xdc\x04\x19'
tRp510
aF103.77
aF104.55
aF103.11
aF103.95999999999999
aa(lp511
g125
(S'\x07\xdc\x04\x1a'
tRp512
aF103.97
aF104.91
aF103.86
aF104.16
aa(lp513
g125
(S'\x07\xdc\x04\x1b'
tRp514
aF104.05
aF104.98
aF103.75
aF104.78
aa(lp515
g125
(S'\x07\xdc\x04\x1e'
tRp516
aF104.89
aF105.11
aF103.89
aF104.89
aa(lp517
g125
(S'\x07\xdc\x05\x01'
tRp518
aF104.92
aF106.42
aF104.41
aF105.98999999999999
aa(lp519
g125
(S'\x07\xdc\x05\x02'
tRp520
aF106.01000000000001
aF106.05
aF104.97
aF105.39
aa(lp521
g125
(S'\x07\xdc\x05\x03'
tRp522
aF105.37
aF105.42
aF102.39
aF102.45
aa(lp523
g125
(S'\x07\xdc\x05\x04'
tRp524
aF102.65000000000001
aF102.72
aF97.530000000000001
aF98.549999999999997
aa(lp525
g125
(S'\x07\xdc\x05\x07'
tRp526
aF98.239999999999995
aF98.239999999999995
aF95.420000000000002
aF97.989999999999995
aa(lp527
g125
(S'\x07\xdc\x05\x08'
tRp528
aF97.959999999999994
aF98.120000000000005
aF95.549999999999997
aF97.390000000000001
aa(lp529
g125
(S'\x07\xdc\x05\t'
tRp530
aF97.359999999999999
aF97.359999999999999
aF96.079999999999998
aF96.269999999999996
aasg178
g125
(S'\x07\xb3\x01\x01'
tRp531
sg180
g125
(S'\x07\xb3\x01\x01'
tRp532
sg182
S''
sg183
S'CL.F'
p533
sg185
g361
sg187
(lp534
sg189
g477
sg191
g125
(S'\x07\xb3\x01\x01'
tRp535
sbaa.