(lp1
(lp2
(lp3
S'Dow'
p4
aS'12,369.38'
p5
aS'-73.11'
p6
aS'-0.59%'
p7
aa(lp8
S'Nasdaq'
p9
aS'2,778.79'
p10
aS'-34.90'
p11
aS'-1.24%'
p12
aa(lp13
S'S&P 500'
p14
aS'1,295.22'
p15
aS'-9.64'
p16
aS'-0.74%'
p17
aa(lp18
S'EUR/USD'
p19
aS'1.2761'
p20
aS'0.01'
p21
aS'+0.58%'
p22
aa(lp23
S'Gold'
p24
aS'1,591.80'
p25
aS'16.90'
p26
aS'+1.07%'
p27
aa(lp28
S'Oil'
p29
aS'91.330002'
p30
aS'-1.23'
p31
aS'-1.33%'
p32
aaa(lp33
(lp34
S'FB'
p35
aS'38.23'
p36
aS'0.23'
p37
aS'0.61%'
p38
aa(lp39
S'BAC'
p40
aS'7.02'
p41
aS'0.04'
p42
aS'0.57%'
p43
aa(lp44
S'SIRI'
p45
aS'1.89'
p46
aS'0.06'
p47
aS'3.01%'
p48
aa(lp49
S'VXX'
p50
aS'22.36'
p51
aS'1.36'
p52
aS'6.48%'
p53
aa(lp54
S'JPM'
p55
aS'33.49'
p56
aS'-0.44'
p57
aS'-1.30%'
p58
aaa(lp59
(lp60
S'SVVC'
p61
aS'19.27'
p62
aS'-7.53'
p63
aS'-28.10%'
p64
aa(lp65
S'SMT'
p66
aS'1.45'
p67
aS'-0.50'
p68
aS'-25.64%'
p69
aa(lp70
S'QPSA'
p71
aS'3.06'
p72
aS'-0.85'
p73
aS'-21.74%'
p74
aa(lp75
S'GU'
p76
aS'0.84'
p77
aS'-0.23'
p78
aS'-21.50%'
p79
aa(lp80
S'RENN'
p81
aS'4.93'
p82
aS'-1.31'
p83
aS'-20.99%'
p84
aaa(lp85
(lp86
S'ROSG'
p87
aS'5.50'
p88
aS'1.55'
p89
aS'39.24%'
p90
aa(lp91
S'BWS'
p92
aS'10.99'
p93
aS'2.23'
p94
aS'25.46%'
p95
aa(lp96
S'NEWL'
p97
aS'1.75'
p98
aS'0.25'
p99
aS'16.67%'
p100
aa(lp101
S'HMNY'
p102
aS'2.65'
p103
aS'0.35'
p104
aS'15.22%'
p105
aa(lp106
S'VELT'
p107
aS'6.76'
p108
aS'0.85'
p109
aS'14.38%'
p110
aaa(lp111
ccopy_reg
_reconstructor
p112
(cDataParserModule.dataParser
FinancialObject
p113
c__builtin__
object
p114
NtRp115
(dp116
S'valuesMonthly'
p117
(lp118
sS'lastUpdate'
p119
cdatetime
date
p120
(S'\x07\xdc\x05\x14'
tRp121
sS'currentValue'
p122
(lp123
sS'name'
p124
S''
sS'valuesWeekly'
p125
(lp126
sS'weeklyUpdate'
p127
g120
(S'\x07\xb3\x01\x01'
tRp128
sS'valuesDaily'
p129
(lp130
(lp131
g120
(S'\x07\xdc\x04\x14'
tRp132
aF12964.48
aF13127.99
aF12961
aF13029.26
aL3833320000L
aa(lp133
g120
(S'\x07\xdc\x04\x17'
tRp134
aF13028.049999999999
aF13028.049999999999
aF12810.24
aF12927.17
aL3654860000L
aa(lp135
g120
(S'\x07\xdc\x04\x18'
tRp136
aF12927.77
aF13088.75
aF12902.34
aF13001.559999999999
aL3617100000L
aa(lp137
g120
(S'\x07\xdc\x04\x19'
tRp138
aF12997.540000000001
aF13169.92
aF12972.65
aF13090.719999999999
aL3998430000L
aa(lp139
g120
(S'\x07\xdc\x04\x1a'
tRp140
aF13090.040000000001
aF13243.83
aF13044.700000000001
aF13204.620000000001
aL4034700000L
aa(lp141
g120
(S'\x07\xdc\x04\x1b'
tRp142
aF13204.700000000001
aF13311.870000000001
aF13152.82
aF13228.309999999999
aL3645830000L
aa(lp143
g120
(S'\x07\xdc\x04\x1e'
tRp144
aF13228.389999999999
aF13271.9
aF13132.799999999999
aF13213.629999999999
aL3574010000L
aa(lp145
g120
(S'\x07\xdc\x05\x01'
tRp146
aF13214.16
aF13359.620000000001
aF13152.17
aF13279.32
aL3807950000L
aa(lp147
g120
(S'\x07\xdc\x05\x02'
tRp148
aF13277.959999999999
aF13305.959999999999
aF13164.059999999999
aF13268.57
aL3803860000L
aa(lp149
g120
(S'\x07\xdc\x05\x03'
tRp150
aF13267.360000000001
aF13314.59
aF13155.58
aF13206.59
aL4004910000L
aa(lp151
g120
(S'\x07\xdc\x05\x04'
tRp152
aF13204.620000000001
aF13204.620000000001
aF13005.200000000001
aF13038.27
aL3975140000L
aa(lp153
g120
(S'\x07\xdc\x05\x07'
tRp154
aF13036
aF13080.690000000001
aF12931.629999999999
aF13008.530000000001
aL3559390000L
aa(lp155
g120
(S'\x07\xdc\x05\x08'
tRp156
aF13000.73
aF13001.190000000001
aF12789.35
aF12932.09
aL4261670000L
aa(lp157
g120
(S'\x07\xdc\x05\t'
tRp158
aF12921.66
aF12947.49
aF12728.690000000001
aF12835.059999999999
aL4288540000L
aa(lp159
g120
(S'\x07\xdc\x05\n'
tRp160
aF12831.58
aF12972.92
aF12804.75
aF12855.040000000001
aL3727990000L
aa(lp161
g120
(S'\x07\xdc\x05\x0b'
tRp162
aF12851.790000000001
aF12933.07
aF12740.99
aF12820.6
aL3869070000L
aa(lp163
g120
(S'\x07\xdc\x05\x0e'
tRp164
aF12818.860000000001
aF12818.860000000001
aF12634.01
aF12695.35
aL3688120000L
aa(lp165
g120
(S'\x07\xdc\x05\x0f'
tRp166
aF12694.82
aF12795.74
aF12583.68
aF12632
aL4114040000L
aa(lp167
g120
(S'\x07\xdc\x05\x10'
tRp168
aF12617.389999999999
aF12764.709999999999
aF12559.57
aF12598.549999999999
aL4280420000L
aa(lp169
g120
(S'\x07\xdc\x05\x11'
tRp170
aF12598.469999999999
aF12670.219999999999
aF12415.85
aF12442.49
aL4664280000L
aa(lp171
g120
(S'\x07\xdc\x05\x12'
tRp172
aF12442.940000000001
aF12539.52
aF12309.629999999999
aF12369.379999999999
aL4512470000L
aasS'dailyUpdate'
p173
g120
(S'\x07\xdc\x05\x14'
tRp174
sS'detail'
p175
S''
sS'abbreviation'
p176
S'^DJI'
p177
sS'dataSource'
p178
S'Yahoo'
p179
sS'previousValues'
p180
(lp181
sS'financialType'
p182
S'index'
p183
sS'monthlyUpdate'
p184
g120
(S'\x07\xb3\x01\x01'
tRp185
sbag112
(g113
g114
NtRp186
(dp187
g117
(lp188
sg119
g120
(S'\x07\xdc\x05\x14'
tRp189
sg122
(lp190
sg124
S''
sg125
(lp191
sg127
g120
(S'\x07\xb3\x01\x01'
tRp192
sg129
(lp193
(lp194
g120
(S'\x07\xdc\x04\x14'
tRp195
aF3023.73
aF3034.6900000000001
aF2999.0100000000002
aF3000.4499999999998
aI1935880000
aa(lp196
g120
(S'\x07\xdc\x04\x17'
tRp197
aF2969
aF2973.3800000000001
aF2946.04
aF2970.4499999999998
aI1767360000
aa(lp198
g120
(S'\x07\xdc\x04\x18'
tRp199
aF2967.3699999999999
aF2979.0799999999999
aF2950.3800000000001
aF2961.5999999999999
aI1690840000
aa(lp200
g120
(S'\x07\xdc\x04\x19'
tRp201
aF3013.6500000000001
aF3031.4099999999999
aF3010.5700000000002
aF3029.6300000000001
aI1721330000
aa(lp202
g120
(S'\x07\xdc\x04\x1a'
tRp203
aF3029.6199999999999
aF3056.77
aF3027.79
aF3050.6100000000001
aI1763510000
aa(lp204
g120
(S'\x07\xdc\x04\x1b'
tRp205
aF3060.3400000000001
aF3076.4400000000001
aF3043.3000000000002
aF3069.1999999999998
aI1777750000
aa(lp206
g120
(S'\x07\xdc\x04\x1e'
tRp207
aF3060.0599999999999
aF3063.6599999999999
aF3043.25
aF3046.3600000000001
aI1633170000
aa(lp208
g120
(S'\x07\xdc\x05\x01'
tRp209
aF3044.79
aF3085.4000000000001
aF3041.6199999999999
aF3050.4400000000001
aI1854230000
aa(lp210
g120
(S'\x07\xdc\x05\x02'
tRp211
aF3035.0700000000002
aF3061.4699999999998
aF3028.9400000000001
aF3059.8499999999999
aI1825190000
aa(lp212
g120
(S'\x07\xdc\x05\x03'
tRp213
aF3061.1300000000001
aF3061.3800000000001
aF3016.1999999999998
aF3024.3000000000002
aI1869130000
aa(lp214
g120
(S'\x07\xdc\x05\x04'
tRp215
aF3001.1500000000001
aF3001.48
aF2956.3400000000001
aF2956.3400000000001
aI1944010000
aa(lp216
g120
(S'\x07\xdc\x05\x07'
tRp217
aF2940.4099999999999
aF2970.1999999999998
aF2939.21
aF2957.7600000000002
aI1740430000
aa(lp218
g120
(S'\x07\xdc\x05\x08'
tRp219
aF2939.3600000000001
aF2952.6500000000001
aF2900.0599999999999
aF2946.27
aL2175840000L
aa(lp220
g120
(S'\x07\xdc\x05\t'
tRp221
aF2912.4099999999999
aF2948.77
aF2900.1799999999998
aF2934.71
aI2047090000
aa(lp222
g120
(S'\x07\xdc\x05\n'
tRp223
aF2950.21
aF2950.21
aF2923.1399999999999
aF2933.6399999999999
aI2004150000
aa(lp224
g120
(S'\x07\xdc\x05\x0b'
tRp225
aF2919.3499999999999
aF2960.3800000000001
aF2918.7399999999998
aF2933.8200000000002
aI1735380000
aa(lp226
g120
(S'\x07\xdc\x05\x0e'
tRp227
aF2907.7800000000002
aF2924.8899999999999
aF2898.9000000000001
aF2902.5799999999999
aI1683460000
aa(lp228
g120
(S'\x07\xdc\x05\x0f'
tRp229
aF2902.3000000000002
aF2930.6799999999998
aF2889.3899999999999
aF2893.7600000000002
aI1826210000
aa(lp230
g120
(S'\x07\xdc\x05\x10'
tRp231
aF2904.6700000000001
aF2913.9000000000001
aF2872.25
aF2874.04
aI1933900000
aa(lp232
g120
(S'\x07\xdc\x05\x11'
tRp233
aF2874.71
aF2879.2199999999998
aF2813.6900000000001
aF2813.6900000000001
aI2016980000
aa(lp234
g120
(S'\x07\xdc\x05\x12'
tRp235
aF2814.4299999999998
aF2827.2800000000002
aF2774.4499999999998
aF2778.79
aL2692450000L
aasg173
g120
(S'\x07\xdc\x05\x14'
tRp236
sg175
S''
sg176
S'^IXIC'
p237
sg178
g179
sg180
(lp238
sg182
g183
sg184
g120
(S'\x07\xb3\x01\x01'
tRp239
sbag112
(g113
g114
NtRp240
(dp241
g117
(lp242
sg119
g120
(S'\x07\xdc\x05\x14'
tRp243
sg122
(lp244
sg124
S''
sg125
(lp245
sg127
g120
(S'\x07\xb3\x01\x01'
tRp246
sg129
(lp247
(lp248
g120
(S'\x07\xdc\x04\x14'
tRp249
aF1376.96
aF1387.4000000000001
aF1376.96
aF1378.53
aL3833320000L
aa(lp250
g120
(S'\x07\xdc\x04\x17'
tRp251
aF1378.53
aF1378.53
aF1358.79
aF1366.9400000000001
aL3654860000L
aa(lp252
g120
(S'\x07\xdc\x04\x18'
tRp253
aF1366.97
aF1375.5699999999999
aF1366.8199999999999
aF1371.97
aL3617100000L
aa(lp254
g120
(S'\x07\xdc\x04\x19'
tRp255
aF1372.1099999999999
aF1391.3699999999999
aF1372.1099999999999
aF1390.6900000000001
aL3998430000L
aa(lp256
g120
(S'\x07\xdc\x04\x1a'
tRp257
aF1390.6400000000001
aF1402.0899999999999
aF1387.28
aF1399.98
aL4034700000L
aa(lp258
g120
(S'\x07\xdc\x04\x1b'
tRp259
aF1400.1900000000001
aF1406.6400000000001
aF1397.3099999999999
aF1403.3599999999999
aL3645830000L
aa(lp260
g120
(S'\x07\xdc\x04\x1e'
tRp261
aF1403.26
aF1403.26
aF1394
aF1397.9100000000001
aL3574010000L
aa(lp262
g120
(S'\x07\xdc\x05\x01'
tRp263
aF1397.8599999999999
aF1415.3199999999999
aF1395.73
aF1405.8199999999999
aL3807950000L
aa(lp264
g120
(S'\x07\xdc\x05\x02'
tRp265
aF1405.5
aF1405.5
aF1393.9200000000001
aF1402.3099999999999
aL3803860000L
aa(lp266
g120
(S'\x07\xdc\x05\x03'
tRp267
aF1402.3199999999999
aF1403.0699999999999
aF1388.71
aF1391.5699999999999
aL4004910000L
aa(lp268
g120
(S'\x07\xdc\x05\x04'
tRp269
aF1391.51
aF1391.51
aF1367.96
aF1369.0999999999999
aL3975140000L
aa(lp270
g120
(S'\x07\xdc\x05\x07'
tRp271
aF1368.79
aF1373.9100000000001
aF1363.9400000000001
aF1369.5799999999999
aL3559390000L
aa(lp272
g120
(S'\x07\xdc\x05\x08'
tRp273
aF1369.1600000000001
aF1369.1600000000001
aF1347.75
aF1363.72
aL4261670000L
aa(lp274
g120
(S'\x07\xdc\x05\t'
tRp275
aF1363.2
aF1363.73
aF1343.1300000000001
aF1354.5799999999999
aL4288540000L
aa(lp276
g120
(S'\x07\xdc\x05\n'
tRp277
aF1354.5799999999999
aF1365.8800000000001
aF1354.5799999999999
aF1357.99
aL3727990000L
aa(lp278
g120
(S'\x07\xdc\x05\x0b'
tRp279
aF1358.1099999999999
aF1365.6600000000001
aF1348.8900000000001
aF1353.3900000000001
aL3869070000L
aa(lp280
g120
(S'\x07\xdc\x05\x0e'
tRp281
aF1351.9300000000001
aF1351.9300000000001
aF1336.6099999999999
aF1338.3499999999999
aL3688120000L
aa(lp282
g120
(S'\x07\xdc\x05\x0f'
tRp283
aF1338.3599999999999
aF1344.9400000000001
aF1328.4100000000001
aF1330.6600000000001
aL4114040000L
aa(lp284
g120
(S'\x07\xdc\x05\x10'
tRp285
aF1330.78
aF1341.78
aF1324.79
aF1324.8
aL4280420000L
aa(lp286
g120
(S'\x07\xdc\x05\x11'
tRp287
aF1324.8199999999999
aF1326.3599999999999
aF1304.8599999999999
aF1304.8599999999999
aL4664280000L
aa(lp288
g120
(S'\x07\xdc\x05\x12'
tRp289
aF1305.05
aF1312.24
aF1291.98
aF1295.22
aL4512470000L
aasg173
g120
(S'\x07\xdc\x05\x14'
tRp290
sg175
S''
sg176
S'^GSPC'
p291
sg178
g179
sg180
(lp292
sg182
g183
sg184
g120
(S'\x07\xb3\x01\x01'
tRp293
sbag112
(g113
g114
NtRp294
(dp295
g117
(lp296
sg119
g120
(S'\x07\xb3\x01\x01'
tRp297
sg122
(lp298
sg124
S''
sg125
(lp299
sg127
g120
(S'\x07\xb3\x01\x01'
tRp300
sg129
(lp301
(lp302
g120
(S'\x07\xdc\x04\x14'
tRp303
aF1.3134999999999999
aF1.3227
aF1.3129
aF1.3219000000000001
aa(lp304
g120
(S'\x07\xdc\x04\x17'
tRp305
aF1.3190999999999999
aF1.321
aF1.3105
aF1.3156000000000001
aa(lp306
g120
(S'\x07\xdc\x04\x18'
tRp307
aF1.3158000000000001
aF1.3217000000000001
aF1.3145
aF1.3194999999999999
aa(lp308
g120
(S'\x07\xdc\x04\x19'
tRp309
aF1.3194999999999999
aF1.3236000000000001
aF1.3173999999999999
aF1.3223
aa(lp310
g120
(S'\x07\xdc\x04\x1a'
tRp311
aF1.3222
aF1.3262
aF1.3181
aF1.3190999999999999
aa(lp312
g120
(S'\x07\xdc\x04\x1b'
tRp313
aF1.3188
aF1.3267
aF1.3159000000000001
aF1.3255999999999999
aa(lp314
g120
(S'\x07\xdc\x04\x1e'
tRp315
aF1.3240000000000001
aF1.3264
aF1.321
aF1.3242
aa(lp316
g120
(S'\x07\xdc\x05\x01'
tRp317
aF1.3241000000000001
aF1.3279000000000001
aF1.3205
aF1.3238000000000001
aa(lp318
g120
(S'\x07\xdc\x05\x02'
tRp319
aF1.3240000000000001
aF1.3241000000000001
aF1.3125
aF1.3153999999999999
aa(lp320
g120
(S'\x07\xdc\x05\x03'
tRp321
aF1.3154999999999999
aF1.3179000000000001
aF1.3095000000000001
aF1.3151999999999999
aa(lp322
g120
(S'\x07\xdc\x05\x04'
tRp323
aF1.3151999999999999
aF1.3178000000000001
aF1.3080000000000001
aF1.3084
aa(lp324
g120
(S'\x07\xdc\x05\x07'
tRp325
aF1.3022
aF1.3064
aF1.2955000000000001
aF1.3056000000000001
aa(lp326
g120
(S'\x07\xdc\x05\x08'
tRp327
aF1.3056000000000001
aF1.3064
aF1.2982
aF1.2999000000000001
aa(lp328
g120
(S'\x07\xdc\x05\t'
tRp329
aF1.2999000000000001
aF1.3005
aF1.2909999999999999
aF1.2934000000000001
aa(lp330
g120
(S'\x07\xdc\x05\n'
tRp331
aF1.2934000000000001
aF1.2977000000000001
aF1.2924
aF1.2930999999999999
aa(lp332
g120
(S'\x07\xdc\x05\x0b'
tRp333
aF1.2930999999999999
aF1.2955000000000001
aF1.2904
aF1.2916000000000001
aa(lp334
g120
(S'\x07\xdc\x05\x0e'
tRp335
aF1.2886
aF1.2903
aF1.2821
aF1.2825
aa(lp336
g120
(S'\x07\xdc\x05\x0f'
tRp337
aF1.2825
aF1.2867999999999999
aF1.2722
aF1.2733000000000001
aa(lp338
g120
(S'\x07\xdc\x05\x10'
tRp339
aF1.2733000000000001
aF1.2757000000000001
aF1.2681
aF1.2716000000000001
aa(lp340
g120
(S'\x07\xdc\x05\x11'
tRp341
aF1.2716000000000001
aF1.2747999999999999
aF1.2665999999999999
aF1.2681
aa(lp342
g120
(S'\x07\xdc\x05\x12'
tRp343
aF1.2683
aF1.2793000000000001
aF1.2642
aF1.2775000000000001
aasg173
g120
(S'\x07\xb3\x01\x01'
tRp344
sg175
S''
sg176
S'EURUSD'
p345
sg178
S'Stooq'
p346
sg180
(lp347
sg182
S'forex'
p348
sg184
g120
(S'\x07\xb3\x01\x01'
tRp349
sbag112
(g113
g114
NtRp350
(dp351
g117
(lp352
sg119
g297
sg122
(lp353
sg124
S''
sg125
(lp354
sg127
g120
(S'\x07\xb3\x01\x01'
tRp355
sg129
(lp356
(lp357
g120
(S'\x07\xdc\x04\x14'
tRp358
aF1.9950000000000001
aF1.9950000000000001
aF1.9630000000000001
aF1.97
aa(lp359
g120
(S'\x07\xdc\x04\x17'
tRp360
aF1.9199999999999999
aF1.9399999999999999
aF1.9099999999999999
aF1.9299999999999999
aa(lp361
g120
(S'\x07\xdc\x04\x18'
tRp362
aF1.954
aF1.958
aF1.9370000000000001
aF1.952
aa(lp363
g120
(S'\x07\xdc\x04\x19'
tRp364
aF1.988
aF2.0350000000000001
aF1.97
aF1.984
aa(lp365
g120
(S'\x07\xdc\x04\x1a'
tRp366
aF1.954
aF1.968
aF1.9299999999999999
aF1.9590000000000001
aa(lp367
g120
(S'\x07\xdc\x04\x1b'
tRp368
aF1.9510000000000001
aF1.958
aF1.9259999999999999
aF1.9330000000000001
aa(lp369
g120
(S'\x07\xdc\x04\x1e'
tRp370
aF1.919
aF1.9239999999999999
aF1.907
aF1.915
aa(lp371
g120
(S'\x07\xdc\x05\x01'
tRp372
aF1.919
aF1.9610000000000001
aF1.8999999999999999
aF1.956
aa(lp373
g120
(S'\x07\xdc\x05\x02'
tRp374
aF1.9099999999999999
aF1.9379999999999999
aF1.8999999999999999
aF1.9219999999999999
aa(lp375
g120
(S'\x07\xdc\x05\x03'
tRp376
aF1.9239999999999999
aF1.956
aF1.915
aF1.9239999999999999
aa(lp377
g120
(S'\x07\xdc\x05\x04'
tRp378
aF1.9359999999999999
aF1.954
aF1.873
aF1.8799999999999999
aa(lp379
g120
(S'\x07\xdc\x05\x07'
tRp380
aF1.873
aF1.8819999999999999
aF1.8600000000000001
aF1.877
aa(lp381
g120
(S'\x07\xdc\x05\x08'
tRp382
aF1.8540000000000001
aF1.861
aF1.8160000000000001
aF1.837
aa(lp383
g120
(S'\x07\xdc\x05\t'
tRp384
aF1.8
aF1.845
aF1.7929999999999999
aF1.835
aa(lp385
g120
(S'\x07\xdc\x05\n'
tRp386
aF1.895
aF1.921
aF1.883
aF1.8839999999999999
aa(lp387
g120
(S'\x07\xdc\x05\x0b'
tRp388
aF1.851
aF1.8620000000000001
aF1.8380000000000001
aF1.841
aa(lp389
g120
(S'\x07\xdc\x05\x0e'
tRp390
aF1.7809999999999999
aF1.798
aF1.7669999999999999
aF1.788
aa(lp391
g120
(S'\x07\xdc\x05\x0f'
tRp392
aF1.7929999999999999
aF1.8100000000000001
aF1.7669999999999999
aF1.7769999999999999
aa(lp393
g120
(S'\x07\xdc\x05\x10'
tRp394
aF1.8100000000000001
aF1.819
aF1.752
aF1.7649999999999999
aa(lp395
g120
(S'\x07\xdc\x05\x11'
tRp396
aF1.7709999999999999
aF1.776
aF1.702
aF1.702
aa(lp397
g120
(S'\x07\xdc\x05\x12'
tRp398
aF1.718
aF1.7410000000000001
aF1.7
aF1.702
aasg173
g120
(S'\x07\xb3\x01\x01'
tRp399
sg175
S''
sg176
S'10USY.B'
p400
sg178
g346
sg180
(lp401
sg182
S'bond'
p402
sg184
g120
(S'\x07\xb3\x01\x01'
tRp403
sbag112
(g113
g114
NtRp404
(dp405
g117
(lp406
sg119
g297
sg122
(lp407
sg124
S''
sg125
(lp408
sg127
g120
(S'\x07\xb3\x01\x01'
tRp409
sg129
(lp410
(lp411
g120
(S'\x07\xdc\x04\x14'
tRp412
aF1642.6800000000001
aF1647.27
aF1638.71
aF1642.97
aa(lp413
g120
(S'\x07\xdc\x04\x17'
tRp414
aF1642.1500000000001
aF1643.3900000000001
aF1623.5799999999999
aF1638.4300000000001
aa(lp415
g120
(S'\x07\xdc\x04\x18'
tRp416
aF1638.6700000000001
aF1649.21
aF1634.1500000000001
aF1641.5799999999999
aa(lp417
g120
(S'\x07\xdc\x04\x19'
tRp418
aF1640.9300000000001
aF1646.3900000000001
aF1625.1199999999999
aF1644.1300000000001
aa(lp419
g120
(S'\x07\xdc\x04\x1a'
tRp420
aF1644.3399999999999
aF1660.8900000000001
aF1641.7
aF1654.9000000000001
aa(lp421
g120
(S'\x07\xdc\x04\x1b'
tRp422
aF1655.5
aF1666.5999999999999
aF1650.5
aF1662.3
aa(lp423
g120
(S'\x07\xdc\x04\x1e'
tRp424
aF1663.7
aF1665.8
aF1647.5999999999999
aF1663.7
aa(lp425
g120
(S'\x07\xdc\x05\x01'
tRp426
aF1665.2
aF1670.8
aF1657.3
aF1660.4000000000001
aa(lp427
g120
(S'\x07\xdc\x05\x02'
tRp428
aF1662.2
aF1662.5999999999999
aF1646.9000000000001
aF1651.5999999999999
aa(lp429
g120
(S'\x07\xdc\x05\x03'
tRp430
aF1651.9000000000001
aF1652.9000000000001
aF1631.3
aF1635.5
aa(lp431
g120
(S'\x07\xdc\x05\x04'
tRp432
aF1635.5999999999999
aF1646.9000000000001
aF1626.9000000000001
aF1641.8
aa(lp433
g120
(S'\x07\xdc\x05\x07'
tRp434
aF1638.3
aF1642.0999999999999
aF1633.2
aF1636.3
aa(lp435
g120
(S'\x07\xdc\x05\x08'
tRp436
aF1638.1700000000001
aF1638.53
aF1595.1400000000001
aF1605.3199999999999
aa(lp437
g120
(S'\x07\xdc\x05\t'
tRp438
aF1604.9200000000001
aF1605.0799999999999
aF1579.98
aF1589.5799999999999
aa(lp439
g120
(S'\x07\xdc\x05\n'
tRp440
aF1589.8800000000001
aF1601.3499999999999
aF1585.47
aF1594.3800000000001
aa(lp441
g120
(S'\x07\xdc\x05\x0b'
tRp442
aF1593.9000000000001
aF1594.1099999999999
aF1573.47
aF1578.9300000000001
aa(lp443
g120
(S'\x07\xdc\x05\x0e'
tRp444
aF1581.24
aF1585.26
aF1555.8099999999999
aF1556.6700000000001
aa(lp445
g120
(S'\x07\xdc\x05\x0f'
tRp446
aF1558.8199999999999
aF1563.3599999999999
aF1541.1700000000001
aF1544.03
aa(lp447
g120
(S'\x07\xdc\x05\x10'
tRp448
aF1544.71
aF1551.3900000000001
aF1526.6300000000001
aF1539.0899999999999
aa(lp449
g120
(S'\x07\xdc\x05\x11'
tRp450
aF1540.0999999999999
aF1579.3800000000001
aF1540.0899999999999
aF1574.1900000000001
aa(lp451
g120
(S'\x07\xdc\x05\x12'
tRp452
aF1573.8
aF1597.02
aF1567.5899999999999
aF1592.4400000000001
aasg173
g120
(S'\x07\xb3\x01\x01'
tRp453
sg175
S''
sg176
S'XAUUSD'
p454
sg178
g346
sg180
(lp455
sg182
S'resource'
p456
sg184
g120
(S'\x07\xb3\x01\x01'
tRp457
sbag112
(g113
g114
NtRp458
(dp459
g117
(lp460
sg119
g297
sg122
(lp461
sg124
S''
sg125
(lp462
sg127
g120
(S'\x07\xb3\x01\x01'
tRp463
sg129
(lp464
(lp465
g120
(S'\x07\xdc\x04\x14'
tRp466
aF103.03
aF104.67
aF102.86
aF104.08
aa(lp467
g120
(S'\x07\xdc\x04\x17'
tRp468
aF103.8
aF103.91
aF101.84
aF103.08
aa(lp469
g120
(S'\x07\xdc\x04\x18'
tRp470
aF103.06
aF104.09
aF102.8
aF103.8
aa(lp471
g120
(S'\x07\xdc\x04\x19'
tRp472
aF103.77
aF104.55
aF103.11
aF103.95999999999999
aa(lp473
g120
(S'\x07\xdc\x04\x1a'
tRp474
aF103.97
aF104.91
aF103.86
aF104.16
aa(lp475
g120
(S'\x07\xdc\x04\x1b'
tRp476
aF104.05
aF104.98
aF103.75
aF104.78
aa(lp477
g120
(S'\x07\xdc\x04\x1e'
tRp478
aF104.89
aF105.11
aF103.89
aF104.89
aa(lp479
g120
(S'\x07\xdc\x05\x01'
tRp480
aF104.92
aF106.42
aF104.41
aF105.98999999999999
aa(lp481
g120
(S'\x07\xdc\x05\x02'
tRp482
aF106.01000000000001
aF106.05
aF104.97
aF105.39
aa(lp483
g120
(S'\x07\xdc\x05\x03'
tRp484
aF105.37
aF105.42
aF102.39
aF102.45
aa(lp485
g120
(S'\x07\xdc\x05\x04'
tRp486
aF102.65000000000001
aF102.72
aF97.530000000000001
aF98.549999999999997
aa(lp487
g120
(S'\x07\xdc\x05\x07'
tRp488
aF98.239999999999995
aF98.239999999999995
aF95.420000000000002
aF97.989999999999995
aa(lp489
g120
(S'\x07\xdc\x05\x08'
tRp490
aF97.959999999999994
aF98.120000000000005
aF95.549999999999997
aF97.390000000000001
aa(lp491
g120
(S'\x07\xdc\x05\t'
tRp492
aF97.359999999999999
aF97.359999999999999
aF95.269999999999996
aF96.379999999999995
aa(lp493
g120
(S'\x07\xdc\x05\n'
tRp494
aF96.439999999999998
aF97.680000000000007
aF96.090000000000003
aF96.560000000000002
aa(lp495
g120
(S'\x07\xdc\x05\x0b'
tRp496
aF96.530000000000001
aF97.140000000000001
aF95.599999999999994
aF95.650000000000006
aa(lp497
g120
(S'\x07\xdc\x05\x0e'
tRp498
aF95.689999999999998
aF95.790000000000006
aF93.659999999999997
aF94.090000000000003
aa(lp499
g120
(S'\x07\xdc\x05\x0f'
tRp500
aF93.969999999999999
aF95.480000000000004
aF93.049999999999997
aF93.090000000000003
aa(lp501
g120
(S'\x07\xdc\x05\x10'
tRp502
aF93.260000000000005
aF94.140000000000001
aF91.819999999999993
aF92.810000000000002
aa(lp503
g120
(S'\x07\xdc\x05\x11'
tRp504
aF92.730000000000004
aF93.870000000000005
aF92.129999999999995
aF92.920000000000002
aa(lp505
g120
(S'\x07\xdc\x05\x12'
tRp506
aF92.769999999999996
aF92.859999999999999
aF90.959999999999994
aF91.319999999999993
aasg173
g120
(S'\x07\xb3\x01\x01'
tRp507
sg175
S''
sg176
S'CL.F'
p508
sg178
g346
sg180
(lp509
sg182
g456
sg184
g120
(S'\x07\xb3\x01\x01'
tRp510
sbaa.