(lp1
(lp2
(lp3
S'Dow'
p4
aS'12,369.38'
p5
aS'-73.11'
p6
aS'-0.59%'
p7
aa(lp8
S'Nasdaq'
p9
aS'2,778.79'
p10
aS'-34.90'
p11
aS'-1.24%'
p12
aa(lp13
S'S&P 500'
p14
aS'1,295.22'
p15
aS'-9.64'
p16
aS'-0.74%'
p17
aa(lp18
S'EUR/USD'
p19
aS'1.2761'
p20
aS'0.01'
p21
aS'+0.58%'
p22
aa(lp23
S'10-Year'
p24
aS'1.70'
p25
aS'0.00'
p26
aS'+1.15%'
p27
aa(lp28
S'Gold'
p29
aS'1,591.80'
p30
aS'16.90'
p31
aS'+1.07%'
p32
aa(lp33
S'Oil'
p34
aS'91.330002'
p35
aS'-1.23'
p36
aS'-1.33%'
p37
aaa(lp38
(lp39
S'FB'
p40
aS'38.23'
p41
aS'0.23'
p42
aS'0.61%'
p43
aa(lp44
S'BAC'
p45
aS'7.02'
p46
aS'0.04'
p47
aS'0.57%'
p48
aa(lp49
S'SIRI'
p50
aS'1.89'
p51
aS'0.06'
p52
aS'3.01%'
p53
aa(lp54
S'VXX'
p55
aS'22.36'
p56
aS'1.36'
p57
aS'6.48%'
p58
aa(lp59
S'JPM'
p60
aS'33.49'
p61
aS'-0.44'
p62
aS'-1.30%'
p63
aaa(lp64
(lp65
S'SVVC'
p66
aS'19.27'
p67
aS'-7.53'
p68
aS'-28.10%'
p69
aa(lp70
S'SMT'
p71
aS'1.45'
p72
aS'-0.50'
p73
aS'-25.64%'
p74
aa(lp75
S'QPSA'
p76
aS'3.06'
p77
aS'-0.85'
p78
aS'-21.74%'
p79
aa(lp80
S'GU'
p81
aS'0.84'
p82
aS'-0.23'
p83
aS'-21.50%'
p84
aa(lp85
S'RENN'
p86
aS'4.93'
p87
aS'-1.31'
p88
aS'-20.99%'
p89
aaa(lp90
(lp91
S'ROSG'
p92
aS'5.50'
p93
aS'1.55'
p94
aS'39.24%'
p95
aa(lp96
S'BWS'
p97
aS'10.99'
p98
aS'2.23'
p99
aS'25.46%'
p100
aa(lp101
S'NEWL'
p102
aS'1.75'
p103
aS'0.25'
p104
aS'16.67%'
p105
aa(lp106
S'HMNY'
p107
aS'2.65'
p108
aS'0.35'
p109
aS'15.22%'
p110
aa(lp111
S'VELT'
p112
aS'6.76'
p113
aS'0.85'
p114
aS'14.38%'
p115
aaa(lp116
ccopy_reg
_reconstructor
p117
(cDataParserModule.dataParser
FinancialObject
p118
c__builtin__
object
p119
NtRp120
(dp121
S'valuesMonthly'
p122
(lp123
sS'lastUpdate'
p124
cdatetime
date
p125
(S'\x07\xdc\x05\x13'
tRp126
sS'currentValue'
p127
(lp128
sS'name'
p129
S''
sS'valuesWeekly'
p130
(lp131
sS'weeklyUpdate'
p132
g125
(S'\x07\xb3\x01\x01'
tRp133
sS'valuesDaily'
p134
(lp135
(lp136
g125
(S'\x07\xdc\x04\x13'
tRp137
aF13028.73
aF13115.049999999999
aF12874.299999999999
aF12964.1
aI4180020000
aa(lp138
g125
(S'\x07\xdc\x04\x14'
tRp139
aF12964.48
aF13127.99
aF12961
aF13029.26
aI3833320000
aa(lp140
g125
(S'\x07\xdc\x04\x17'
tRp141
aF13028.049999999999
aF13028.049999999999
aF12810.24
aF12927.17
aI3654860000
aa(lp142
g125
(S'\x07\xdc\x04\x18'
tRp143
aF12927.77
aF13088.75
aF12902.34
aF13001.559999999999
aI3617100000
aa(lp144
g125
(S'\x07\xdc\x04\x19'
tRp145
aF12997.540000000001
aF13169.92
aF12972.65
aF13090.719999999999
aI3998430000
aa(lp146
g125
(S'\x07\xdc\x04\x1a'
tRp147
aF13090.040000000001
aF13243.83
aF13044.700000000001
aF13204.620000000001
aI4034700000
aa(lp148
g125
(S'\x07\xdc\x04\x1b'
tRp149
aF13204.700000000001
aF13311.870000000001
aF13152.82
aF13228.309999999999
aI3645830000
aa(lp150
g125
(S'\x07\xdc\x04\x1e'
tRp151
aF13228.389999999999
aF13271.9
aF13132.799999999999
aF13213.629999999999
aI3574010000
aa(lp152
g125
(S'\x07\xdc\x05\x01'
tRp153
aF13214.16
aF13359.620000000001
aF13152.17
aF13279.32
aI3807950000
aa(lp154
g125
(S'\x07\xdc\x05\x02'
tRp155
aF13277.959999999999
aF13305.959999999999
aF13164.059999999999
aF13268.57
aI3803860000
aa(lp156
g125
(S'\x07\xdc\x05\x03'
tRp157
aF13267.360000000001
aF13314.59
aF13155.58
aF13206.59
aI4004910000
aa(lp158
g125
(S'\x07\xdc\x05\x04'
tRp159
aF13204.620000000001
aF13204.620000000001
aF13005.200000000001
aF13038.27
aI3975140000
aa(lp160
g125
(S'\x07\xdc\x05\x07'
tRp161
aF13036
aF13080.690000000001
aF12931.629999999999
aF13008.530000000001
aI3559390000
aa(lp162
g125
(S'\x07\xdc\x05\x08'
tRp163
aF13000.73
aF13001.190000000001
aF12789.35
aF12932.09
aI4261670000
aa(lp164
g125
(S'\x07\xdc\x05\t'
tRp165
aF12921.66
aF12947.49
aF12728.690000000001
aF12835.059999999999
aI4288540000
aa(lp166
g125
(S'\x07\xdc\x05\n'
tRp167
aF12831.58
aF12972.92
aF12804.75
aF12855.040000000001
aI3727990000
aa(lp168
g125
(S'\x07\xdc\x05\x0b'
tRp169
aF12851.790000000001
aF12933.07
aF12740.99
aF12820.6
aI3869070000
aa(lp170
g125
(S'\x07\xdc\x05\x0e'
tRp171
aF12818.860000000001
aF12818.860000000001
aF12634.01
aF12695.35
aI3688120000
aa(lp172
g125
(S'\x07\xdc\x05\x0f'
tRp173
aF12694.82
aF12795.74
aF12583.68
aF12632
aI4114040000
aa(lp174
g125
(S'\x07\xdc\x05\x10'
tRp175
aF12617.389999999999
aF12764.709999999999
aF12559.57
aF12598.549999999999
aI4280420000
aa(lp176
g125
(S'\x07\xdc\x05\x11'
tRp177
aF12598.469999999999
aF12670.219999999999
aF12415.85
aF12442.49
aI4664280000
aa(lp178
g125
(S'\x07\xdc\x05\x12'
tRp179
aF12442.940000000001
aF12539.52
aF12309.629999999999
aF12369.379999999999
aI4512470000
aasS'dailyUpdate'
p180
g125
(S'\x07\xdc\x05\x13'
tRp181
sS'detail'
p182
S''
sS'abbreviation'
p183
S'^DJI'
p184
sS'dataSource'
p185
S'Yahoo'
p186
sS'previousValues'
p187
(lp188
sS'financialType'
p189
S'index'
p190
sS'monthlyUpdate'
p191
g125
(S'\x07\xb3\x01\x01'
tRp192
sbag117
(g118
g119
NtRp193
(dp194
g122
(lp195
sg124
g125
(S'\x07\xdc\x05\x13'
tRp196
sg127
(lp197
sg129
S''
sg130
(lp198
sg132
g125
(S'\x07\xb3\x01\x01'
tRp199
sg134
(lp200
(lp201
g125
(S'\x07\xdc\x04\x13'
tRp202
aF3028.1999999999998
aF3058.7199999999998
aF2994.9400000000001
aF3007.5599999999999
aI1991120000
aa(lp203
g125
(S'\x07\xdc\x04\x14'
tRp204
aF3023.73
aF3034.6900000000001
aF2999.0100000000002
aF3000.4499999999998
aI1935880000
aa(lp205
g125
(S'\x07\xdc\x04\x17'
tRp206
aF2969
aF2973.3800000000001
aF2946.04
aF2970.4499999999998
aI1767360000
aa(lp207
g125
(S'\x07\xdc\x04\x18'
tRp208
aF2967.3699999999999
aF2979.0799999999999
aF2950.3800000000001
aF2961.5999999999999
aI1690840000
aa(lp209
g125
(S'\x07\xdc\x04\x19'
tRp210
aF3013.6500000000001
aF3031.4099999999999
aF3010.5700000000002
aF3029.6300000000001
aI1721330000
aa(lp211
g125
(S'\x07\xdc\x04\x1a'
tRp212
aF3029.6199999999999
aF3056.77
aF3027.79
aF3050.6100000000001
aI1763510000
aa(lp213
g125
(S'\x07\xdc\x04\x1b'
tRp214
aF3060.3400000000001
aF3076.4400000000001
aF3043.3000000000002
aF3069.1999999999998
aI1777750000
aa(lp215
g125
(S'\x07\xdc\x04\x1e'
tRp216
aF3060.0599999999999
aF3063.6599999999999
aF3043.25
aF3046.3600000000001
aI1633170000
aa(lp217
g125
(S'\x07\xdc\x05\x01'
tRp218
aF3044.79
aF3085.4000000000001
aF3041.6199999999999
aF3050.4400000000001
aI1854230000
aa(lp219
g125
(S'\x07\xdc\x05\x02'
tRp220
aF3035.0700000000002
aF3061.4699999999998
aF3028.9400000000001
aF3059.8499999999999
aI1825190000
aa(lp221
g125
(S'\x07\xdc\x05\x03'
tRp222
aF3061.1300000000001
aF3061.3800000000001
aF3016.1999999999998
aF3024.3000000000002
aI1869130000
aa(lp223
g125
(S'\x07\xdc\x05\x04'
tRp224
aF3001.1500000000001
aF3001.48
aF2956.3400000000001
aF2956.3400000000001
aI1944010000
aa(lp225
g125
(S'\x07\xdc\x05\x07'
tRp226
aF2940.4099999999999
aF2970.1999999999998
aF2939.21
aF2957.7600000000002
aI1740430000
aa(lp227
g125
(S'\x07\xdc\x05\x08'
tRp228
aF2939.3600000000001
aF2952.6500000000001
aF2900.0599999999999
aF2946.27
aI2175840000
aa(lp229
g125
(S'\x07\xdc\x05\t'
tRp230
aF2912.4099999999999
aF2948.77
aF2900.1799999999998
aF2934.71
aI2047090000
aa(lp231
g125
(S'\x07\xdc\x05\n'
tRp232
aF2950.21
aF2950.21
aF2923.1399999999999
aF2933.6399999999999
aI2004150000
aa(lp233
g125
(S'\x07\xdc\x05\x0b'
tRp234
aF2919.3499999999999
aF2960.3800000000001
aF2918.7399999999998
aF2933.8200000000002
aI1735380000
aa(lp235
g125
(S'\x07\xdc\x05\x0e'
tRp236
aF2907.7800000000002
aF2924.8899999999999
aF2898.9000000000001
aF2902.5799999999999
aI1683460000
aa(lp237
g125
(S'\x07\xdc\x05\x0f'
tRp238
aF2902.3000000000002
aF2930.6799999999998
aF2889.3899999999999
aF2893.7600000000002
aI1826210000
aa(lp239
g125
(S'\x07\xdc\x05\x10'
tRp240
aF2904.6700000000001
aF2913.9000000000001
aF2872.25
aF2874.04
aI1933900000
aa(lp241
g125
(S'\x07\xdc\x05\x11'
tRp242
aF2874.71
aF2879.2199999999998
aF2813.6900000000001
aF2813.6900000000001
aI2016980000
aa(lp243
g125
(S'\x07\xdc\x05\x12'
tRp244
aF2814.4299999999998
aF2827.2800000000002
aF2774.4499999999998
aF2778.79
aI2692450000
aasg180
g125
(S'\x07\xdc\x05\x13'
tRp245
sg182
S''
sg183
S'^IXIC'
p246
sg185
g186
sg187
(lp247
sg189
g190
sg191
g125
(S'\x07\xb3\x01\x01'
tRp248
sbag117
(g118
g119
NtRp249
(dp250
g122
(lp251
sg124
g125
(S'\x07\xdc\x05\x13'
tRp252
sg127
(lp253
sg129
S''
sg130
(lp254
sg132
g125
(S'\x07\xb3\x01\x01'
tRp255
sg134
(lp256
(lp257
g125
(S'\x07\xdc\x04\x13'
tRp258
aF1385.0799999999999
aF1390.46
aF1370.3
aF1376.9200000000001
aI4180020000
aa(lp259
g125
(S'\x07\xdc\x04\x14'
tRp260
aF1376.96
aF1387.4000000000001
aF1376.96
aF1378.53
aI3833320000
aa(lp261
g125
(S'\x07\xdc\x04\x17'
tRp262
aF1378.53
aF1378.53
aF1358.79
aF1366.9400000000001
aI3654860000
aa(lp263
g125
(S'\x07\xdc\x04\x18'
tRp264
aF1366.97
aF1375.5699999999999
aF1366.8199999999999
aF1371.97
aI3617100000
aa(lp265
g125
(S'\x07\xdc\x04\x19'
tRp266
aF1372.1099999999999
aF1391.3699999999999
aF1372.1099999999999
aF1390.6900000000001
aI3998430000
aa(lp267
g125
(S'\x07\xdc\x04\x1a'
tRp268
aF1390.6400000000001
aF1402.0899999999999
aF1387.28
aF1399.98
aI4034700000
aa(lp269
g125
(S'\x07\xdc\x04\x1b'
tRp270
aF1400.1900000000001
aF1406.6400000000001
aF1397.3099999999999
aF1403.3599999999999
aI3645830000
aa(lp271
g125
(S'\x07\xdc\x04\x1e'
tRp272
aF1403.26
aF1403.26
aF1394
aF1397.9100000000001
aI3574010000
aa(lp273
g125
(S'\x07\xdc\x05\x01'
tRp274
aF1397.8599999999999
aF1415.3199999999999
aF1395.73
aF1405.8199999999999
aI3807950000
aa(lp275
g125
(S'\x07\xdc\x05\x02'
tRp276
aF1405.5
aF1405.5
aF1393.9200000000001
aF1402.3099999999999
aI3803860000
aa(lp277
g125
(S'\x07\xdc\x05\x03'
tRp278
aF1402.3199999999999
aF1403.0699999999999
aF1388.71
aF1391.5699999999999
aI4004910000
aa(lp279
g125
(S'\x07\xdc\x05\x04'
tRp280
aF1391.51
aF1391.51
aF1367.96
aF1369.0999999999999
aI3975140000
aa(lp281
g125
(S'\x07\xdc\x05\x07'
tRp282
aF1368.79
aF1373.9100000000001
aF1363.9400000000001
aF1369.5799999999999
aI3559390000
aa(lp283
g125
(S'\x07\xdc\x05\x08'
tRp284
aF1369.1600000000001
aF1369.1600000000001
aF1347.75
aF1363.72
aI4261670000
aa(lp285
g125
(S'\x07\xdc\x05\t'
tRp286
aF1363.2
aF1363.73
aF1343.1300000000001
aF1354.5799999999999
aI4288540000
aa(lp287
g125
(S'\x07\xdc\x05\n'
tRp288
aF1354.5799999999999
aF1365.8800000000001
aF1354.5799999999999
aF1357.99
aI3727990000
aa(lp289
g125
(S'\x07\xdc\x05\x0b'
tRp290
aF1358.1099999999999
aF1365.6600000000001
aF1348.8900000000001
aF1353.3900000000001
aI3869070000
aa(lp291
g125
(S'\x07\xdc\x05\x0e'
tRp292
aF1351.9300000000001
aF1351.9300000000001
aF1336.6099999999999
aF1338.3499999999999
aI3688120000
aa(lp293
g125
(S'\x07\xdc\x05\x0f'
tRp294
aF1338.3599999999999
aF1344.9400000000001
aF1328.4100000000001
aF1330.6600000000001
aI4114040000
aa(lp295
g125
(S'\x07\xdc\x05\x10'
tRp296
aF1330.78
aF1341.78
aF1324.79
aF1324.8
aI4280420000
aa(lp297
g125
(S'\x07\xdc\x05\x11'
tRp298
aF1324.8199999999999
aF1326.3599999999999
aF1304.8599999999999
aF1304.8599999999999
aI4664280000
aa(lp299
g125
(S'\x07\xdc\x05\x12'
tRp300
aF1305.05
aF1312.24
aF1291.98
aF1295.22
aI4512470000
aasg180
g125
(S'\x07\xdc\x05\x13'
tRp301
sg182
S''
sg183
S'^GSPC'
p302
sg185
g186
sg187
(lp303
sg189
g190
sg191
g125
(S'\x07\xb3\x01\x01'
tRp304
sbag117
(g118
g119
NtRp305
(dp306
g122
(lp307
sg124
g125
(S'\x07\xb3\x01\x01'
tRp308
sg127
(lp309
sg129
S''
sg130
(lp310
sg132
g125
(S'\x07\xb3\x01\x01'
tRp311
sg134
(lp312
(lp313
g125
(S'\x07\xdc\x04\x13'
tRp314
aF1.3119000000000001
aF1.3165
aF1.3069999999999999
aF1.3134999999999999
aa(lp315
g125
(S'\x07\xdc\x04\x14'
tRp316
aF1.3134999999999999
aF1.3227
aF1.3129
aF1.3219000000000001
aa(lp317
g125
(S'\x07\xdc\x04\x17'
tRp318
aF1.3190999999999999
aF1.321
aF1.3105
aF1.3156000000000001
aa(lp319
g125
(S'\x07\xdc\x04\x18'
tRp320
aF1.3158000000000001
aF1.3217000000000001
aF1.3145
aF1.3194999999999999
aa(lp321
g125
(S'\x07\xdc\x04\x19'
tRp322
aF1.3194999999999999
aF1.3236000000000001
aF1.3173999999999999
aF1.3223
aa(lp323
g125
(S'\x07\xdc\x04\x1a'
tRp324
aF1.3222
aF1.3262
aF1.3181
aF1.3190999999999999
aa(lp325
g125
(S'\x07\xdc\x04\x1b'
tRp326
aF1.3188
aF1.3267
aF1.3159000000000001
aF1.3255999999999999
aa(lp327
g125
(S'\x07\xdc\x04\x1e'
tRp328
aF1.3240000000000001
aF1.3264
aF1.321
aF1.3242
aa(lp329
g125
(S'\x07\xdc\x05\x01'
tRp330
aF1.3241000000000001
aF1.3279000000000001
aF1.3205
aF1.3238000000000001
aa(lp331
g125
(S'\x07\xdc\x05\x02'
tRp332
aF1.3240000000000001
aF1.3241000000000001
aF1.3125
aF1.3153999999999999
aa(lp333
g125
(S'\x07\xdc\x05\x03'
tRp334
aF1.3154999999999999
aF1.3179000000000001
aF1.3095000000000001
aF1.3151999999999999
aa(lp335
g125
(S'\x07\xdc\x05\x04'
tRp336
aF1.3151999999999999
aF1.3178000000000001
aF1.3080000000000001
aF1.3084
aa(lp337
g125
(S'\x07\xdc\x05\x07'
tRp338
aF1.3022
aF1.3064
aF1.2955000000000001
aF1.3056000000000001
aa(lp339
g125
(S'\x07\xdc\x05\x08'
tRp340
aF1.3056000000000001
aF1.3064
aF1.2982
aF1.2999000000000001
aa(lp341
g125
(S'\x07\xdc\x05\t'
tRp342
aF1.2999000000000001
aF1.3005
aF1.2909999999999999
aF1.2934000000000001
aa(lp343
g125
(S'\x07\xdc\x05\n'
tRp344
aF1.2934000000000001
aF1.2977000000000001
aF1.2924
aF1.2930999999999999
aa(lp345
g125
(S'\x07\xdc\x05\x0b'
tRp346
aF1.2930999999999999
aF1.2955000000000001
aF1.2904
aF1.2916000000000001
aa(lp347
g125
(S'\x07\xdc\x05\x0e'
tRp348
aF1.2886
aF1.2903
aF1.2821
aF1.2825
aa(lp349
g125
(S'\x07\xdc\x05\x0f'
tRp350
aF1.2825
aF1.2867999999999999
aF1.2722
aF1.2733000000000001
aa(lp351
g125
(S'\x07\xdc\x05\x10'
tRp352
aF1.2733000000000001
aF1.2757000000000001
aF1.2681
aF1.2716000000000001
aa(lp353
g125
(S'\x07\xdc\x05\x11'
tRp354
aF1.2716000000000001
aF1.2747999999999999
aF1.2665999999999999
aF1.2681
aa(lp355
g125
(S'\x07\xdc\x05\x12'
tRp356
aF1.2683
aF1.2793000000000001
aF1.2642
aF1.2775000000000001
aasg180
g125
(S'\x07\xb3\x01\x01'
tRp357
sg182
S''
sg183
S'EURUSD'
p358
sg185
S'Stooq'
p359
sg187
(lp360
sg189
S'forex'
p361
sg191
g125
(S'\x07\xb3\x01\x01'
tRp362
sbag117
(g118
g119
NtRp363
(dp364
g122
(lp365
sg124
g308
sg127
(lp366
sg129
S''
sg130
(lp367
sg132
g125
(S'\x07\xb3\x01\x01'
tRp368
sg134
(lp369
(lp370
g125
(S'\x07\xdc\x04\x13'
tRp371
aF1.9770000000000001
aF1.9790000000000001
aF1.9490000000000001
aF1.952
aa(lp372
g125
(S'\x07\xdc\x04\x14'
tRp373
aF1.9950000000000001
aF1.9950000000000001
aF1.9630000000000001
aF1.97
aa(lp374
g125
(S'\x07\xdc\x04\x17'
tRp375
aF1.9199999999999999
aF1.9399999999999999
aF1.9099999999999999
aF1.9299999999999999
aa(lp376
g125
(S'\x07\xdc\x04\x18'
tRp377
aF1.954
aF1.958
aF1.9370000000000001
aF1.952
aa(lp378
g125
(S'\x07\xdc\x04\x19'
tRp379
aF1.988
aF2.0350000000000001
aF1.97
aF1.984
aa(lp380
g125
(S'\x07\xdc\x04\x1a'
tRp381
aF1.954
aF1.968
aF1.9299999999999999
aF1.9590000000000001
aa(lp382
g125
(S'\x07\xdc\x04\x1b'
tRp383
aF1.9510000000000001
aF1.958
aF1.9259999999999999
aF1.9330000000000001
aa(lp384
g125
(S'\x07\xdc\x04\x1e'
tRp385
aF1.919
aF1.9239999999999999
aF1.907
aF1.915
aa(lp386
g125
(S'\x07\xdc\x05\x01'
tRp387
aF1.919
aF1.9610000000000001
aF1.8999999999999999
aF1.956
aa(lp388
g125
(S'\x07\xdc\x05\x02'
tRp389
aF1.9099999999999999
aF1.9379999999999999
aF1.8999999999999999
aF1.9219999999999999
aa(lp390
g125
(S'\x07\xdc\x05\x03'
tRp391
aF1.9239999999999999
aF1.956
aF1.915
aF1.9239999999999999
aa(lp392
g125
(S'\x07\xdc\x05\x04'
tRp393
aF1.9359999999999999
aF1.954
aF1.873
aF1.8799999999999999
aa(lp394
g125
(S'\x07\xdc\x05\x07'
tRp395
aF1.873
aF1.8819999999999999
aF1.8600000000000001
aF1.877
aa(lp396
g125
(S'\x07\xdc\x05\x08'
tRp397
aF1.8540000000000001
aF1.861
aF1.8160000000000001
aF1.837
aa(lp398
g125
(S'\x07\xdc\x05\t'
tRp399
aF1.8
aF1.845
aF1.7929999999999999
aF1.835
aa(lp400
g125
(S'\x07\xdc\x05\n'
tRp401
aF1.895
aF1.921
aF1.883
aF1.8839999999999999
aa(lp402
g125
(S'\x07\xdc\x05\x0b'
tRp403
aF1.851
aF1.8620000000000001
aF1.8380000000000001
aF1.841
aa(lp404
g125
(S'\x07\xdc\x05\x0e'
tRp405
aF1.7809999999999999
aF1.798
aF1.7669999999999999
aF1.788
aa(lp406
g125
(S'\x07\xdc\x05\x0f'
tRp407
aF1.7929999999999999
aF1.8100000000000001
aF1.7669999999999999
aF1.7769999999999999
aa(lp408
g125
(S'\x07\xdc\x05\x10'
tRp409
aF1.8100000000000001
aF1.819
aF1.752
aF1.7649999999999999
aa(lp410
g125
(S'\x07\xdc\x05\x11'
tRp411
aF1.7709999999999999
aF1.776
aF1.702
aF1.702
aa(lp412
g125
(S'\x07\xdc\x05\x12'
tRp413
aF1.718
aF1.7410000000000001
aF1.7
aF1.702
aasg180
g125
(S'\x07\xb3\x01\x01'
tRp414
sg182
S''
sg183
S'10USY.B'
p415
sg185
g359
sg187
(lp416
sg189
S'bond'
p417
sg191
g125
(S'\x07\xb3\x01\x01'
tRp418
sbag117
(g118
g119
NtRp419
(dp420
g122
(lp421
sg124
g308
sg127
(lp422
sg129
S''
sg130
(lp423
sg132
g125
(S'\x07\xb3\x01\x01'
tRp424
sg134
(lp425
(lp426
g125
(S'\x07\xdc\x04\x13'
tRp427
aF1642
aF1653.97
aF1631.48
aF1642.76
aa(lp428
g125
(S'\x07\xdc\x04\x14'
tRp429
aF1642.6800000000001
aF1647.27
aF1638.71
aF1642.97
aa(lp430
g125
(S'\x07\xdc\x04\x17'
tRp431
aF1642.1500000000001
aF1643.3900000000001
aF1623.5799999999999
aF1638.4300000000001
aa(lp432
g125
(S'\x07\xdc\x04\x18'
tRp433
aF1638.6700000000001
aF1649.21
aF1634.1500000000001
aF1641.5799999999999
aa(lp434
g125
(S'\x07\xdc\x04\x19'
tRp435
aF1640.9300000000001
aF1646.3900000000001
aF1625.1199999999999
aF1644.1300000000001
aa(lp436
g125
(S'\x07\xdc\x04\x1a'
tRp437
aF1644.3399999999999
aF1660.8900000000001
aF1641.7
aF1654.9000000000001
aa(lp438
g125
(S'\x07\xdc\x04\x1b'
tRp439
aF1655.5
aF1666.5999999999999
aF1650.5
aF1662.3
aa(lp440
g125
(S'\x07\xdc\x04\x1e'
tRp441
aF1663.7
aF1665.8
aF1647.5999999999999
aF1663.7
aa(lp442
g125
(S'\x07\xdc\x05\x01'
tRp443
aF1665.2
aF1670.8
aF1657.3
aF1660.4000000000001
aa(lp444
g125
(S'\x07\xdc\x05\x02'
tRp445
aF1662.2
aF1662.5999999999999
aF1646.9000000000001
aF1651.5999999999999
aa(lp446
g125
(S'\x07\xdc\x05\x03'
tRp447
aF1651.9000000000001
aF1652.9000000000001
aF1631.3
aF1635.5
aa(lp448
g125
(S'\x07\xdc\x05\x04'
tRp449
aF1635.5999999999999
aF1646.9000000000001
aF1626.9000000000001
aF1641.8
aa(lp450
g125
(S'\x07\xdc\x05\x07'
tRp451
aF1638.3
aF1642.0999999999999
aF1633.2
aF1636.3
aa(lp452
g125
(S'\x07\xdc\x05\x08'
tRp453
aF1638.1700000000001
aF1638.53
aF1595.1400000000001
aF1605.3199999999999
aa(lp454
g125
(S'\x07\xdc\x05\t'
tRp455
aF1604.9200000000001
aF1605.0799999999999
aF1579.98
aF1589.5799999999999
aa(lp456
g125
(S'\x07\xdc\x05\n'
tRp457
aF1589.8800000000001
aF1601.3499999999999
aF1585.47
aF1594.3800000000001
aa(lp458
g125
(S'\x07\xdc\x05\x0b'
tRp459
aF1593.9000000000001
aF1594.1099999999999
aF1573.47
aF1578.9300000000001
aa(lp460
g125
(S'\x07\xdc\x05\x0e'
tRp461
aF1581.24
aF1585.26
aF1555.8099999999999
aF1556.6700000000001
aa(lp462
g125
(S'\x07\xdc\x05\x0f'
tRp463
aF1558.8199999999999
aF1563.3599999999999
aF1541.1700000000001
aF1544.03
aa(lp464
g125
(S'\x07\xdc\x05\x10'
tRp465
aF1544.71
aF1551.3900000000001
aF1526.6300000000001
aF1539.0899999999999
aa(lp466
g125
(S'\x07\xdc\x05\x11'
tRp467
aF1540.0999999999999
aF1579.3800000000001
aF1540.0899999999999
aF1574.1900000000001
aa(lp468
g125
(S'\x07\xdc\x05\x12'
tRp469
aF1573.8
aF1597.02
aF1567.5899999999999
aF1592.4400000000001
aasg180
g125
(S'\x07\xb3\x01\x01'
tRp470
sg182
S''
sg183
S'XAUUSD'
p471
sg185
g359
sg187
(lp472
sg189
S'resource'
p473
sg191
g125
(S'\x07\xb3\x01\x01'
tRp474
sbag117
(g118
g119
NtRp475
(dp476
g122
(lp477
sg124
g308
sg127
(lp478
sg129
S''
sg130
(lp479
sg132
g125
(S'\x07\xb3\x01\x01'
tRp480
sg134
(lp481
(lp482
g125
(S'\x07\xdc\x04\x13'
tRp483
aF103.2
aF103.66
aF102.14
aF103.06999999999999
aa(lp484
g125
(S'\x07\xdc\x04\x14'
tRp485
aF103.03
aF104.67
aF102.86
aF104.08
aa(lp486
g125
(S'\x07\xdc\x04\x17'
tRp487
aF103.8
aF103.91
aF101.84
aF103.08
aa(lp488
g125
(S'\x07\xdc\x04\x18'
tRp489
aF103.06
aF104.09
aF102.8
aF103.8
aa(lp490
g125
(S'\x07\xdc\x04\x19'
tRp491
aF103.77
aF104.55
aF103.11
aF103.95999999999999
aa(lp492
g125
(S'\x07\xdc\x04\x1a'
tRp493
aF103.97
aF104.91
aF103.86
aF104.16
aa(lp494
g125
(S'\x07\xdc\x04\x1b'
tRp495
aF104.05
aF104.98
aF103.75
aF104.78
aa(lp496
g125
(S'\x07\xdc\x04\x1e'
tRp497
aF104.89
aF105.11
aF103.89
aF104.89
aa(lp498
g125
(S'\x07\xdc\x05\x01'
tRp499
aF104.92
aF106.42
aF104.41
aF105.98999999999999
aa(lp500
g125
(S'\x07\xdc\x05\x02'
tRp501
aF106.01000000000001
aF106.05
aF104.97
aF105.39
aa(lp502
g125
(S'\x07\xdc\x05\x03'
tRp503
aF105.37
aF105.42
aF102.39
aF102.45
aa(lp504
g125
(S'\x07\xdc\x05\x04'
tRp505
aF102.65000000000001
aF102.72
aF97.530000000000001
aF98.549999999999997
aa(lp506
g125
(S'\x07\xdc\x05\x07'
tRp507
aF98.239999999999995
aF98.239999999999995
aF95.420000000000002
aF97.989999999999995
aa(lp508
g125
(S'\x07\xdc\x05\x08'
tRp509
aF97.959999999999994
aF98.120000000000005
aF95.549999999999997
aF97.390000000000001
aa(lp510
g125
(S'\x07\xdc\x05\t'
tRp511
aF97.359999999999999
aF97.359999999999999
aF95.269999999999996
aF96.379999999999995
aa(lp512
g125
(S'\x07\xdc\x05\n'
tRp513
aF96.439999999999998
aF97.680000000000007
aF96.090000000000003
aF96.560000000000002
aa(lp514
g125
(S'\x07\xdc\x05\x0b'
tRp515
aF96.530000000000001
aF97.140000000000001
aF95.599999999999994
aF95.650000000000006
aa(lp516
g125
(S'\x07\xdc\x05\x0e'
tRp517
aF95.689999999999998
aF95.790000000000006
aF93.659999999999997
aF94.090000000000003
aa(lp518
g125
(S'\x07\xdc\x05\x0f'
tRp519
aF93.969999999999999
aF95.480000000000004
aF93.049999999999997
aF93.090000000000003
aa(lp520
g125
(S'\x07\xdc\x05\x10'
tRp521
aF93.260000000000005
aF94.140000000000001
aF91.819999999999993
aF92.810000000000002
aa(lp522
g125
(S'\x07\xdc\x05\x11'
tRp523
aF92.730000000000004
aF93.870000000000005
aF92.129999999999995
aF92.920000000000002
aa(lp524
g125
(S'\x07\xdc\x05\x12'
tRp525
aF92.769999999999996
aF92.859999999999999
aF90.959999999999994
aF91.319999999999993
aasg180
g125
(S'\x07\xb3\x01\x01'
tRp526
sg182
S''
sg183
S'CL.F'
p527
sg185
g359
sg187
(lp528
sg189
g473
sg191
g125
(S'\x07\xb3\x01\x01'
tRp529
sbaa.