(lp1
(lp2
(lp3
S'Dow'
p4
aS'13,228.31'
p5
aS'+23.69'
p6
aS'+0.18%'
p7
aa(lp8
S'Nasdaq'
p9
aS'3,069.20'
p10
aS'+18.59'
p11
aS'+0.61%'
p12
aa(lp13
S'S&P 500'
p14
aS'1,403.36'
p15
aS'+3.38'
p16
aS'+0.24%'
p17
aa(lp18
S'EUR/USD'
p19
aS'1.3251'
p20
aS'0.01'
p21
aS'+0.45%'
p22
aa(lp23
S'10-Year'
p24
aS'1.93'
p25
aS'-0.03'
p26
aS'-0.36%'
p27
aa(lp28
S'Gold'
p29
aS'1,662.60'
p30
aS'2.10'
p31
aS'+0.13%'
p32
aa(lp33
S'Oil'
p34
aS'104.809998'
p35
aS'0.26'
p36
aS'+0.25%'
p37
aaa(lp38
(lp39
S'BAC'
p40
aS'7.74'
p41
aS'-0.26'
p42
aS'-3.25%'
p43
aa(lp44
S'QQQ'
p45
aS'64.70'
p46
aS'-1.65'
p47
aS'-2.49%'
p48
aa(lp49
S'SIRI'
p50
aS'2.16'
p51
aS'-0.05'
p52
aS'-2.26%'
p53
aa(lp54
S'MSFT'
p55
aS'30.98'
p56
aS'-0.78'
p57
aS'-2.46%'
p58
aa(lp59
S'F'
aS'10.67'
p60
aS'-0.25'
p61
aS'-2.29%'
p62
aaa(lp63
(lp64
S'BODY'
p65
aS'14.88'
p66
aS'-14.04'
p67
aS'-48.55%'
p68
aa(lp69
S'CFBK'
p70
aS'2.00'
p71
aS'-1.19'
p72
aS'-37.21%'
p73
aa(lp74
S'APSA'
p75
aS'10.42'
p76
aS'-5.00'
p77
aS'-32.42%'
p78
aa(lp79
S'INVN'
p80
aS'12.91'
p81
aS'-3.84'
p82
aS'-22.93%'
p83
aa(lp84
S'BEBE'
p85
aS'6.27'
p86
aS'-1.77'
p87
aS'-22.01%'
p88
aaa(lp89
(lp90
S'CRFN'
p91
aS'6.25'
p92
aS'1.51'
p93
aS'31.86%'
p94
aa(lp95
S'ROSA'
p96
aS'20.67'
p97
aS'4.45'
p98
aS'27.44%'
p99
aa(lp100
S'CLIR'
p101
aS'7.44'
p102
aS'1.44'
p103
aS'24.00%'
p104
aa(lp105
S'FACE'
p106
aS'3.79'
p107
aS'0.69'
p108
aS'22.26%'
p109
aa(lp110
S'DGI'
p111
aS'16.44'
p112
aS'2.92'
p113
aS'21.60%'
p114
aaa(lp115
ccopy_reg
_reconstructor
p116
(cDataParserModule.dataParser
FinancialObject
p117
c__builtin__
object
p118
NtRp119
(dp120
S'valuesMonthly'
p121
(lp122
sS'lastUpdate'
p123
cdatetime
date
p124
(S'\x07\xdc\x05\x07'
tRp125
sS'currentValue'
p126
(lp127
sS'name'
p128
S''
sS'valuesWeekly'
p129
(lp130
sS'weeklyUpdate'
p131
g124
(S'\x07\xb3\x01\x01'
tRp132
sS'valuesDaily'
p133
(lp134
(lp135
g124
(S'\x07\xdc\x04\t'
tRp136
aF13057.57
aF13057.57
aF12860.110000000001
aF12929.59
aL3468980000L
aa(lp137
g124
(S'\x07\xdc\x04\n'
tRp138
aF12929.59
aF12951.459999999999
aF12689.1
aF12715.93
aL4631730000L
aa(lp139
g124
(S'\x07\xdc\x04\x0b'
tRp140
aF12716.92
aF12890.91
aF12716.92
aF12805.389999999999
aL3743040000L
aa(lp141
g124
(S'\x07\xdc\x04\x0c'
tRp142
aF12806.450000000001
aF13018.82
aF12784.92
aF12986.58
aL3618280000L
aa(lp143
g124
(S'\x07\xdc\x04\r'
tRp144
aF12986.200000000001
aF12992.629999999999
aF12826.049999999999
aF12849.59
aL3631160000L
aa(lp145
g124
(S'\x07\xdc\x04\x10'
tRp146
aF12850.879999999999
aF13032.59
aF12840.51
aF12921.41
aL3574780000L
aa(lp147
g124
(S'\x07\xdc\x04\x11'
tRp148
aF12921.870000000001
aF13168.33
aF12921.870000000001
aF13115.540000000001
aL3456200000L
aa(lp149
g124
(S'\x07\xdc\x04\x12'
tRp150
aF13114.559999999999
aF13131.700000000001
aF12977.16
aF13032.75
aL3463140000L
aa(lp151
g124
(S'\x07\xdc\x04\x13'
tRp152
aF13028.73
aF13115.049999999999
aF12874.299999999999
aF12964.1
aL4180020000L
aa(lp153
g124
(S'\x07\xdc\x04\x14'
tRp154
aF12964.48
aF13127.99
aF12961
aF13029.26
aL3833320000L
aa(lp155
g124
(S'\x07\xdc\x04\x17'
tRp156
aF13028.049999999999
aF13028.049999999999
aF12810.24
aF12927.17
aL3654860000L
aa(lp157
g124
(S'\x07\xdc\x04\x18'
tRp158
aF12927.77
aF13088.75
aF12902.34
aF13001.559999999999
aL3617100000L
aa(lp159
g124
(S'\x07\xdc\x04\x19'
tRp160
aF12997.540000000001
aF13169.92
aF12972.65
aF13090.719999999999
aL3998430000L
aa(lp161
g124
(S'\x07\xdc\x04\x1a'
tRp162
aF13090.040000000001
aF13243.83
aF13044.700000000001
aF13204.620000000001
aL4034700000L
aa(lp163
g124
(S'\x07\xdc\x04\x1b'
tRp164
aF13204.700000000001
aF13311.870000000001
aF13152.82
aF13228.309999999999
aL3645830000L
aa(lp165
g124
(S'\x07\xdc\x04\x1e'
tRp166
aF13228.389999999999
aF13271.9
aF13132.799999999999
aF13213.629999999999
aL3574010000L
aa(lp167
g124
(S'\x07\xdc\x05\x01'
tRp168
aF13214.16
aF13359.620000000001
aF13152.17
aF13279.32
aL3807950000L
aa(lp169
g124
(S'\x07\xdc\x05\x02'
tRp170
aF13277.959999999999
aF13305.959999999999
aF13164.059999999999
aF13268.57
aL3803860000L
aa(lp171
g124
(S'\x07\xdc\x05\x03'
tRp172
aF13267.360000000001
aF13314.59
aF13155.58
aF13206.59
aL4004910000L
aa(lp173
g124
(S'\x07\xdc\x05\x04'
tRp174
aF13204.620000000001
aF13204.620000000001
aF13005.200000000001
aF13038.27
aL3975140000L
aasS'dailyUpdate'
p175
g124
(S'\x07\xdc\x05\x07'
tRp176
sS'detail'
p177
S''
sS'abbreviation'
p178
S'^DJI'
p179
sS'dataSource'
p180
S'Yahoo'
p181
sS'previousValues'
p182
(lp183
sS'financialType'
p184
S'index'
p185
sS'monthlyUpdate'
p186
g124
(S'\x07\xb3\x01\x01'
tRp187
sbag116
(g117
g118
NtRp188
(dp189
g121
(lp190
sg123
g124
(S'\x07\xdc\x05\x07'
tRp191
sg126
(lp192
sg128
S''
sg129
(lp193
sg131
g124
(S'\x07\xb3\x01\x01'
tRp194
sg133
(lp195
(lp196
g124
(S'\x07\xdc\x04\t'
tRp197
aF3037.2800000000002
aF3058.7600000000002
aF3032.2199999999998
aF3047.0799999999999
aI1371140000
aa(lp198
g124
(S'\x07\xdc\x04\n'
tRp199
aF3044.6700000000001
aF3055.1999999999998
aF2987
aF2991.2199999999998
aI1953600000
aa(lp200
g124
(S'\x07\xdc\x04\x0b'
tRp201
aF3020.1500000000001
aF3030.5100000000002
aF3008.75
aF3016.46
aI1540890000
aa(lp202
g124
(S'\x07\xdc\x04\x0c'
tRp203
aF3023.1100000000001
aF3059.2600000000002
aF3020.4400000000001
aF3055.5500000000002
aI1480340000
aa(lp204
g124
(S'\x07\xdc\x04\r'
tRp205
aF3045.0799999999999
aF3045.4200000000001
aF3010.77
aF3011.3299999999999
aI1483850000
aa(lp206
g124
(S'\x07\xdc\x04\x10'
tRp207
aF3027.5700000000002
aF3027.5700000000002
aF2975.8699999999999
aF2988.4000000000001
aI1594320000
aa(lp208
g124
(S'\x07\xdc\x04\x11'
tRp209
aF3002.02
aF3052.7600000000002
aF2999.4899999999998
aF3042.8200000000002
aI1555070000
aa(lp210
g124
(S'\x07\xdc\x04\x12'
tRp211
aF3031.8200000000002
aF3045.04
aF3023.9099999999999
aF3031.4499999999998
aI1599470000
aa(lp212
g124
(S'\x07\xdc\x04\x13'
tRp213
aF3028.1999999999998
aF3058.7199999999998
aF2994.9400000000001
aF3007.5599999999999
aI1991120000
aa(lp214
g124
(S'\x07\xdc\x04\x14'
tRp215
aF3023.73
aF3034.6900000000001
aF2999.0100000000002
aF3000.4499999999998
aI1935880000
aa(lp216
g124
(S'\x07\xdc\x04\x17'
tRp217
aF2969
aF2973.3800000000001
aF2946.04
aF2970.4499999999998
aI1767360000
aa(lp218
g124
(S'\x07\xdc\x04\x18'
tRp219
aF2967.3699999999999
aF2979.0799999999999
aF2950.3800000000001
aF2961.5999999999999
aI1690840000
aa(lp220
g124
(S'\x07\xdc\x04\x19'
tRp221
aF3013.6500000000001
aF3031.4099999999999
aF3010.5700000000002
aF3029.6300000000001
aI1721330000
aa(lp222
g124
(S'\x07\xdc\x04\x1a'
tRp223
aF3029.6199999999999
aF3056.77
aF3027.79
aF3050.6100000000001
aI1763510000
aa(lp224
g124
(S'\x07\xdc\x04\x1b'
tRp225
aF3060.3400000000001
aF3076.4400000000001
aF3043.3000000000002
aF3069.1999999999998
aI1777750000
aa(lp226
g124
(S'\x07\xdc\x04\x1e'
tRp227
aF3060.0599999999999
aF3063.6599999999999
aF3043.25
aF3046.3600000000001
aI1633170000
aa(lp228
g124
(S'\x07\xdc\x05\x01'
tRp229
aF3044.79
aF3085.4000000000001
aF3041.6199999999999
aF3050.4400000000001
aI1854230000
aa(lp230
g124
(S'\x07\xdc\x05\x02'
tRp231
aF3035.0700000000002
aF3061.4699999999998
aF3028.9400000000001
aF3059.8499999999999
aI1825190000
aa(lp232
g124
(S'\x07\xdc\x05\x03'
tRp233
aF3061.1300000000001
aF3061.3800000000001
aF3016.1999999999998
aF3024.3000000000002
aI1869130000
aa(lp234
g124
(S'\x07\xdc\x05\x04'
tRp235
aF3001.1500000000001
aF3001.48
aF2956.3400000000001
aF2956.3400000000001
aI1944010000
aasg175
g124
(S'\x07\xdc\x05\x07'
tRp236
sg177
S''
sg178
S'^IXIC'
p237
sg180
g181
sg182
(lp238
sg184
g185
sg186
g124
(S'\x07\xb3\x01\x01'
tRp239
sbag116
(g117
g118
NtRp240
(dp241
g121
(lp242
sg123
g124
(S'\x07\xdc\x05\x07'
tRp243
sg126
(lp244
sg128
S''
sg129
(lp245
sg131
g124
(S'\x07\xb3\x01\x01'
tRp246
sg133
(lp247
(lp248
g124
(S'\x07\xdc\x04\t'
tRp249
aF1397.45
aF1397.45
aF1378.24
aF1382.2
aL3468980000L
aa(lp250
g124
(S'\x07\xdc\x04\n'
tRp251
aF1382.1800000000001
aF1383.01
aF1357.3800000000001
aF1358.5899999999999
aL4631730000L
aa(lp252
g124
(S'\x07\xdc\x04\x0b'
tRp253
aF1358.98
aF1374.71
aF1358.98
aF1368.71
aL3743040000L
aa(lp254
g124
(S'\x07\xdc\x04\x0c'
tRp255
aF1368.77
aF1388.1300000000001
aF1368.77
aF1387.5699999999999
aL3618280000L
aa(lp256
g124
(S'\x07\xdc\x04\r'
tRp257
aF1387.6099999999999
aF1387.6099999999999
aF1369.8499999999999
aF1370.26
aL3631160000L
aa(lp258
g124
(S'\x07\xdc\x04\x10'
tRp259
aF1370.27
aF1379.6600000000001
aF1365.3800000000001
aF1369.5699999999999
aL3574780000L
aa(lp260
g124
(S'\x07\xdc\x04\x11'
tRp261
aF1369.5699999999999
aF1392.76
aF1369.5699999999999
aF1390.78
aL3456200000L
aa(lp262
g124
(S'\x07\xdc\x04\x12'
tRp263
aF1390.78
aF1390.78
aF1383.29
aF1385.1400000000001
aL3463140000L
aa(lp264
g124
(S'\x07\xdc\x04\x13'
tRp265
aF1385.0799999999999
aF1390.46
aF1370.3
aF1376.9200000000001
aL4180020000L
aa(lp266
g124
(S'\x07\xdc\x04\x14'
tRp267
aF1376.96
aF1387.4000000000001
aF1376.96
aF1378.53
aL3833320000L
aa(lp268
g124
(S'\x07\xdc\x04\x17'
tRp269
aF1378.53
aF1378.53
aF1358.79
aF1366.9400000000001
aL3654860000L
aa(lp270
g124
(S'\x07\xdc\x04\x18'
tRp271
aF1366.97
aF1375.5699999999999
aF1366.8199999999999
aF1371.97
aL3617100000L
aa(lp272
g124
(S'\x07\xdc\x04\x19'
tRp273
aF1372.1099999999999
aF1391.3699999999999
aF1372.1099999999999
aF1390.6900000000001
aL3998430000L
aa(lp274
g124
(S'\x07\xdc\x04\x1a'
tRp275
aF1390.6400000000001
aF1402.0899999999999
aF1387.28
aF1399.98
aL4034700000L
aa(lp276
g124
(S'\x07\xdc\x04\x1b'
tRp277
aF1400.1900000000001
aF1406.6400000000001
aF1397.3099999999999
aF1403.3599999999999
aL3645830000L
aa(lp278
g124
(S'\x07\xdc\x04\x1e'
tRp279
aF1403.26
aF1403.26
aF1394
aF1397.9100000000001
aL3574010000L
aa(lp280
g124
(S'\x07\xdc\x05\x01'
tRp281
aF1397.8599999999999
aF1415.3199999999999
aF1395.73
aF1405.8199999999999
aL3807950000L
aa(lp282
g124
(S'\x07\xdc\x05\x02'
tRp283
aF1405.5
aF1405.5
aF1393.9200000000001
aF1402.3099999999999
aL3803860000L
aa(lp284
g124
(S'\x07\xdc\x05\x03'
tRp285
aF1402.3199999999999
aF1403.0699999999999
aF1388.71
aF1391.5699999999999
aL4004910000L
aa(lp286
g124
(S'\x07\xdc\x05\x04'
tRp287
aF1391.51
aF1391.51
aF1367.96
aF1369.0999999999999
aL3975140000L
aasg175
g124
(S'\x07\xdc\x05\x07'
tRp288
sg177
S''
sg178
S'^GSPC'
p289
sg180
g181
sg182
(lp290
sg184
g185
sg186
g124
(S'\x07\xb3\x01\x01'
tRp291
sbag116
(g117
g118
NtRp292
(dp293
g121
(lp294
sg123
g124
(S'\x07\xb3\x01\x01'
tRp295
sg126
(lp296
sg128
S''
sg129
(lp297
sg131
g124
(S'\x07\xb3\x01\x01'
tRp298
sg133
(lp299
(lp300
g124
(S'\x07\xdc\x04\t'
tRp301
aF1.3097000000000001
aF1.3132999999999999
aF1.3033999999999999
aF1.3109999999999999
aa(lp302
g124
(S'\x07\xdc\x04\n'
tRp303
aF1.3109
aF1.3144
aF1.3055000000000001
aF1.3082
aa(lp304
g124
(S'\x07\xdc\x04\x0b'
tRp305
aF1.3083
aF1.3156000000000001
aF1.3066
aF1.3109999999999999
aa(lp306
g124
(S'\x07\xdc\x04\x0c'
tRp307
aF1.3109999999999999
aF1.3211999999999999
aF1.3102
aF1.3187
aa(lp308
g124
(S'\x07\xdc\x04\r'
tRp309
aF1.3188
aF1.3200000000000001
aF1.3069999999999999
aF1.3077000000000001
aa(lp310
g124
(S'\x07\xdc\x04\x10'
tRp311
aF1.3069999999999999
aF1.3147
aF1.2995000000000001
aF1.3131999999999999
aa(lp312
g124
(S'\x07\xdc\x04\x11'
tRp313
aF1.3131999999999999
aF1.3170999999999999
aF1.3089999999999999
aF1.3128
aa(lp314
g124
(S'\x07\xdc\x04\x12'
tRp315
aF1.3127
aF1.3140000000000001
aF1.3058000000000001
aF1.3119000000000001
aa(lp316
g124
(S'\x07\xdc\x04\x13'
tRp317
aF1.3119000000000001
aF1.3165
aF1.3069999999999999
aF1.3134999999999999
aa(lp318
g124
(S'\x07\xdc\x04\x14'
tRp319
aF1.3134999999999999
aF1.3227
aF1.3129
aF1.3219000000000001
aa(lp320
g124
(S'\x07\xdc\x04\x17'
tRp321
aF1.3190999999999999
aF1.321
aF1.3105
aF1.3156000000000001
aa(lp322
g124
(S'\x07\xdc\x04\x18'
tRp323
aF1.3158000000000001
aF1.3217000000000001
aF1.3145
aF1.3194999999999999
aa(lp324
g124
(S'\x07\xdc\x04\x19'
tRp325
aF1.3194999999999999
aF1.3236000000000001
aF1.3173999999999999
aF1.3223
aa(lp326
g124
(S'\x07\xdc\x04\x1a'
tRp327
aF1.3222
aF1.3262
aF1.3181
aF1.3190999999999999
aa(lp328
g124
(S'\x07\xdc\x04\x1b'
tRp329
aF1.3188
aF1.3267
aF1.3159000000000001
aF1.3255999999999999
aa(lp330
g124
(S'\x07\xdc\x04\x1e'
tRp331
aF1.3240000000000001
aF1.3264
aF1.321
aF1.3242
aa(lp332
g124
(S'\x07\xdc\x05\x01'
tRp333
aF1.3241000000000001
aF1.3279000000000001
aF1.3205
aF1.3238000000000001
aa(lp334
g124
(S'\x07\xdc\x05\x02'
tRp335
aF1.3240000000000001
aF1.3241000000000001
aF1.3125
aF1.3153999999999999
aa(lp336
g124
(S'\x07\xdc\x05\x03'
tRp337
aF1.3154999999999999
aF1.3179000000000001
aF1.3095000000000001
aF1.3151999999999999
aa(lp338
g124
(S'\x07\xdc\x05\x04'
tRp339
aF1.3151999999999999
aF1.3178000000000001
aF1.3080000000000001
aF1.3084
aasg175
g124
(S'\x07\xb3\x01\x01'
tRp340
sg177
S''
sg178
S'EURUSD'
p341
sg180
S'Stooq'
p342
sg182
(lp343
sg184
S'forex'
p344
sg186
g124
(S'\x07\xb3\x01\x01'
tRp345
sbag116
(g117
g118
NtRp346
(dp347
g121
(lp348
sg123
g295
sg126
(lp349
sg128
S''
sg129
(lp350
sg131
g124
(S'\x07\xb3\x01\x01'
tRp351
sg133
(lp352
(lp353
g124
(S'\x07\xdc\x04\t'
tRp354
aF2.0299999999999998
aF2.044
aF2.0190000000000001
aF2.0369999999999999
aa(lp355
g124
(S'\x07\xdc\x04\n'
tRp356
aF2.0470000000000002
aF2.0470000000000002
aF1.9650000000000001
aF1.988
aa(lp357
g124
(S'\x07\xdc\x04\x0b'
tRp358
aF2.0259999999999998
aF2.0459999999999998
aF2.0169999999999999
aF2.028
aa(lp359
g124
(S'\x07\xdc\x04\x0c'
tRp360
aF2.0369999999999999
aF2.0630000000000002
aF2.012
aF2.0489999999999999
aa(lp361
g124
(S'\x07\xdc\x04\r'
tRp362
aF2.0139999999999998
aF2.0259999999999998
aF1.9810000000000001
aF1.998
aa(lp363
g124
(S'\x07\xdc\x04\x10'
tRp364
aF1.97
aF1.998
aF1.946
aF1.974
aa(lp365
g124
(S'\x07\xdc\x04\x11'
tRp366
aF2.0019999999999998
aF2.0139999999999998
aF1.9910000000000001
aF2.0089999999999999
aa(lp367
g124
(S'\x07\xdc\x04\x12'
tRp368
aF1.988
aF1.9910000000000001
aF1.972
aF1.982
aa(lp369
g124
(S'\x07\xdc\x04\x13'
tRp370
aF1.9770000000000001
aF1.9790000000000001
aF1.9490000000000001
aF1.952
aa(lp371
g124
(S'\x07\xdc\x04\x14'
tRp372
aF1.9950000000000001
aF1.9950000000000001
aF1.9630000000000001
aF1.97
aa(lp373
g124
(S'\x07\xdc\x04\x17'
tRp374
aF1.9199999999999999
aF1.9399999999999999
aF1.9099999999999999
aF1.9299999999999999
aa(lp375
g124
(S'\x07\xdc\x04\x18'
tRp376
aF1.954
aF1.958
aF1.9370000000000001
aF1.952
aa(lp377
g124
(S'\x07\xdc\x04\x19'
tRp378
aF1.988
aF2.0350000000000001
aF1.97
aF1.984
aa(lp379
g124
(S'\x07\xdc\x04\x1a'
tRp380
aF1.954
aF1.968
aF1.9299999999999999
aF1.9590000000000001
aa(lp381
g124
(S'\x07\xdc\x04\x1b'
tRp382
aF1.9510000000000001
aF1.958
aF1.9259999999999999
aF1.9330000000000001
aa(lp383
g124
(S'\x07\xdc\x04\x1e'
tRp384
aF1.919
aF1.9239999999999999
aF1.907
aF1.915
aa(lp385
g124
(S'\x07\xdc\x05\x01'
tRp386
aF1.919
aF1.9610000000000001
aF1.8999999999999999
aF1.956
aa(lp387
g124
(S'\x07\xdc\x05\x02'
tRp388
aF1.9099999999999999
aF1.9379999999999999
aF1.8999999999999999
aF1.9219999999999999
aa(lp389
g124
(S'\x07\xdc\x05\x03'
tRp390
aF1.9239999999999999
aF1.956
aF1.915
aF1.9239999999999999
aa(lp391
g124
(S'\x07\xdc\x05\x04'
tRp392
aF1.9359999999999999
aF1.954
aF1.873
aF1.8799999999999999
aasg175
g124
(S'\x07\xb3\x01\x01'
tRp393
sg177
S''
sg178
S'10USY.B'
p394
sg180
g342
sg182
(lp395
sg184
S'bond'
p396
sg186
g124
(S'\x07\xb3\x01\x01'
tRp397
sbaa.