(lp1
(lp2
(lp3
S'Dow'
p4
aS'13,228.31'
p5
aS'+23.69'
p6
aS'+0.18%'
p7
aa(lp8
S'Nasdaq'
p9
aS'3,069.20'
p10
aS'+18.59'
p11
aS'+0.61%'
p12
aa(lp13
S'S&P 500'
p14
aS'1,403.36'
p15
aS'+3.38'
p16
aS'+0.24%'
p17
aa(lp18
S'EUR/USD'
p19
aS'1.3251'
p20
aS'0.01'
p21
aS'+0.45%'
p22
aa(lp23
S'10-Year'
p24
aS'1.93'
p25
aS'-0.03'
p26
aS'-0.36%'
p27
aa(lp28
S'Gold'
p29
aS'1,662.60'
p30
aS'2.10'
p31
aS'+0.13%'
p32
aa(lp33
S'Oil'
p34
aS'104.809998'
p35
aS'0.26'
p36
aS'+0.25%'
p37
aaa(lp38
(lp39
S'SIRI'
p40
aS'2.26'
p41
aS'0.00'
p42
aS'0.00%'
p43
aa(lp44
S'JASO'
p45
aS'1.30'
p46
aS'0.00'
p47
aS'0.00%'
p48
aa(lp49
S'URI'
p50
aS'46.68'
p51
aS'0.00'
p52
aS'0.00%'
p53
aa(lp54
S'ZNGA'
p55
aS'8.34'
p56
aS'0.00'
p57
aS'0.00%'
p58
aa(lp59
S'AAPL'
p60
aS'583.98'
p61
aS'0.00'
p62
aS'0.00%'
p63
aaa(lp64
(lp65
S'VLYWW'
p66
aS'1.60'
p67
aS'-0.00'
p68
aS'-0.00%'
p69
aa(lp70
S'ZIONW'
p71
aS'4.15'
p72
aS'-0.00'
p73
aS'-0.00%'
p74
aa(lp75
S'TEN'
p76
aS'30.83'
p77
aS'-0.00'
p78
aS'-0.00%'
p79
aa(lp80
S'RBPAA'
p81
aS'1.34'
p82
aS'-0.00'
p83
aS'-0.00%'
p84
aa(lp85
S'CNYD'
p86
aS'1.33'
p87
aS'-0.00'
p88
aS'-0.00%'
p89
aaa(lp90
(lp91
S'EDS'
p92
aS'3.65'
p93
aS'0.00'
p94
aS'0.00%'
p95
aa(lp96
S'BKS'
p97
aS'20.75'
p98
aS'0.00'
p99
aS'0.00%'
p100
aa(lp101
S'IFT'
p102
aS'3.83'
p103
aS'0.00'
p104
aS'0.00%'
p105
aa(lp106
S'BAMM'
p107
aS'3.19'
p108
aS'0.00'
p109
aS'0.00%'
p110
aa(lp111
S'AIM'
p112
aS'3.45'
p113
aS'0.00'
p114
aS'0.00%'
p115
aaa(lp116
ccopy_reg
_reconstructor
p117
(cDataParserModule.dataParser
FinancialObject
p118
c__builtin__
object
p119
NtRp120
(dp121
S'valuesMonthly'
p122
(lp123
sS'lastUpdate'
p124
cdatetime
date
p125
(S'\x07\xdc\x05\x01'
tRp126
sS'currentValue'
p127
(lp128
sS'name'
p129
S''
sS'valuesWeekly'
p130
(lp131
sS'weeklyUpdate'
p132
g125
(S'\x07\xb3\x01\x01'
tRp133
sS'valuesDaily'
p134
(lp135
(lp136
g125
(S'\x07\xdc\x04\x02'
tRp137
aF13147.940000000001
aF13316.860000000001
aF13128.860000000001
aF13264.49
aL3572010000L
aa(lp138
g125
(S'\x07\xdc\x04\x03'
tRp139
aF13258.959999999999
aF13297.139999999999
aF13114.18
aF13199.549999999999
aL3822090000L
aa(lp140
g125
(S'\x07\xdc\x04\x04'
tRp141
aF13198.190000000001
aF13198.190000000001
aF12995.049999999999
aF13074.75
aL3938290000L
aa(lp142
g125
(S'\x07\xdc\x04\x05'
tRp143
aF13067.18
aF13123.07
aF12975.98
aF13060.139999999999
aL3303740000L
aa(lp144
g125
(S'\x07\xdc\x04\t'
tRp145
aF13057.57
aF13057.57
aF12860.110000000001
aF12929.59
aL3468980000L
aa(lp146
g125
(S'\x07\xdc\x04\n'
tRp147
aF12929.59
aF12951.459999999999
aF12689.1
aF12715.93
aL4631730000L
aa(lp148
g125
(S'\x07\xdc\x04\x0b'
tRp149
aF12716.92
aF12890.91
aF12716.92
aF12805.389999999999
aL3743040000L
aa(lp150
g125
(S'\x07\xdc\x04\x0c'
tRp151
aF12806.450000000001
aF13018.82
aF12784.92
aF12986.58
aL3618280000L
aa(lp152
g125
(S'\x07\xdc\x04\r'
tRp153
aF12986.200000000001
aF12992.629999999999
aF12826.049999999999
aF12849.59
aL3631160000L
aa(lp154
g125
(S'\x07\xdc\x04\x10'
tRp155
aF12850.879999999999
aF13032.59
aF12840.51
aF12921.41
aL3574780000L
aa(lp156
g125
(S'\x07\xdc\x04\x11'
tRp157
aF12921.870000000001
aF13168.33
aF12921.870000000001
aF13115.540000000001
aL3456200000L
aa(lp158
g125
(S'\x07\xdc\x04\x12'
tRp159
aF13114.559999999999
aF13131.700000000001
aF12977.16
aF13032.75
aL3463140000L
aa(lp160
g125
(S'\x07\xdc\x04\x13'
tRp161
aF13028.73
aF13115.049999999999
aF12874.299999999999
aF12964.1
aL4180020000L
aa(lp162
g125
(S'\x07\xdc\x04\x14'
tRp163
aF12964.48
aF13127.99
aF12961
aF13029.26
aL3833320000L
aa(lp164
g125
(S'\x07\xdc\x04\x17'
tRp165
aF13028.049999999999
aF13028.049999999999
aF12810.24
aF12927.17
aL3654860000L
aa(lp166
g125
(S'\x07\xdc\x04\x18'
tRp167
aF12927.77
aF13088.75
aF12902.34
aF13001.559999999999
aL3617100000L
aa(lp168
g125
(S'\x07\xdc\x04\x19'
tRp169
aF12997.540000000001
aF13169.92
aF12972.65
aF13090.719999999999
aL3998430000L
aa(lp170
g125
(S'\x07\xdc\x04\x1a'
tRp171
aF13090.040000000001
aF13243.83
aF13044.700000000001
aF13204.620000000001
aL4034700000L
aa(lp172
g125
(S'\x07\xdc\x04\x1b'
tRp173
aF13204.700000000001
aF13311.870000000001
aF13152.82
aF13228.309999999999
aL3645830000L
aa(lp174
g125
(S'\x07\xdc\x04\x1e'
tRp175
aF13228.389999999999
aF13271.9
aF13132.799999999999
aF13213.629999999999
aL3574010000L
aasS'dailyUpdate'
p176
g125
(S'\x07\xdc\x05\x01'
tRp177
sS'detail'
p178
S''
sS'abbreviation'
p179
S'^DJI'
p180
sS'dataSource'
p181
S'Yahoo'
p182
sS'previousValues'
p183
(lp184
sS'financialType'
p185
S'index'
p186
sS'monthlyUpdate'
p187
g125
(S'\x07\xb3\x01\x01'
tRp188
sbag117
(g118
g119
NtRp189
(dp190
g122
(lp191
sg124
g125
(S'\x07\xdc\x05\x01'
tRp192
sg127
(lp193
sg129
S''
sg130
(lp194
sg132
g125
(S'\x07\xb3\x01\x01'
tRp195
sg134
(lp196
(lp197
g125
(S'\x07\xdc\x04\x02'
tRp198
aF3085.9400000000001
aF3123.0300000000002
aF3079.7800000000002
aF3119.6999999999998
aI1768210000
aa(lp199
g125
(S'\x07\xdc\x04\x03'
tRp200
aF3119.6500000000001
aF3128.25
aF3097.4099999999999
aF3113.5700000000002
aI1804950000
aa(lp201
g125
(S'\x07\xdc\x04\x04'
tRp202
aF3085.46
aF3086.3499999999999
aF3052.5799999999999
aF3068.0900000000001
aI1813150000
aa(lp203
g125
(S'\x07\xdc\x04\x05'
tRp204
aF3061.75
aF3083.3800000000001
aF3061.1399999999999
aF3080.5
aI1548040000
aa(lp205
g125
(S'\x07\xdc\x04\t'
tRp206
aF3037.2800000000002
aF3058.7600000000002
aF3032.2199999999998
aF3047.0799999999999
aI1371140000
aa(lp207
g125
(S'\x07\xdc\x04\n'
tRp208
aF3044.6700000000001
aF3055.1999999999998
aF2987
aF2991.2199999999998
aI1953600000
aa(lp209
g125
(S'\x07\xdc\x04\x0b'
tRp210
aF3020.1500000000001
aF3030.5100000000002
aF3008.75
aF3016.46
aI1540890000
aa(lp211
g125
(S'\x07\xdc\x04\x0c'
tRp212
aF3023.1100000000001
aF3059.2600000000002
aF3020.4400000000001
aF3055.5500000000002
aI1480340000
aa(lp213
g125
(S'\x07\xdc\x04\r'
tRp214
aF3045.0799999999999
aF3045.4200000000001
aF3010.77
aF3011.3299999999999
aI1483850000
aa(lp215
g125
(S'\x07\xdc\x04\x10'
tRp216
aF3027.5700000000002
aF3027.5700000000002
aF2975.8699999999999
aF2988.4000000000001
aI1594320000
aa(lp217
g125
(S'\x07\xdc\x04\x11'
tRp218
aF3002.02
aF3052.7600000000002
aF2999.4899999999998
aF3042.8200000000002
aI1555070000
aa(lp219
g125
(S'\x07\xdc\x04\x12'
tRp220
aF3031.8200000000002
aF3045.04
aF3023.9099999999999
aF3031.4499999999998
aI1599470000
aa(lp221
g125
(S'\x07\xdc\x04\x13'
tRp222
aF3028.1999999999998
aF3058.7199999999998
aF2994.9400000000001
aF3007.5599999999999
aI1991120000
aa(lp223
g125
(S'\x07\xdc\x04\x14'
tRp224
aF3023.73
aF3034.6900000000001
aF2999.0100000000002
aF3000.4499999999998
aI1935880000
aa(lp225
g125
(S'\x07\xdc\x04\x17'
tRp226
aF2969
aF2973.3800000000001
aF2946.04
aF2970.4499999999998
aI1767360000
aa(lp227
g125
(S'\x07\xdc\x04\x18'
tRp228
aF2967.3699999999999
aF2979.0799999999999
aF2950.3800000000001
aF2961.5999999999999
aI1690840000
aa(lp229
g125
(S'\x07\xdc\x04\x19'
tRp230
aF3013.6500000000001
aF3031.4099999999999
aF3010.5700000000002
aF3029.6300000000001
aI1721330000
aa(lp231
g125
(S'\x07\xdc\x04\x1a'
tRp232
aF3029.6199999999999
aF3056.77
aF3027.79
aF3050.6100000000001
aI1763510000
aa(lp233
g125
(S'\x07\xdc\x04\x1b'
tRp234
aF3060.3400000000001
aF3076.4400000000001
aF3043.3000000000002
aF3069.1999999999998
aI1777750000
aa(lp235
g125
(S'\x07\xdc\x04\x1e'
tRp236
aF3060.0599999999999
aF3063.6599999999999
aF3043.25
aF3046.3600000000001
aI1633170000
aasg176
g125
(S'\x07\xdc\x05\x01'
tRp237
sg178
S''
sg179
S'^IXIC'
p238
sg181
g182
sg183
(lp239
sg185
g186
sg187
g125
(S'\x07\xb3\x01\x01'
tRp240
sbag117
(g118
g119
NtRp241
(dp242
g122
(lp243
sg124
g125
(S'\x07\xdc\x05\x01'
tRp244
sg127
(lp245
sg129
S''
sg130
(lp246
sg132
g125
(S'\x07\xb3\x01\x01'
tRp247
sg134
(lp248
(lp249
g125
(S'\x07\xdc\x04\x02'
tRp250
aF1408.47
aF1422.3800000000001
aF1404.46
aF1419.04
aL3572010000L
aa(lp251
g125
(S'\x07\xdc\x04\x03'
tRp252
aF1418.98
aF1419
aF1404.6199999999999
aF1413.3800000000001
aL3822090000L
aa(lp253
g125
(S'\x07\xdc\x04\x04'
tRp254
aF1413.0899999999999
aF1413.0899999999999
aF1394.0899999999999
aF1398.96
aL3938290000L
aa(lp255
g125
(S'\x07\xdc\x04\x05'
tRp256
aF1398.79
aF1401.5999999999999
aF1392.9200000000001
aF1398.0799999999999
aL3303740000L
aa(lp257
g125
(S'\x07\xdc\x04\t'
tRp258
aF1397.45
aF1397.45
aF1378.24
aF1382.2
aL3468980000L
aa(lp259
g125
(S'\x07\xdc\x04\n'
tRp260
aF1382.1800000000001
aF1383.01
aF1357.3800000000001
aF1358.5899999999999
aL4631730000L
aa(lp261
g125
(S'\x07\xdc\x04\x0b'
tRp262
aF1358.98
aF1374.71
aF1358.98
aF1368.71
aL3743040000L
aa(lp263
g125
(S'\x07\xdc\x04\x0c'
tRp264
aF1368.77
aF1388.1300000000001
aF1368.77
aF1387.5699999999999
aL3618280000L
aa(lp265
g125
(S'\x07\xdc\x04\r'
tRp266
aF1387.6099999999999
aF1387.6099999999999
aF1369.8499999999999
aF1370.26
aL3631160000L
aa(lp267
g125
(S'\x07\xdc\x04\x10'
tRp268
aF1370.27
aF1379.6600000000001
aF1365.3800000000001
aF1369.5699999999999
aL3574780000L
aa(lp269
g125
(S'\x07\xdc\x04\x11'
tRp270
aF1369.5699999999999
aF1392.76
aF1369.5699999999999
aF1390.78
aL3456200000L
aa(lp271
g125
(S'\x07\xdc\x04\x12'
tRp272
aF1390.78
aF1390.78
aF1383.29
aF1385.1400000000001
aL3463140000L
aa(lp273
g125
(S'\x07\xdc\x04\x13'
tRp274
aF1385.0799999999999
aF1390.46
aF1370.3
aF1376.9200000000001
aL4180020000L
aa(lp275
g125
(S'\x07\xdc\x04\x14'
tRp276
aF1376.96
aF1387.4000000000001
aF1376.96
aF1378.53
aL3833320000L
aa(lp277
g125
(S'\x07\xdc\x04\x17'
tRp278
aF1378.53
aF1378.53
aF1358.79
aF1366.9400000000001
aL3654860000L
aa(lp279
g125
(S'\x07\xdc\x04\x18'
tRp280
aF1366.97
aF1375.5699999999999
aF1366.8199999999999
aF1371.97
aL3617100000L
aa(lp281
g125
(S'\x07\xdc\x04\x19'
tRp282
aF1372.1099999999999
aF1391.3699999999999
aF1372.1099999999999
aF1390.6900000000001
aL3998430000L
aa(lp283
g125
(S'\x07\xdc\x04\x1a'
tRp284
aF1390.6400000000001
aF1402.0899999999999
aF1387.28
aF1399.98
aL4034700000L
aa(lp285
g125
(S'\x07\xdc\x04\x1b'
tRp286
aF1400.1900000000001
aF1406.6400000000001
aF1397.3099999999999
aF1403.3599999999999
aL3645830000L
aa(lp287
g125
(S'\x07\xdc\x04\x1e'
tRp288
aF1403.26
aF1403.26
aF1394
aF1397.9100000000001
aL3574010000L
aasg176
g125
(S'\x07\xdc\x05\x01'
tRp289
sg178
S''
sg179
S'^GSPC'
p290
sg181
g182
sg183
(lp291
sg185
g186
sg187
g125
(S'\x07\xb3\x01\x01'
tRp292
sbag117
(g118
g119
NtRp293
(dp294
g122
(lp295
sg124
g125
(S'\x07\xb3\x01\x01'
tRp296
sg127
(lp297
sg129
S''
sg130
(lp298
sg132
g125
(S'\x07\xb3\x01\x01'
tRp299
sg134
(lp300
(lp301
g125
(S'\x07\xdc\x04\x02'
tRp302
aF1.3357000000000001
aF1.3380000000000001
aF1.3278000000000001
aF1.3317000000000001
aa(lp303
g125
(S'\x07\xdc\x04\x03'
tRp304
aF1.3315999999999999
aF1.3367
aF1.3212999999999999
aF1.3234999999999999
aa(lp305
g125
(S'\x07\xdc\x04\x04'
tRp306
aF1.3234999999999999
aF1.3237000000000001
aF1.3107
aF1.3140000000000001
aa(lp307
g125
(S'\x07\xdc\x04\x05'
tRp308
aF1.3140000000000001
aF1.3164
aF1.3035000000000001
aF1.3064
aa(lp309
g125
(S'\x07\xdc\x04\x06'
tRp310
aF1.3064
aF1.3111999999999999
aF1.3051999999999999
aF1.3095000000000001
aa(lp311
g125
(S'\x07\xdc\x04\t'
tRp312
aF1.3097000000000001
aF1.3132999999999999
aF1.3033999999999999
aF1.3109999999999999
aa(lp313
g125
(S'\x07\xdc\x04\n'
tRp314
aF1.3109
aF1.3144
aF1.3055000000000001
aF1.3082
aa(lp315
g125
(S'\x07\xdc\x04\x0b'
tRp316
aF1.3083
aF1.3156000000000001
aF1.3066
aF1.3109999999999999
aa(lp317
g125
(S'\x07\xdc\x04\x0c'
tRp318
aF1.3109999999999999
aF1.3211999999999999
aF1.3102
aF1.3187
aa(lp319
g125
(S'\x07\xdc\x04\r'
tRp320
aF1.3188
aF1.3200000000000001
aF1.3069999999999999
aF1.3077000000000001
aa(lp321
g125
(S'\x07\xdc\x04\x10'
tRp322
aF1.3069999999999999
aF1.3147
aF1.2995000000000001
aF1.3131999999999999
aa(lp323
g125
(S'\x07\xdc\x04\x11'
tRp324
aF1.3131999999999999
aF1.3170999999999999
aF1.3089999999999999
aF1.3128
aa(lp325
g125
(S'\x07\xdc\x04\x12'
tRp326
aF1.3127
aF1.3140000000000001
aF1.3058000000000001
aF1.3119000000000001
aa(lp327
g125
(S'\x07\xdc\x04\x13'
tRp328
aF1.3119000000000001
aF1.3165
aF1.3069999999999999
aF1.3134999999999999
aa(lp329
g125
(S'\x07\xdc\x04\x14'
tRp330
aF1.3134999999999999
aF1.3227
aF1.3129
aF1.3219000000000001
aa(lp331
g125
(S'\x07\xdc\x04\x17'
tRp332
aF1.3190999999999999
aF1.321
aF1.3105
aF1.3156000000000001
aa(lp333
g125
(S'\x07\xdc\x04\x18'
tRp334
aF1.3158000000000001
aF1.3217000000000001
aF1.3145
aF1.3194999999999999
aa(lp335
g125
(S'\x07\xdc\x04\x19'
tRp336
aF1.3194999999999999
aF1.3236000000000001
aF1.3173999999999999
aF1.3223
aa(lp337
g125
(S'\x07\xdc\x04\x1a'
tRp338
aF1.3222
aF1.3262
aF1.3181
aF1.3190999999999999
aa(lp339
g125
(S'\x07\xdc\x04\x1b'
tRp340
aF1.3188
aF1.3267
aF1.3159000000000001
aF1.3255999999999999
aa(lp341
g125
(S'\x07\xdc\x04\x1e'
tRp342
aF1.3240000000000001
aF1.3264
aF1.321
aF1.3242
aa(lp343
g125
(S'\x07\xdc\x05\x01'
tRp344
aF1.3241000000000001
aF1.3277000000000001
aF1.3233999999999999
aF1.3251999999999999
aasg176
g125
(S'\x07\xb3\x01\x01'
tRp345
sg178
S''
sg179
S'EURUSD'
p346
sg181
S'Stooq'
p347
sg183
(lp348
sg185
S'forex'
p349
sg187
g125
(S'\x07\xb3\x01\x01'
tRp350
sbag117
(g118
g119
NtRp351
(dp352
g122
(lp353
sg124
g296
sg127
(lp354
sg129
S''
sg130
(lp355
sg132
g125
(S'\x07\xb3\x01\x01'
tRp356
sg134
(lp357
(lp358
g125
(S'\x07\xdc\x04\x02'
tRp359
aF2.2000000000000002
aF2.2069999999999999
aF2.1619999999999999
aF2.1930000000000001
aa(lp360
g125
(S'\x07\xdc\x04\x03'
tRp361
aF2.161
aF2.2839999999999998
aF2.1539999999999999
aF2.2839999999999998
aa(lp362
g125
(S'\x07\xdc\x04\x04'
tRp363
aF2.2589999999999999
aF2.2629999999999999
aF2.2269999999999999
aF2.2429999999999999
aa(lp364
g125
(S'\x07\xdc\x04\x05'
tRp365
aF2.1749999999999998
aF2.2090000000000001
aF2.1400000000000001
aF2.1749999999999998
aa(lp366
g125
(S'\x07\xdc\x04\t'
tRp367
aF2.0299999999999998
aF2.044
aF2.0190000000000001
aF2.0369999999999999
aa(lp368
g125
(S'\x07\xdc\x04\n'
tRp369
aF2.0470000000000002
aF2.0470000000000002
aF1.9650000000000001
aF1.988
aa(lp370
g125
(S'\x07\xdc\x04\x0b'
tRp371
aF2.0259999999999998
aF2.0459999999999998
aF2.0169999999999999
aF2.028
aa(lp372
g125
(S'\x07\xdc\x04\x0c'
tRp373
aF2.0369999999999999
aF2.0630000000000002
aF2.012
aF2.0489999999999999
aa(lp374
g125
(S'\x07\xdc\x04\r'
tRp375
aF2.0139999999999998
aF2.0259999999999998
aF1.9810000000000001
aF1.998
aa(lp376
g125
(S'\x07\xdc\x04\x10'
tRp377
aF1.97
aF1.998
aF1.946
aF1.974
aa(lp378
g125
(S'\x07\xdc\x04\x11'
tRp379
aF2.0019999999999998
aF2.0139999999999998
aF1.9910000000000001
aF2.0089999999999999
aa(lp380
g125
(S'\x07\xdc\x04\x12'
tRp381
aF1.988
aF1.9910000000000001
aF1.972
aF1.982
aa(lp382
g125
(S'\x07\xdc\x04\x13'
tRp383
aF1.9770000000000001
aF1.9790000000000001
aF1.9490000000000001
aF1.952
aa(lp384
g125
(S'\x07\xdc\x04\x14'
tRp385
aF1.9950000000000001
aF1.9950000000000001
aF1.9630000000000001
aF1.97
aa(lp386
g125
(S'\x07\xdc\x04\x17'
tRp387
aF1.9199999999999999
aF1.9399999999999999
aF1.9099999999999999
aF1.9299999999999999
aa(lp388
g125
(S'\x07\xdc\x04\x18'
tRp389
aF1.954
aF1.958
aF1.9370000000000001
aF1.952
aa(lp390
g125
(S'\x07\xdc\x04\x19'
tRp391
aF1.988
aF2.0350000000000001
aF1.97
aF1.984
aa(lp392
g125
(S'\x07\xdc\x04\x1a'
tRp393
aF1.954
aF1.968
aF1.9299999999999999
aF1.9590000000000001
aa(lp394
g125
(S'\x07\xdc\x04\x1b'
tRp395
aF1.9510000000000001
aF1.958
aF1.9259999999999999
aF1.9330000000000001
aa(lp396
g125
(S'\x07\xdc\x04\x1e'
tRp397
aF1.919
aF1.9239999999999999
aF1.907
aF1.915
aasg176
g125
(S'\x07\xb3\x01\x01'
tRp398
sg178
S''
sg179
S'10USY.B'
p399
sg181
g347
sg183
(lp400
sg185
S'bond'
p401
sg187
g125
(S'\x07\xb3\x01\x01'
tRp402
sbaa.