(lp1
(lp2
I50
aI-50
aI100
aI-90
aI-100
aI-80
aI-80
aI100
aI100
aI80
aI80
aI50
aI20
aI20
aI50
aI50
aI50
aI50
aI50
aI50
aI50
aI50
aI50
aI30
aI10
aI-50
aI-50
aI-30
aI15
aI10
aI0
aI0
aI-10
aI-5
aa(lp3
I0
aI0
aI1
aI0
aI0
aI0
aI0
aI0
aI0
aI0
aI0
aI0
aI0
aI0
aI1
aI2
aI3
aI0
aI0
aI0
aI0
aI0
aI0
aI0
aI0
aI0
aI0
aI0
aI0
aI0
aI0
aI0
aI0
aI0
aa(lp4
I0
aI0
aI0
aI1
aI2
aI3
aI3
aI5
aI0
aI0
aI0
aI0
aI0
aI0
aI2
aI2
aI1
aI2
aI3
aI3
aI0
aI5
aI0
aI0
aI0
aI0
aI0
aI0
aI0
aI0
aI0
aI0
aI0
aI0
aa(lp5
I00
aI00
aI00
aI01
aI01
aI01
aI01
aI00
aI00
aI00
aI01
aI01
aI01
aI01
aI01
aI01
aI01
aI01
aI01
aI01
aI01
aI01
aI01
aI01
aI01
aI01
aI01
aI01
aI01
aI01
aI01
aI01
aI01
aI01
aa.