(lp1
(dp2
S'index'
p3
(lp4
I5
aI2
aI6135
asS'step'
p5
csip
_unpickle_type
p6
(S'PyQt4.QtCore'
p7
S'QString'
(Vdaily
<<<<<<< HEAD
p8
ttRp9
=======
p9
ttRp10
sS'chartType'
p11
g7
(g8
S'QString'
(Vpoint
p12
ttRp13
sS'index'
p14
I6340
sS'indicator'
p15
(lp16
>>>>>>> 1fce6c05d0cb233b29fb6ff44b7868fb325a90fe
sS'scale'
p10
S'linear'
p11
sS'end'
p12
cdatetime
datetime
<<<<<<< HEAD
p13
(S'\x07\xdc\x05\x0f\x00\x00\x00\x00\x00\x00'
tRp14
sS'start'
p15
g13
(S'\x07\xdc\x05\x02\x00\x00\x00\x00\x00\x00'
tRp16
sS'chartType'
p17
g6
(g7
S'QString'
(Vline
p18
ttRp19
=======
p20
(S'\x07\xdc\x05\x12\x00\x00\x00\x00\x00\x00'
tRp21
>>>>>>> 1fce6c05d0cb233b29fb6ff44b7868fb325a90fe
sS'hideVolumen'
p20
I00
<<<<<<< HEAD
sS'finObjType'
p21
S'compare'
p22
=======
sS'oscilator'
p23
S'momentum'
p24
sS'start'
p25
g20
(S'\x07\xdc\x05\x12\x00\x00\x00\x00\x00\x00'
tRp26
sS'lineWidth'
p27
F2
>>>>>>> 1fce6c05d0cb233b29fb6ff44b7868fb325a90fe
sS'painting'
p23
I00
sa.